
system：     文件格式 elf64-x86-64


Disassembly of section .text:

ffff800000100000 <_start>:
ffff800000100000:	66 b8 10 00          	mov    $0x10,%ax
ffff800000100004:	8e d8                	mov    %eax,%ds
ffff800000100006:	8e c0                	mov    %eax,%es
ffff800000100008:	8e e0                	mov    %eax,%fs
ffff80000010000a:	8e d0                	mov    %eax,%ss
ffff80000010000c:	bc 00 7e 00 00       	mov    $0x7e00,%esp
ffff800000100011:	0f 01 15 30 b5 00 00 	lgdt   0xb530(%rip)        # ffff80000010b548 <GDT_END>
ffff800000100018:	0f 01 1d 33 c5 00 00 	lidt   0xc533(%rip)        # ffff80000010c552 <IDT_END>
ffff80000010001f:	66 b8 10 00          	mov    $0x10,%ax
ffff800000100023:	8e d8                	mov    %eax,%ds
ffff800000100025:	8e c0                	mov    %eax,%es
ffff800000100027:	8e e0                	mov    %eax,%fs
ffff800000100029:	8e e8                	mov    %eax,%gs
ffff80000010002b:	8e d0                	mov    %eax,%ss
ffff80000010002d:	48 c7 c4 00 7e 00 00 	mov    $0x7e00,%rsp
ffff800000100034:	48 c7 c0 00 10 10 00 	mov    $0x101000,%rax
ffff80000010003b:	0f 22 d8             	mov    %rax,%cr3
ffff80000010003e:	48 8b 05 05 00 00 00 	mov    0x5(%rip),%rax        # ffff80000010004a <switch_seg>
ffff800000100045:	6a 08                	pushq  $0x8
ffff800000100047:	50                   	push   %rax
ffff800000100048:	48 cb                	lretq  

ffff80000010004a <switch_seg>:
ffff80000010004a:	52                   	push   %rdx
ffff80000010004b:	00 10                	add    %dl,(%rax)
ffff80000010004d:	00 00                	add    %al,(%rax)
ffff80000010004f:	80 ff ff             	cmp    $0xff,%bh

ffff800000100052 <entry64>:
ffff800000100052:	48 c7 c0 10 00 00 00 	mov    $0x10,%rax
ffff800000100059:	48 8e d8             	mov    %rax,%ds
ffff80000010005c:	48 8e c0             	mov    %rax,%es
ffff80000010005f:	48 8e e8             	mov    %rax,%gs
ffff800000100062:	48 8e d0             	mov    %rax,%ss
ffff800000100065:	48 bc 00 7e 00 00 00 	movabs $0xffff800000007e00,%rsp
ffff80000010006c:	80 ff ff 

ffff80000010006f <setup_IDT>:
ffff80000010006f:	48 8d 15 a6 00 00 00 	lea    0xa6(%rip),%rdx        # ffff80000010011c <ignore_int>
ffff800000100076:	48 c7 c0 00 00 08 00 	mov    $0x80000,%rax
ffff80000010007d:	66 89 d0             	mov    %dx,%ax
ffff800000100080:	48 b9 00 00 00 00 00 	movabs $0x8e0000000000,%rcx
ffff800000100087:	8e 00 00 
ffff80000010008a:	48 01 c8             	add    %rcx,%rax
ffff80000010008d:	89 d1                	mov    %edx,%ecx
ffff80000010008f:	c1 e9 10             	shr    $0x10,%ecx
ffff800000100092:	48 c1 e1 30          	shl    $0x30,%rcx
ffff800000100096:	48 01 c8             	add    %rcx,%rax
ffff800000100099:	48 c1 ea 20          	shr    $0x20,%rdx
ffff80000010009d:	48 8d 3d ae b4 00 00 	lea    0xb4ae(%rip),%rdi        # ffff80000010b552 <IDT_Table>
ffff8000001000a4:	48 c7 c1 00 01 00 00 	mov    $0x100,%rcx

ffff8000001000ab <rp_sidt>:
ffff8000001000ab:	48 89 07             	mov    %rax,(%rdi)
ffff8000001000ae:	48 89 57 08          	mov    %rdx,0x8(%rdi)
ffff8000001000b2:	48 83 c7 10          	add    $0x10,%rdi
ffff8000001000b6:	48 ff c9             	dec    %rcx
ffff8000001000b9:	75 f0                	jne    ffff8000001000ab <rp_sidt>

ffff8000001000bb <setup_TSS64>:
ffff8000001000bb:	48 8d 15 9a c4 00 00 	lea    0xc49a(%rip),%rdx        # ffff80000010c55c <TSS64_Table>
ffff8000001000c2:	48 31 c0             	xor    %rax,%rax
ffff8000001000c5:	48 31 c9             	xor    %rcx,%rcx
ffff8000001000c8:	48 c7 c0 89 00 00 00 	mov    $0x89,%rax
ffff8000001000cf:	48 c1 e0 28          	shl    $0x28,%rax
ffff8000001000d3:	89 d1                	mov    %edx,%ecx
ffff8000001000d5:	c1 e9 18             	shr    $0x18,%ecx
ffff8000001000d8:	48 c1 e1 38          	shl    $0x38,%rcx
ffff8000001000dc:	48 01 c8             	add    %rcx,%rax
ffff8000001000df:	48 31 c9             	xor    %rcx,%rcx
ffff8000001000e2:	89 d1                	mov    %edx,%ecx
ffff8000001000e4:	81 e1 ff ff ff 00    	and    $0xffffff,%ecx
ffff8000001000ea:	48 c1 e1 10          	shl    $0x10,%rcx
ffff8000001000ee:	48 01 c8             	add    %rcx,%rax
ffff8000001000f1:	48 83 c0 67          	add    $0x67,%rax
ffff8000001000f5:	48 8d 3d c4 b3 00 00 	lea    0xb3c4(%rip),%rdi        # ffff80000010b4c0 <GDT_Table>
ffff8000001000fc:	48 89 47 40          	mov    %rax,0x40(%rdi)
ffff800000100100:	48 c1 ea 20          	shr    $0x20,%rdx
ffff800000100104:	48 89 57 48          	mov    %rdx,0x48(%rdi)
ffff800000100108:	48 8b 05 05 00 00 00 	mov    0x5(%rip),%rax        # ffff800000100114 <go_to_kernel>
ffff80000010010f:	6a 08                	pushq  $0x8
ffff800000100111:	50                   	push   %rax
ffff800000100112:	48 cb                	lretq  

ffff800000100114 <go_to_kernel>:
ffff800000100114:	84 88 10 00 00 80    	test   %cl,-0x7ffffff0(%rax)
ffff80000010011a:	ff                   	(bad)  
ffff80000010011b:	ff                   	.byte 0xff

ffff80000010011c <ignore_int>:
ffff80000010011c:	fc                   	cld    
ffff80000010011d:	50                   	push   %rax
ffff80000010011e:	53                   	push   %rbx
ffff80000010011f:	51                   	push   %rcx
ffff800000100120:	52                   	push   %rdx
ffff800000100121:	55                   	push   %rbp
ffff800000100122:	57                   	push   %rdi
ffff800000100123:	56                   	push   %rsi
ffff800000100124:	41 50                	push   %r8
ffff800000100126:	41 51                	push   %r9
ffff800000100128:	41 52                	push   %r10
ffff80000010012a:	41 53                	push   %r11
ffff80000010012c:	41 54                	push   %r12
ffff80000010012e:	41 55                	push   %r13
ffff800000100130:	41 56                	push   %r14
ffff800000100132:	41 57                	push   %r15
ffff800000100134:	48 8c c0             	mov    %es,%rax
ffff800000100137:	50                   	push   %rax
ffff800000100138:	48 8c d8             	mov    %ds,%rax
ffff80000010013b:	50                   	push   %rax
ffff80000010013c:	48 c7 c0 10 00 00 00 	mov    $0x10,%rax
ffff800000100143:	48 8e d8             	mov    %rax,%ds
ffff800000100146:	48 8e c0             	mov    %rax,%es
ffff800000100149:	48 8d 05 45 00 00 00 	lea    0x45(%rip),%rax        # ffff800000100195 <int_msg>
ffff800000100150:	50                   	push   %rax
ffff800000100151:	48 89 c2             	mov    %rax,%rdx
ffff800000100154:	48 c7 c7 00 00 00 00 	mov    $0x0,%rdi
ffff80000010015b:	48 c7 c6 00 00 ff 00 	mov    $0xff0000,%rsi
ffff800000100162:	48 c7 c0 00 00 00 00 	mov    $0x0,%rax
ffff800000100169:	e8 5b 58 00 00       	callq  ffff8000001059c9 <printf_color>
ffff80000010016e:	48 83 c4 08          	add    $0x8,%rsp

ffff800000100172 <Loop>:
ffff800000100172:	eb fe                	jmp    ffff800000100172 <Loop>
ffff800000100174:	58                   	pop    %rax
ffff800000100175:	48 8e d8             	mov    %rax,%ds
ffff800000100178:	58                   	pop    %rax
ffff800000100179:	48 8e c0             	mov    %rax,%es
ffff80000010017c:	41 5f                	pop    %r15
ffff80000010017e:	41 5e                	pop    %r14
ffff800000100180:	41 5d                	pop    %r13
ffff800000100182:	41 5c                	pop    %r12
ffff800000100184:	41 5b                	pop    %r11
ffff800000100186:	41 5a                	pop    %r10
ffff800000100188:	41 59                	pop    %r9
ffff80000010018a:	41 58                	pop    %r8
ffff80000010018c:	5e                   	pop    %rsi
ffff80000010018d:	5f                   	pop    %rdi
ffff80000010018e:	5d                   	pop    %rbp
ffff80000010018f:	5a                   	pop    %rdx
ffff800000100190:	59                   	pop    %rcx
ffff800000100191:	5b                   	pop    %rbx
ffff800000100192:	58                   	pop    %rax
ffff800000100193:	48 cf                	iretq  

ffff800000100195 <int_msg>:
ffff800000100195:	55                   	push   %rbp
ffff800000100196:	6e                   	outsb  %ds:(%rsi),(%dx)
ffff800000100197:	6b 6e 6f 77          	imul   $0x77,0x6f(%rsi),%ebp
ffff80000010019b:	6e                   	outsb  %ds:(%rsi),(%dx)
ffff80000010019c:	20 69 6e             	and    %ch,0x6e(%rcx)
ffff80000010019f:	74 65                	je     ffff800000100206 <int_msg+0x71>
ffff8000001001a1:	72 72                	jb     ffff800000100215 <int_msg+0x80>
ffff8000001001a3:	75 70                	jne    ffff800000100215 <int_msg+0x80>
ffff8000001001a5:	74 20                	je     ffff8000001001c7 <int_msg+0x32>
ffff8000001001a7:	6f                   	outsl  %ds:(%rsi),(%dx)
ffff8000001001a8:	72 20                	jb     ffff8000001001ca <int_msg+0x35>
ffff8000001001aa:	66 61                	data16 (bad) 
ffff8000001001ac:	75 6c                	jne    ffff80000010021a <int_msg+0x85>
ffff8000001001ae:	74 20                	je     ffff8000001001d0 <int_msg+0x3b>
ffff8000001001b0:	61                   	(bad)  
ffff8000001001b1:	74 20                	je     ffff8000001001d3 <int_msg+0x3e>
ffff8000001001b3:	52                   	push   %rdx
ffff8000001001b4:	49 50                	rex.WB push %r8
ffff8000001001b6:	0a 00                	or     (%rax),%al
	...

ffff800000101000 <__PML4E>:
ffff800000101000:	07                   	(bad)  
ffff800000101001:	20 10                	and    %dl,(%rax)
	...
ffff8000001017ff:	00 07                	add    %al,(%rdi)
ffff800000101801:	20 10                	and    %dl,(%rax)
	...

ffff800000102000 <__PDPTE>:
ffff800000102000:	03 30                	add    (%rax),%esi
ffff800000102002:	10 00                	adc    %al,(%rax)
	...

ffff800000103000 <__PDE>:
ffff800000103000:	83 00 00             	addl   $0x0,(%rax)
ffff800000103003:	00 00                	add    %al,(%rax)
ffff800000103005:	00 00                	add    %al,(%rax)
ffff800000103007:	00 83 00 20 00 00    	add    %al,0x2000(%rbx)
ffff80000010300d:	00 00                	add    %al,(%rax)
ffff80000010300f:	00 83 00 40 00 00    	add    %al,0x4000(%rbx)
ffff800000103015:	00 00                	add    %al,(%rax)
ffff800000103017:	00 83 00 60 00 00    	add    %al,0x6000(%rbx)
ffff80000010301d:	00 00                	add    %al,(%rax)
ffff80000010301f:	00 83 00 80 00 00    	add    %al,0x8000(%rbx)
ffff800000103025:	00 00                	add    %al,(%rax)
ffff800000103027:	00 83 00 00 e0 00    	add    %al,0xe00000(%rbx)
ffff80000010302d:	00 00                	add    %al,(%rax)
ffff80000010302f:	00 83 00 20 e0 00    	add    %al,0xe02000(%rbx)
ffff800000103035:	00 00                	add    %al,(%rax)
ffff800000103037:	00 83 00 40 e0 00    	add    %al,0xe04000(%rbx)
ffff80000010303d:	00 00                	add    %al,(%rax)
ffff80000010303f:	00 83 00 60 e0 00    	add    %al,0xe06000(%rbx)
ffff800000103045:	00 00                	add    %al,(%rax)
ffff800000103047:	00 83 00 80 e0 00    	add    %al,0xe08000(%rbx)
ffff80000010304d:	00 00                	add    %al,(%rax)
ffff80000010304f:	00 83 00 a0 e0 00    	add    %al,0xe0a000(%rbx)
ffff800000103055:	00 00                	add    %al,(%rax)
ffff800000103057:	00 83 00 c0 e0 00    	add    %al,0xe0c000(%rbx)
ffff80000010305d:	00 00                	add    %al,(%rax)
ffff80000010305f:	00 83 00 e0 e0 00    	add    %al,0xe0e000(%rbx)
	...

ffff800000104000 <RESTORE_ALL>:
ffff800000104000:	41 5f                	pop    %r15
ffff800000104002:	41 5e                	pop    %r14
ffff800000104004:	41 5d                	pop    %r13
ffff800000104006:	41 5c                	pop    %r12
ffff800000104008:	41 5b                	pop    %r11
ffff80000010400a:	41 5a                	pop    %r10
ffff80000010400c:	41 59                	pop    %r9
ffff80000010400e:	41 58                	pop    %r8
ffff800000104010:	5b                   	pop    %rbx
ffff800000104011:	59                   	pop    %rcx
ffff800000104012:	5a                   	pop    %rdx
ffff800000104013:	5e                   	pop    %rsi
ffff800000104014:	5f                   	pop    %rdi
ffff800000104015:	5d                   	pop    %rbp
ffff800000104016:	58                   	pop    %rax
ffff800000104017:	48 8e d8             	mov    %rax,%ds
ffff80000010401a:	58                   	pop    %rax
ffff80000010401b:	48 8e c0             	mov    %rax,%es
ffff80000010401e:	58                   	pop    %rax
ffff80000010401f:	48 83 c4 10          	add    $0x10,%rsp
ffff800000104023:	48 cf                	iretq  

ffff800000104025 <ret_from_intr>:
ffff800000104025:	eb d9                	jmp    ffff800000104000 <RESTORE_ALL>

ffff800000104027 <divide_error>:
ffff800000104027:	6a 00                	pushq  $0x0
ffff800000104029:	50                   	push   %rax
ffff80000010402a:	48 8d 05 06 07 00 00 	lea    0x706(%rip),%rax        # ffff800000104737 <SolveErrorInt>
ffff800000104031:	48 87 04 24          	xchg   %rax,(%rsp)

ffff800000104035 <error_code>:
ffff800000104035:	50                   	push   %rax
ffff800000104036:	48 8c c0             	mov    %es,%rax
ffff800000104039:	50                   	push   %rax
ffff80000010403a:	48 8c d8             	mov    %ds,%rax
ffff80000010403d:	50                   	push   %rax
ffff80000010403e:	48 31 c0             	xor    %rax,%rax
ffff800000104041:	55                   	push   %rbp
ffff800000104042:	57                   	push   %rdi
ffff800000104043:	56                   	push   %rsi
ffff800000104044:	52                   	push   %rdx
ffff800000104045:	51                   	push   %rcx
ffff800000104046:	53                   	push   %rbx
ffff800000104047:	41 50                	push   %r8
ffff800000104049:	41 51                	push   %r9
ffff80000010404b:	41 52                	push   %r10
ffff80000010404d:	41 53                	push   %r11
ffff80000010404f:	41 54                	push   %r12
ffff800000104051:	41 55                	push   %r13
ffff800000104053:	41 56                	push   %r14
ffff800000104055:	41 57                	push   %r15
ffff800000104057:	fc                   	cld    
ffff800000104058:	48 8b b4 24 90 00 00 	mov    0x90(%rsp),%rsi
ffff80000010405f:	00 
ffff800000104060:	48 8b 94 24 88 00 00 	mov    0x88(%rsp),%rdx
ffff800000104067:	00 
ffff800000104068:	48 c7 c7 10 00 00 00 	mov    $0x10,%rdi
ffff80000010406f:	48 8e df             	mov    %rdi,%ds
ffff800000104072:	48 8e c7             	mov    %rdi,%es
ffff800000104075:	48 89 e7             	mov    %rsp,%rdi
ffff800000104078:	ff d2                	callq  *%rdx
ffff80000010407a:	eb a9                	jmp    ffff800000104025 <ret_from_intr>

ffff80000010407c <debug>:
ffff80000010407c:	6a 01                	pushq  $0x1
ffff80000010407e:	50                   	push   %rax
ffff80000010407f:	48 8d 05 b1 06 00 00 	lea    0x6b1(%rip),%rax        # ffff800000104737 <SolveErrorInt>
ffff800000104086:	48 87 04 24          	xchg   %rax,(%rsp)
ffff80000010408a:	eb a9                	jmp    ffff800000104035 <error_code>

ffff80000010408c <nmi>:
ffff80000010408c:	50                   	push   %rax
ffff80000010408d:	fc                   	cld    
ffff80000010408e:	50                   	push   %rax
ffff80000010408f:	50                   	push   %rax
ffff800000104090:	48 8c c0             	mov    %es,%rax
ffff800000104093:	50                   	push   %rax
ffff800000104094:	48 8c d8             	mov    %ds,%rax
ffff800000104097:	50                   	push   %rax
ffff800000104098:	48 31 c0             	xor    %rax,%rax
ffff80000010409b:	55                   	push   %rbp
ffff80000010409c:	57                   	push   %rdi
ffff80000010409d:	56                   	push   %rsi
ffff80000010409e:	52                   	push   %rdx
ffff80000010409f:	51                   	push   %rcx
ffff8000001040a0:	53                   	push   %rbx
ffff8000001040a1:	41 50                	push   %r8
ffff8000001040a3:	41 51                	push   %r9
ffff8000001040a5:	41 52                	push   %r10
ffff8000001040a7:	41 53                	push   %r11
ffff8000001040a9:	41 54                	push   %r12
ffff8000001040ab:	41 55                	push   %r13
ffff8000001040ad:	41 56                	push   %r14
ffff8000001040af:	41 57                	push   %r15
ffff8000001040b1:	48 c7 c2 10 00 00 00 	mov    $0x10,%rdx
ffff8000001040b8:	48 8e da             	mov    %rdx,%ds
ffff8000001040bb:	48 8e c2             	mov    %rdx,%es
ffff8000001040be:	48 c7 c6 00 00 00 00 	mov    $0x0,%rsi
ffff8000001040c5:	48 89 e7             	mov    %rsp,%rdi
ffff8000001040c8:	e8 6a 06 00 00       	callq  ffff800000104737 <SolveErrorInt>
ffff8000001040cd:	e9 2e ff ff ff       	jmpq   ffff800000104000 <RESTORE_ALL>

ffff8000001040d2 <int3>:
ffff8000001040d2:	6a 03                	pushq  $0x3
ffff8000001040d4:	50                   	push   %rax
ffff8000001040d5:	48 8d 05 53 11 00 00 	lea    0x1153(%rip),%rax        # ffff80000010522f <do_nmi>
ffff8000001040dc:	48 87 04 24          	xchg   %rax,(%rsp)
ffff8000001040e0:	e9 50 ff ff ff       	jmpq   ffff800000104035 <error_code>

ffff8000001040e5 <overflow>:
ffff8000001040e5:	6a 04                	pushq  $0x4
ffff8000001040e7:	50                   	push   %rax
ffff8000001040e8:	48 8d 05 48 06 00 00 	lea    0x648(%rip),%rax        # ffff800000104737 <SolveErrorInt>
ffff8000001040ef:	48 87 04 24          	xchg   %rax,(%rsp)
ffff8000001040f3:	e9 3d ff ff ff       	jmpq   ffff800000104035 <error_code>

ffff8000001040f8 <bounds>:
ffff8000001040f8:	6a 05                	pushq  $0x5
ffff8000001040fa:	50                   	push   %rax
ffff8000001040fb:	48 8d 05 35 06 00 00 	lea    0x635(%rip),%rax        # ffff800000104737 <SolveErrorInt>
ffff800000104102:	48 87 04 24          	xchg   %rax,(%rsp)
ffff800000104106:	e9 2a ff ff ff       	jmpq   ffff800000104035 <error_code>

ffff80000010410b <undefined_opcode>:
ffff80000010410b:	6a 06                	pushq  $0x6
ffff80000010410d:	50                   	push   %rax
ffff80000010410e:	48 8d 05 22 06 00 00 	lea    0x622(%rip),%rax        # ffff800000104737 <SolveErrorInt>
ffff800000104115:	48 87 04 24          	xchg   %rax,(%rsp)
ffff800000104119:	e9 17 ff ff ff       	jmpq   ffff800000104035 <error_code>

ffff80000010411e <dev_not_available>:
ffff80000010411e:	6a 07                	pushq  $0x7
ffff800000104120:	50                   	push   %rax
ffff800000104121:	48 8d 05 0f 06 00 00 	lea    0x60f(%rip),%rax        # ffff800000104737 <SolveErrorInt>
ffff800000104128:	48 87 04 24          	xchg   %rax,(%rsp)
ffff80000010412c:	e9 04 ff ff ff       	jmpq   ffff800000104035 <error_code>

ffff800000104131 <double_fault>:
ffff800000104131:	50                   	push   %rax
ffff800000104132:	48 8d 05 7c 11 00 00 	lea    0x117c(%rip),%rax        # ffff8000001052b5 <do_double_fault>
ffff800000104139:	48 87 04 24          	xchg   %rax,(%rsp)
ffff80000010413d:	e9 f3 fe ff ff       	jmpq   ffff800000104035 <error_code>

ffff800000104142 <coprocessor_segment_overrun>:
ffff800000104142:	6a 09                	pushq  $0x9
ffff800000104144:	50                   	push   %rax
ffff800000104145:	48 8d 05 ef 11 00 00 	lea    0x11ef(%rip),%rax        # ffff80000010533b <do_coprocessor_segment_overrun>
ffff80000010414c:	48 87 04 24          	xchg   %rax,(%rsp)
ffff800000104150:	e9 e0 fe ff ff       	jmpq   ffff800000104035 <error_code>

ffff800000104155 <invalid_TSS>:
ffff800000104155:	50                   	push   %rax
ffff800000104156:	48 8d 05 73 0c 00 00 	lea    0xc73(%rip),%rax        # ffff800000104dd0 <do_invalid_TSS>
ffff80000010415d:	48 87 04 24          	xchg   %rax,(%rsp)
ffff800000104161:	e9 cf fe ff ff       	jmpq   ffff800000104035 <error_code>

ffff800000104166 <segment_not_present>:
ffff800000104166:	50                   	push   %rax
ffff800000104167:	48 8d 05 53 12 00 00 	lea    0x1253(%rip),%rax        # ffff8000001053c1 <do_segment_not_present>
ffff80000010416e:	48 87 04 24          	xchg   %rax,(%rsp)
ffff800000104172:	e9 be fe ff ff       	jmpq   ffff800000104035 <error_code>

ffff800000104177 <stack_segment_fault>:
ffff800000104177:	50                   	push   %rax
ffff800000104178:	48 8d 05 b8 05 00 00 	lea    0x5b8(%rip),%rax        # ffff800000104737 <SolveErrorInt>
ffff80000010417f:	48 87 04 24          	xchg   %rax,(%rsp)
ffff800000104183:	e9 ad fe ff ff       	jmpq   ffff800000104035 <error_code>

ffff800000104188 <general_protection>:
ffff800000104188:	50                   	push   %rax
ffff800000104189:	48 8d 05 13 14 00 00 	lea    0x1413(%rip),%rax        # ffff8000001055a3 <do_general_protection>
ffff800000104190:	48 87 04 24          	xchg   %rax,(%rsp)
ffff800000104194:	e9 9c fe ff ff       	jmpq   ffff800000104035 <error_code>

ffff800000104199 <page_fault>:
ffff800000104199:	50                   	push   %rax
ffff80000010419a:	eb fd                	jmp    ffff800000104199 <page_fault>
ffff80000010419c:	48 8d 05 07 0e 00 00 	lea    0xe07(%rip),%rax        # ffff800000104faa <do_page_fault>
ffff8000001041a3:	48 87 04 24          	xchg   %rax,(%rsp)
ffff8000001041a7:	e9 89 fe ff ff       	jmpq   ffff800000104035 <error_code>

ffff8000001041ac <x87_FPU_error>:
ffff8000001041ac:	6a 10                	pushq  $0x10
ffff8000001041ae:	50                   	push   %rax
ffff8000001041af:	48 8d 05 81 05 00 00 	lea    0x581(%rip),%rax        # ffff800000104737 <SolveErrorInt>
ffff8000001041b6:	48 87 04 24          	xchg   %rax,(%rsp)
ffff8000001041ba:	e9 76 fe ff ff       	jmpq   ffff800000104035 <error_code>

ffff8000001041bf <alignment_check>:
ffff8000001041bf:	50                   	push   %rax
ffff8000001041c0:	48 8d 05 70 05 00 00 	lea    0x570(%rip),%rax        # ffff800000104737 <SolveErrorInt>
ffff8000001041c7:	48 87 04 24          	xchg   %rax,(%rsp)
ffff8000001041cb:	e9 65 fe ff ff       	jmpq   ffff800000104035 <error_code>

ffff8000001041d0 <machine_check>:
ffff8000001041d0:	6a 12                	pushq  $0x12
ffff8000001041d2:	50                   	push   %rax
ffff8000001041d3:	48 8d 05 5d 05 00 00 	lea    0x55d(%rip),%rax        # ffff800000104737 <SolveErrorInt>
ffff8000001041da:	48 87 04 24          	xchg   %rax,(%rsp)
ffff8000001041de:	e9 52 fe ff ff       	jmpq   ffff800000104035 <error_code>

ffff8000001041e3 <SIMD_exception>:
ffff8000001041e3:	6a 13                	pushq  $0x13
ffff8000001041e5:	50                   	push   %rax
ffff8000001041e6:	48 8d 05 4a 05 00 00 	lea    0x54a(%rip),%rax        # ffff800000104737 <SolveErrorInt>
ffff8000001041ed:	48 87 04 24          	xchg   %rax,(%rsp)
ffff8000001041f1:	e9 3f fe ff ff       	jmpq   ffff800000104035 <error_code>

ffff8000001041f6 <virtualization_exception>:
ffff8000001041f6:	6a 14                	pushq  $0x14
ffff8000001041f8:	50                   	push   %rax
ffff8000001041f9:	48 8d 05 37 05 00 00 	lea    0x537(%rip),%rax        # ffff800000104737 <SolveErrorInt>
ffff800000104200:	48 87 04 24          	xchg   %rax,(%rsp)
ffff800000104204:	e9 2c fe ff ff       	jmpq   ffff800000104035 <error_code>

ffff800000104209 <set_intr_gate>:
ffff800000104209:	55                   	push   %rbp
ffff80000010420a:	48 89 e5             	mov    %rsp,%rbp
ffff80000010420d:	48 83 ec 10          	sub    $0x10,%rsp
ffff800000104211:	48 8d 05 f9 ff ff ff 	lea    -0x7(%rip),%rax        # ffff800000104211 <set_intr_gate+0x8>
ffff800000104218:	49 bb a7 94 00 00 00 	movabs $0x94a7,%r11
ffff80000010421f:	00 00 00 
ffff800000104222:	4c 01 d8             	add    %r11,%rax
ffff800000104225:	89 7d fc             	mov    %edi,-0x4(%rbp)
ffff800000104228:	89 f1                	mov    %esi,%ecx
ffff80000010422a:	48 89 55 f0          	mov    %rdx,-0x10(%rbp)
ffff80000010422e:	88 4d f8             	mov    %cl,-0x8(%rbp)
ffff800000104231:	0f b6 55 f8          	movzbl -0x8(%rbp),%edx
ffff800000104235:	8b 4d fc             	mov    -0x4(%rbp),%ecx
ffff800000104238:	c1 e1 04             	shl    $0x4,%ecx
ffff80000010423b:	89 ce                	mov    %ecx,%esi
ffff80000010423d:	48 b9 70 ff ff ff ff 	movabs $0xffffffffffffff70,%rcx
ffff800000104244:	ff ff ff 
ffff800000104247:	48 8b 0c 08          	mov    (%rax,%rcx,1),%rcx
ffff80000010424b:	48 8d 3c 0e          	lea    (%rsi,%rcx,1),%rdi
ffff80000010424f:	48 8b 4d f0          	mov    -0x10(%rbp),%rcx
ffff800000104253:	be 8e 00 00 00       	mov    $0x8e,%esi
ffff800000104258:	49 b8 77 6c ff ff ff 	movabs $0xffffffffffff6c77,%r8
ffff80000010425f:	ff ff ff 
ffff800000104262:	4a 8d 04 00          	lea    (%rax,%r8,1),%rax
ffff800000104266:	ff d0                	callq  *%rax
ffff800000104268:	90                   	nop
ffff800000104269:	c9                   	leaveq 
ffff80000010426a:	c3                   	retq   

ffff80000010426b <set_trap_gate>:
ffff80000010426b:	55                   	push   %rbp
ffff80000010426c:	48 89 e5             	mov    %rsp,%rbp
ffff80000010426f:	48 83 ec 10          	sub    $0x10,%rsp
ffff800000104273:	48 8d 05 f9 ff ff ff 	lea    -0x7(%rip),%rax        # ffff800000104273 <set_trap_gate+0x8>
ffff80000010427a:	49 bb 45 94 00 00 00 	movabs $0x9445,%r11
ffff800000104281:	00 00 00 
ffff800000104284:	4c 01 d8             	add    %r11,%rax
ffff800000104287:	89 7d fc             	mov    %edi,-0x4(%rbp)
ffff80000010428a:	89 f1                	mov    %esi,%ecx
ffff80000010428c:	48 89 55 f0          	mov    %rdx,-0x10(%rbp)
ffff800000104290:	88 4d f8             	mov    %cl,-0x8(%rbp)
ffff800000104293:	0f b6 55 f8          	movzbl -0x8(%rbp),%edx
ffff800000104297:	8b 4d fc             	mov    -0x4(%rbp),%ecx
ffff80000010429a:	c1 e1 04             	shl    $0x4,%ecx
ffff80000010429d:	89 ce                	mov    %ecx,%esi
ffff80000010429f:	48 b9 70 ff ff ff ff 	movabs $0xffffffffffffff70,%rcx
ffff8000001042a6:	ff ff ff 
ffff8000001042a9:	48 8b 0c 08          	mov    (%rax,%rcx,1),%rcx
ffff8000001042ad:	48 8d 3c 0e          	lea    (%rsi,%rcx,1),%rdi
ffff8000001042b1:	48 8b 4d f0          	mov    -0x10(%rbp),%rcx
ffff8000001042b5:	be 8f 00 00 00       	mov    $0x8f,%esi
ffff8000001042ba:	49 b8 77 6c ff ff ff 	movabs $0xffffffffffff6c77,%r8
ffff8000001042c1:	ff ff ff 
ffff8000001042c4:	4a 8d 04 00          	lea    (%rax,%r8,1),%rax
ffff8000001042c8:	ff d0                	callq  *%rax
ffff8000001042ca:	90                   	nop
ffff8000001042cb:	c9                   	leaveq 
ffff8000001042cc:	c3                   	retq   

ffff8000001042cd <set_system_gate>:
ffff8000001042cd:	55                   	push   %rbp
ffff8000001042ce:	48 89 e5             	mov    %rsp,%rbp
ffff8000001042d1:	48 83 ec 10          	sub    $0x10,%rsp
ffff8000001042d5:	48 8d 05 f9 ff ff ff 	lea    -0x7(%rip),%rax        # ffff8000001042d5 <set_system_gate+0x8>
ffff8000001042dc:	49 bb e3 93 00 00 00 	movabs $0x93e3,%r11
ffff8000001042e3:	00 00 00 
ffff8000001042e6:	4c 01 d8             	add    %r11,%rax
ffff8000001042e9:	89 7d fc             	mov    %edi,-0x4(%rbp)
ffff8000001042ec:	89 f1                	mov    %esi,%ecx
ffff8000001042ee:	48 89 55 f0          	mov    %rdx,-0x10(%rbp)
ffff8000001042f2:	88 4d f8             	mov    %cl,-0x8(%rbp)
ffff8000001042f5:	0f b6 55 f8          	movzbl -0x8(%rbp),%edx
ffff8000001042f9:	8b 4d fc             	mov    -0x4(%rbp),%ecx
ffff8000001042fc:	c1 e1 04             	shl    $0x4,%ecx
ffff8000001042ff:	89 ce                	mov    %ecx,%esi
ffff800000104301:	48 b9 70 ff ff ff ff 	movabs $0xffffffffffffff70,%rcx
ffff800000104308:	ff ff ff 
ffff80000010430b:	48 8b 0c 08          	mov    (%rax,%rcx,1),%rcx
ffff80000010430f:	48 8d 3c 0e          	lea    (%rsi,%rcx,1),%rdi
ffff800000104313:	48 8b 4d f0          	mov    -0x10(%rbp),%rcx
ffff800000104317:	be ef 00 00 00       	mov    $0xef,%esi
ffff80000010431c:	49 b8 77 6c ff ff ff 	movabs $0xffffffffffff6c77,%r8
ffff800000104323:	ff ff ff 
ffff800000104326:	4a 8d 04 00          	lea    (%rax,%r8,1),%rax
ffff80000010432a:	ff d0                	callq  *%rax
ffff80000010432c:	90                   	nop
ffff80000010432d:	c9                   	leaveq 
ffff80000010432e:	c3                   	retq   

ffff80000010432f <set_gate>:
ffff80000010432f:	55                   	push   %rbp
ffff800000104330:	48 89 e5             	mov    %rsp,%rbp
ffff800000104333:	48 8d 05 f9 ff ff ff 	lea    -0x7(%rip),%rax        # ffff800000104333 <set_gate+0x4>
ffff80000010433a:	49 bb 85 93 00 00 00 	movabs $0x9385,%r11
ffff800000104341:	00 00 00 
ffff800000104344:	4c 01 d8             	add    %r11,%rax
ffff800000104347:	48 89 7d f8          	mov    %rdi,-0x8(%rbp)
ffff80000010434b:	89 d0                	mov    %edx,%eax
ffff80000010434d:	48 89 4d e8          	mov    %rcx,-0x18(%rbp)
ffff800000104351:	40 88 75 f4          	mov    %sil,-0xc(%rbp)
ffff800000104355:	88 45 f0             	mov    %al,-0x10(%rbp)
ffff800000104358:	48 8b 45 e8          	mov    -0x18(%rbp),%rax
ffff80000010435c:	89 c2                	mov    %eax,%edx
ffff80000010435e:	48 8b 45 f8          	mov    -0x8(%rbp),%rax
ffff800000104362:	66 89 10             	mov    %dx,(%rax)
ffff800000104365:	48 8b 45 f8          	mov    -0x8(%rbp),%rax
ffff800000104369:	48 83 c0 02          	add    $0x2,%rax
ffff80000010436d:	66 c7 00 08 00       	movw   $0x8,(%rax)
ffff800000104372:	48 8b 45 f8          	mov    -0x8(%rbp),%rax
ffff800000104376:	48 8d 50 04          	lea    0x4(%rax),%rdx
ffff80000010437a:	0f b6 45 f0          	movzbl -0x10(%rbp),%eax
ffff80000010437e:	88 02                	mov    %al,(%rdx)
ffff800000104380:	48 8b 45 f8          	mov    -0x8(%rbp),%rax
ffff800000104384:	48 8d 50 05          	lea    0x5(%rax),%rdx
ffff800000104388:	0f b6 45 f4          	movzbl -0xc(%rbp),%eax
ffff80000010438c:	88 02                	mov    %al,(%rdx)
ffff80000010438e:	48 8b 45 f8          	mov    -0x8(%rbp),%rax
ffff800000104392:	48 83 c0 06          	add    $0x6,%rax
ffff800000104396:	48 8b 55 e8          	mov    -0x18(%rbp),%rdx
ffff80000010439a:	48 c1 ea 10          	shr    $0x10,%rdx
ffff80000010439e:	66 89 10             	mov    %dx,(%rax)
ffff8000001043a1:	48 8b 45 f8          	mov    -0x8(%rbp),%rax
ffff8000001043a5:	48 83 c0 0a          	add    $0xa,%rax
ffff8000001043a9:	48 8b 55 e8          	mov    -0x18(%rbp),%rdx
ffff8000001043ad:	48 c1 ea 30          	shr    $0x30,%rdx
ffff8000001043b1:	89 10                	mov    %edx,(%rax)
ffff8000001043b3:	90                   	nop
ffff8000001043b4:	5d                   	pop    %rbp
ffff8000001043b5:	c3                   	retq   

ffff8000001043b6 <sys_vector_init>:
ffff8000001043b6:	55                   	push   %rbp
ffff8000001043b7:	48 89 e5             	mov    %rsp,%rbp
ffff8000001043ba:	53                   	push   %rbx
ffff8000001043bb:	48 83 ec 08          	sub    $0x8,%rsp
ffff8000001043bf:	48 8d 1d f9 ff ff ff 	lea    -0x7(%rip),%rbx        # ffff8000001043bf <sys_vector_init+0x9>
ffff8000001043c6:	49 bb f9 92 00 00 00 	movabs $0x92f9,%r11
ffff8000001043cd:	00 00 00 
ffff8000001043d0:	4c 01 db             	add    %r11,%rbx
ffff8000001043d3:	48 b8 28 ff ff ff ff 	movabs $0xffffffffffffff28,%rax
ffff8000001043da:	ff ff ff 
ffff8000001043dd:	48 8b 04 03          	mov    (%rbx,%rax,1),%rax
ffff8000001043e1:	48 89 c2             	mov    %rax,%rdx
ffff8000001043e4:	be 01 00 00 00       	mov    $0x1,%esi
ffff8000001043e9:	bf 00 00 00 00       	mov    $0x0,%edi
ffff8000001043ee:	48 b8 b3 6b ff ff ff 	movabs $0xffffffffffff6bb3,%rax
ffff8000001043f5:	ff ff ff 
ffff8000001043f8:	48 8d 04 03          	lea    (%rbx,%rax,1),%rax
ffff8000001043fc:	ff d0                	callq  *%rax
ffff8000001043fe:	48 b8 48 ff ff ff ff 	movabs $0xffffffffffffff48,%rax
ffff800000104405:	ff ff ff 
ffff800000104408:	48 8b 04 03          	mov    (%rbx,%rax,1),%rax
ffff80000010440c:	48 89 c2             	mov    %rax,%rdx
ffff80000010440f:	be 01 00 00 00       	mov    $0x1,%esi
ffff800000104414:	bf 01 00 00 00       	mov    $0x1,%edi
ffff800000104419:	48 b8 b3 6b ff ff ff 	movabs $0xffffffffffff6bb3,%rax
ffff800000104420:	ff ff ff 
ffff800000104423:	48 8d 04 03          	lea    (%rbx,%rax,1),%rax
ffff800000104427:	ff d0                	callq  *%rax
ffff800000104429:	48 b8 e8 ff ff ff ff 	movabs $0xffffffffffffffe8,%rax
ffff800000104430:	ff ff ff 
ffff800000104433:	48 8b 04 03          	mov    (%rbx,%rax,1),%rax
ffff800000104437:	48 89 c2             	mov    %rax,%rdx
ffff80000010443a:	be 01 00 00 00       	mov    $0x1,%esi
ffff80000010443f:	bf 02 00 00 00       	mov    $0x2,%edi
ffff800000104444:	48 b8 51 6b ff ff ff 	movabs $0xffffffffffff6b51,%rax
ffff80000010444b:	ff ff ff 
ffff80000010444e:	48 8d 04 03          	lea    (%rbx,%rax,1),%rax
ffff800000104452:	ff d0                	callq  *%rax
ffff800000104454:	48 b8 f8 ff ff ff ff 	movabs $0xfffffffffffffff8,%rax
ffff80000010445b:	ff ff ff 
ffff80000010445e:	48 8b 04 03          	mov    (%rbx,%rax,1),%rax
ffff800000104462:	48 89 c2             	mov    %rax,%rdx
ffff800000104465:	be 01 00 00 00       	mov    $0x1,%esi
ffff80000010446a:	bf 03 00 00 00       	mov    $0x3,%edi
ffff80000010446f:	48 b8 15 6c ff ff ff 	movabs $0xffffffffffff6c15,%rax
ffff800000104476:	ff ff ff 
ffff800000104479:	48 8d 04 03          	lea    (%rbx,%rax,1),%rax
ffff80000010447d:	ff d0                	callq  *%rax
ffff80000010447f:	48 b8 40 ff ff ff ff 	movabs $0xffffffffffffff40,%rax
ffff800000104486:	ff ff ff 
ffff800000104489:	48 8b 04 03          	mov    (%rbx,%rax,1),%rax
ffff80000010448d:	48 89 c2             	mov    %rax,%rdx
ffff800000104490:	be 01 00 00 00       	mov    $0x1,%esi
ffff800000104495:	bf 04 00 00 00       	mov    $0x4,%edi
ffff80000010449a:	48 b8 15 6c ff ff ff 	movabs $0xffffffffffff6c15,%rax
ffff8000001044a1:	ff ff ff 
ffff8000001044a4:	48 8d 04 03          	lea    (%rbx,%rax,1),%rax
ffff8000001044a8:	ff d0                	callq  *%rax
ffff8000001044aa:	48 b8 50 ff ff ff ff 	movabs $0xffffffffffffff50,%rax
ffff8000001044b1:	ff ff ff 
ffff8000001044b4:	48 8b 04 03          	mov    (%rbx,%rax,1),%rax
ffff8000001044b8:	48 89 c2             	mov    %rax,%rdx
ffff8000001044bb:	be 01 00 00 00       	mov    $0x1,%esi
ffff8000001044c0:	bf 05 00 00 00       	mov    $0x5,%edi
ffff8000001044c5:	48 b8 15 6c ff ff ff 	movabs $0xffffffffffff6c15,%rax
ffff8000001044cc:	ff ff ff 
ffff8000001044cf:	48 8d 04 03          	lea    (%rbx,%rax,1),%rax
ffff8000001044d3:	ff d0                	callq  *%rax
ffff8000001044d5:	48 b8 78 ff ff ff ff 	movabs $0xffffffffffffff78,%rax
ffff8000001044dc:	ff ff ff 
ffff8000001044df:	48 8b 04 03          	mov    (%rbx,%rax,1),%rax
ffff8000001044e3:	48 89 c2             	mov    %rax,%rdx
ffff8000001044e6:	be 01 00 00 00       	mov    $0x1,%esi
ffff8000001044eb:	bf 06 00 00 00       	mov    $0x6,%edi
ffff8000001044f0:	48 b8 b3 6b ff ff ff 	movabs $0xffffffffffff6bb3,%rax
ffff8000001044f7:	ff ff ff 
ffff8000001044fa:	48 8d 04 03          	lea    (%rbx,%rax,1),%rax
ffff8000001044fe:	ff d0                	callq  *%rax
ffff800000104500:	48 b8 f0 ff ff ff ff 	movabs $0xfffffffffffffff0,%rax
ffff800000104507:	ff ff ff 
ffff80000010450a:	48 8b 04 03          	mov    (%rbx,%rax,1),%rax
ffff80000010450e:	48 89 c2             	mov    %rax,%rdx
ffff800000104511:	be 01 00 00 00       	mov    $0x1,%esi
ffff800000104516:	bf 07 00 00 00       	mov    $0x7,%edi
ffff80000010451b:	48 b8 b3 6b ff ff ff 	movabs $0xffffffffffff6bb3,%rax
ffff800000104522:	ff ff ff 
ffff800000104525:	48 8d 04 03          	lea    (%rbx,%rax,1),%rax
ffff800000104529:	ff d0                	callq  *%rax
ffff80000010452b:	48 b8 a0 ff ff ff ff 	movabs $0xffffffffffffffa0,%rax
ffff800000104532:	ff ff ff 
ffff800000104535:	48 8b 04 03          	mov    (%rbx,%rax,1),%rax
ffff800000104539:	48 89 c2             	mov    %rax,%rdx
ffff80000010453c:	be 01 00 00 00       	mov    $0x1,%esi
ffff800000104541:	bf 08 00 00 00       	mov    $0x8,%edi
ffff800000104546:	48 b8 b3 6b ff ff ff 	movabs $0xffffffffffff6bb3,%rax
ffff80000010454d:	ff ff ff 
ffff800000104550:	48 8d 04 03          	lea    (%rbx,%rax,1),%rax
ffff800000104554:	ff d0                	callq  *%rax
ffff800000104556:	48 b8 b8 ff ff ff ff 	movabs $0xffffffffffffffb8,%rax
ffff80000010455d:	ff ff ff 
ffff800000104560:	48 8b 04 03          	mov    (%rbx,%rax,1),%rax
ffff800000104564:	48 89 c2             	mov    %rax,%rdx
ffff800000104567:	be 01 00 00 00       	mov    $0x1,%esi
ffff80000010456c:	bf 09 00 00 00       	mov    $0x9,%edi
ffff800000104571:	48 b8 b3 6b ff ff ff 	movabs $0xffffffffffff6bb3,%rax
ffff800000104578:	ff ff ff 
ffff80000010457b:	48 8d 04 03          	lea    (%rbx,%rax,1),%rax
ffff80000010457f:	ff d0                	callq  *%rax
ffff800000104581:	48 b8 58 ff ff ff ff 	movabs $0xffffffffffffff58,%rax
ffff800000104588:	ff ff ff 
ffff80000010458b:	48 8b 04 03          	mov    (%rbx,%rax,1),%rax
ffff80000010458f:	48 89 c2             	mov    %rax,%rdx
ffff800000104592:	be 01 00 00 00       	mov    $0x1,%esi
ffff800000104597:	bf 0a 00 00 00       	mov    $0xa,%edi
ffff80000010459c:	48 b8 b3 6b ff ff ff 	movabs $0xffffffffffff6bb3,%rax
ffff8000001045a3:	ff ff ff 
ffff8000001045a6:	48 8d 04 03          	lea    (%rbx,%rax,1),%rax
ffff8000001045aa:	ff d0                	callq  *%rax
ffff8000001045ac:	48 b8 60 ff ff ff ff 	movabs $0xffffffffffffff60,%rax
ffff8000001045b3:	ff ff ff 
ffff8000001045b6:	48 8b 04 03          	mov    (%rbx,%rax,1),%rax
ffff8000001045ba:	48 89 c2             	mov    %rax,%rdx
ffff8000001045bd:	be 01 00 00 00       	mov    $0x1,%esi
ffff8000001045c2:	bf 0b 00 00 00       	mov    $0xb,%edi
ffff8000001045c7:	48 b8 b3 6b ff ff ff 	movabs $0xffffffffffff6bb3,%rax
ffff8000001045ce:	ff ff ff 
ffff8000001045d1:	48 8d 04 03          	lea    (%rbx,%rax,1),%rax
ffff8000001045d5:	ff d0                	callq  *%rax
ffff8000001045d7:	48 b8 68 ff ff ff ff 	movabs $0xffffffffffffff68,%rax
ffff8000001045de:	ff ff ff 
ffff8000001045e1:	48 8b 04 03          	mov    (%rbx,%rax,1),%rax
ffff8000001045e5:	48 89 c2             	mov    %rax,%rdx
ffff8000001045e8:	be 01 00 00 00       	mov    $0x1,%esi
ffff8000001045ed:	bf 0c 00 00 00       	mov    $0xc,%edi
ffff8000001045f2:	48 b8 b3 6b ff ff ff 	movabs $0xffffffffffff6bb3,%rax
ffff8000001045f9:	ff ff ff 
ffff8000001045fc:	48 8d 04 03          	lea    (%rbx,%rax,1),%rax
ffff800000104600:	ff d0                	callq  *%rax
ffff800000104602:	48 b8 38 ff ff ff ff 	movabs $0xffffffffffffff38,%rax
ffff800000104609:	ff ff ff 
ffff80000010460c:	48 8b 04 03          	mov    (%rbx,%rax,1),%rax
ffff800000104610:	48 89 c2             	mov    %rax,%rdx
ffff800000104613:	be 01 00 00 00       	mov    $0x1,%esi
ffff800000104618:	bf 0d 00 00 00       	mov    $0xd,%edi
ffff80000010461d:	48 b8 b3 6b ff ff ff 	movabs $0xffffffffffff6bb3,%rax
ffff800000104624:	ff ff ff 
ffff800000104627:	48 8d 04 03          	lea    (%rbx,%rax,1),%rax
ffff80000010462b:	ff d0                	callq  *%rax
ffff80000010462d:	48 b8 c8 ff ff ff ff 	movabs $0xffffffffffffffc8,%rax
ffff800000104634:	ff ff ff 
ffff800000104637:	48 8b 04 03          	mov    (%rbx,%rax,1),%rax
ffff80000010463b:	48 89 c2             	mov    %rax,%rdx
ffff80000010463e:	be 01 00 00 00       	mov    $0x1,%esi
ffff800000104643:	bf 0e 00 00 00       	mov    $0xe,%edi
ffff800000104648:	48 b8 b3 6b ff ff ff 	movabs $0xffffffffffff6bb3,%rax
ffff80000010464f:	ff ff ff 
ffff800000104652:	48 8d 04 03          	lea    (%rbx,%rax,1),%rax
ffff800000104656:	ff d0                	callq  *%rax
ffff800000104658:	48 b8 98 ff ff ff ff 	movabs $0xffffffffffffff98,%rax
ffff80000010465f:	ff ff ff 
ffff800000104662:	48 8b 04 03          	mov    (%rbx,%rax,1),%rax
ffff800000104666:	48 89 c2             	mov    %rax,%rdx
ffff800000104669:	be 01 00 00 00       	mov    $0x1,%esi
ffff80000010466e:	bf 10 00 00 00       	mov    $0x10,%edi
ffff800000104673:	48 b8 b3 6b ff ff ff 	movabs $0xffffffffffff6bb3,%rax
ffff80000010467a:	ff ff ff 
ffff80000010467d:	48 8d 04 03          	lea    (%rbx,%rax,1),%rax
ffff800000104681:	ff d0                	callq  *%rax
ffff800000104683:	48 b8 90 ff ff ff ff 	movabs $0xffffffffffffff90,%rax
ffff80000010468a:	ff ff ff 
ffff80000010468d:	48 8b 04 03          	mov    (%rbx,%rax,1),%rax
ffff800000104691:	48 89 c2             	mov    %rax,%rdx
ffff800000104694:	be 01 00 00 00       	mov    $0x1,%esi
ffff800000104699:	bf 11 00 00 00       	mov    $0x11,%edi
ffff80000010469e:	48 b8 b3 6b ff ff ff 	movabs $0xffffffffffff6bb3,%rax
ffff8000001046a5:	ff ff ff 
ffff8000001046a8:	48 8d 04 03          	lea    (%rbx,%rax,1),%rax
ffff8000001046ac:	ff d0                	callq  *%rax
ffff8000001046ae:	48 b8 d8 ff ff ff ff 	movabs $0xffffffffffffffd8,%rax
ffff8000001046b5:	ff ff ff 
ffff8000001046b8:	48 8b 04 03          	mov    (%rbx,%rax,1),%rax
ffff8000001046bc:	48 89 c2             	mov    %rax,%rdx
ffff8000001046bf:	be 01 00 00 00       	mov    $0x1,%esi
ffff8000001046c4:	bf 12 00 00 00       	mov    $0x12,%edi
ffff8000001046c9:	48 b8 b3 6b ff ff ff 	movabs $0xffffffffffff6bb3,%rax
ffff8000001046d0:	ff ff ff 
ffff8000001046d3:	48 8d 04 03          	lea    (%rbx,%rax,1),%rax
ffff8000001046d7:	ff d0                	callq  *%rax
ffff8000001046d9:	48 b8 e0 ff ff ff ff 	movabs $0xffffffffffffffe0,%rax
ffff8000001046e0:	ff ff ff 
ffff8000001046e3:	48 8b 04 03          	mov    (%rbx,%rax,1),%rax
ffff8000001046e7:	48 89 c2             	mov    %rax,%rdx
ffff8000001046ea:	be 01 00 00 00       	mov    $0x1,%esi
ffff8000001046ef:	bf 13 00 00 00       	mov    $0x13,%edi
ffff8000001046f4:	48 b8 b3 6b ff ff ff 	movabs $0xffffffffffff6bb3,%rax
ffff8000001046fb:	ff ff ff 
ffff8000001046fe:	48 8d 04 03          	lea    (%rbx,%rax,1),%rax
ffff800000104702:	ff d0                	callq  *%rax
ffff800000104704:	48 b8 a8 ff ff ff ff 	movabs $0xffffffffffffffa8,%rax
ffff80000010470b:	ff ff ff 
ffff80000010470e:	48 8b 04 03          	mov    (%rbx,%rax,1),%rax
ffff800000104712:	48 89 c2             	mov    %rax,%rdx
ffff800000104715:	be 01 00 00 00       	mov    $0x1,%esi
ffff80000010471a:	bf 14 00 00 00       	mov    $0x14,%edi
ffff80000010471f:	48 b8 b3 6b ff ff ff 	movabs $0xffffffffffff6bb3,%rax
ffff800000104726:	ff ff ff 
ffff800000104729:	48 8d 04 03          	lea    (%rbx,%rax,1),%rax
ffff80000010472d:	ff d0                	callq  *%rax
ffff80000010472f:	90                   	nop
ffff800000104730:	48 83 c4 08          	add    $0x8,%rsp
ffff800000104734:	5b                   	pop    %rbx
ffff800000104735:	5d                   	pop    %rbp
ffff800000104736:	c3                   	retq   

ffff800000104737 <SolveErrorInt>:
ffff800000104737:	55                   	push   %rbp
ffff800000104738:	48 89 e5             	mov    %rsp,%rbp
ffff80000010473b:	41 57                	push   %r15
ffff80000010473d:	48 83 ec 28          	sub    $0x28,%rsp
ffff800000104741:	48 8d 0d f9 ff ff ff 	lea    -0x7(%rip),%rcx        # ffff800000104741 <SolveErrorInt+0xa>
ffff800000104748:	49 bb 77 8f 00 00 00 	movabs $0x8f77,%r11
ffff80000010474f:	00 00 00 
ffff800000104752:	4c 01 d9             	add    %r11,%rcx
ffff800000104755:	48 89 7d d8          	mov    %rdi,-0x28(%rbp)
ffff800000104759:	48 89 75 d0          	mov    %rsi,-0x30(%rbp)
ffff80000010475d:	48 8b 45 d8          	mov    -0x28(%rbp),%rax
ffff800000104761:	48 05 98 00 00 00    	add    $0x98,%rax
ffff800000104767:	48 89 45 e8          	mov    %rax,-0x18(%rbp)
ffff80000010476b:	48 83 7d d0 00       	cmpq   $0x0,-0x30(%rbp)
ffff800000104770:	75 39                	jne    ffff8000001047ab <SolveErrorInt+0x74>
ffff800000104772:	48 8b 45 e8          	mov    -0x18(%rbp),%rax
ffff800000104776:	48 8b 10             	mov    (%rax),%rdx
ffff800000104779:	48 8b 45 d8          	mov    -0x28(%rbp),%rax
ffff80000010477d:	48 89 c6             	mov    %rax,%rsi
ffff800000104780:	48 b8 20 ca ff ff ff 	movabs $0xffffffffffffca20,%rax
ffff800000104787:	ff ff ff 
ffff80000010478a:	48 8d 3c 01          	lea    (%rcx,%rax,1),%rdi
ffff80000010478e:	49 89 cf             	mov    %rcx,%r15
ffff800000104791:	b8 00 00 00 00       	mov    $0x0,%eax
ffff800000104796:	49 b8 e5 8b ff ff ff 	movabs $0xffffffffffff8be5,%r8
ffff80000010479d:	ff ff ff 
ffff8000001047a0:	49 01 c8             	add    %rcx,%r8
ffff8000001047a3:	41 ff d0             	callq  *%r8
ffff8000001047a6:	e9 ee 04 00 00       	jmpq   ffff800000104c99 <SolveErrorInt+0x562>
ffff8000001047ab:	48 83 7d d0 01       	cmpq   $0x1,-0x30(%rbp)
ffff8000001047b0:	75 39                	jne    ffff8000001047eb <SolveErrorInt+0xb4>
ffff8000001047b2:	48 8b 45 e8          	mov    -0x18(%rbp),%rax
ffff8000001047b6:	48 8b 10             	mov    (%rax),%rdx
ffff8000001047b9:	48 8b 45 d8          	mov    -0x28(%rbp),%rax
ffff8000001047bd:	48 89 c6             	mov    %rax,%rsi
ffff8000001047c0:	48 b8 48 ca ff ff ff 	movabs $0xffffffffffffca48,%rax
ffff8000001047c7:	ff ff ff 
ffff8000001047ca:	48 8d 3c 01          	lea    (%rcx,%rax,1),%rdi
ffff8000001047ce:	49 89 cf             	mov    %rcx,%r15
ffff8000001047d1:	b8 00 00 00 00       	mov    $0x0,%eax
ffff8000001047d6:	49 b8 e5 8b ff ff ff 	movabs $0xffffffffffff8be5,%r8
ffff8000001047dd:	ff ff ff 
ffff8000001047e0:	49 01 c8             	add    %rcx,%r8
ffff8000001047e3:	41 ff d0             	callq  *%r8
ffff8000001047e6:	e9 ae 04 00 00       	jmpq   ffff800000104c99 <SolveErrorInt+0x562>
ffff8000001047eb:	48 83 7d d0 02       	cmpq   $0x2,-0x30(%rbp)
ffff8000001047f0:	75 39                	jne    ffff80000010482b <SolveErrorInt+0xf4>
ffff8000001047f2:	48 8b 45 e8          	mov    -0x18(%rbp),%rax
ffff8000001047f6:	48 8b 10             	mov    (%rax),%rdx
ffff8000001047f9:	48 8b 45 d8          	mov    -0x28(%rbp),%rax
ffff8000001047fd:	48 89 c6             	mov    %rax,%rsi
ffff800000104800:	48 b8 70 ca ff ff ff 	movabs $0xffffffffffffca70,%rax
ffff800000104807:	ff ff ff 
ffff80000010480a:	48 8d 3c 01          	lea    (%rcx,%rax,1),%rdi
ffff80000010480e:	49 89 cf             	mov    %rcx,%r15
ffff800000104811:	b8 00 00 00 00       	mov    $0x0,%eax
ffff800000104816:	49 b8 e5 8b ff ff ff 	movabs $0xffffffffffff8be5,%r8
ffff80000010481d:	ff ff ff 
ffff800000104820:	49 01 c8             	add    %rcx,%r8
ffff800000104823:	41 ff d0             	callq  *%r8
ffff800000104826:	e9 6e 04 00 00       	jmpq   ffff800000104c99 <SolveErrorInt+0x562>
ffff80000010482b:	48 83 7d d0 03       	cmpq   $0x3,-0x30(%rbp)
ffff800000104830:	75 39                	jne    ffff80000010486b <SolveErrorInt+0x134>
ffff800000104832:	48 8b 45 e8          	mov    -0x18(%rbp),%rax
ffff800000104836:	48 8b 10             	mov    (%rax),%rdx
ffff800000104839:	48 8b 45 d8          	mov    -0x28(%rbp),%rax
ffff80000010483d:	48 89 c6             	mov    %rax,%rsi
ffff800000104840:	48 b8 91 ca ff ff ff 	movabs $0xffffffffffffca91,%rax
ffff800000104847:	ff ff ff 
ffff80000010484a:	48 8d 3c 01          	lea    (%rcx,%rax,1),%rdi
ffff80000010484e:	49 89 cf             	mov    %rcx,%r15
ffff800000104851:	b8 00 00 00 00       	mov    $0x0,%eax
ffff800000104856:	49 b8 e5 8b ff ff ff 	movabs $0xffffffffffff8be5,%r8
ffff80000010485d:	ff ff ff 
ffff800000104860:	49 01 c8             	add    %rcx,%r8
ffff800000104863:	41 ff d0             	callq  *%r8
ffff800000104866:	e9 2e 04 00 00       	jmpq   ffff800000104c99 <SolveErrorInt+0x562>
ffff80000010486b:	48 83 7d d0 04       	cmpq   $0x4,-0x30(%rbp)
ffff800000104870:	75 39                	jne    ffff8000001048ab <SolveErrorInt+0x174>
ffff800000104872:	48 8b 45 e8          	mov    -0x18(%rbp),%rax
ffff800000104876:	48 8b 10             	mov    (%rax),%rdx
ffff800000104879:	48 8b 45 d8          	mov    -0x28(%rbp),%rax
ffff80000010487d:	48 89 c6             	mov    %rax,%rsi
ffff800000104880:	48 b8 b0 ca ff ff ff 	movabs $0xffffffffffffcab0,%rax
ffff800000104887:	ff ff ff 
ffff80000010488a:	48 8d 3c 01          	lea    (%rcx,%rax,1),%rdi
ffff80000010488e:	49 89 cf             	mov    %rcx,%r15
ffff800000104891:	b8 00 00 00 00       	mov    $0x0,%eax
ffff800000104896:	49 b8 e5 8b ff ff ff 	movabs $0xffffffffffff8be5,%r8
ffff80000010489d:	ff ff ff 
ffff8000001048a0:	49 01 c8             	add    %rcx,%r8
ffff8000001048a3:	41 ff d0             	callq  *%r8
ffff8000001048a6:	e9 ee 03 00 00       	jmpq   ffff800000104c99 <SolveErrorInt+0x562>
ffff8000001048ab:	48 83 7d d0 05       	cmpq   $0x5,-0x30(%rbp)
ffff8000001048b0:	75 39                	jne    ffff8000001048eb <SolveErrorInt+0x1b4>
ffff8000001048b2:	48 8b 45 e8          	mov    -0x18(%rbp),%rax
ffff8000001048b6:	48 8b 10             	mov    (%rax),%rdx
ffff8000001048b9:	48 8b 45 d8          	mov    -0x28(%rbp),%rax
ffff8000001048bd:	48 89 c6             	mov    %rax,%rsi
ffff8000001048c0:	48 b8 d8 ca ff ff ff 	movabs $0xffffffffffffcad8,%rax
ffff8000001048c7:	ff ff ff 
ffff8000001048ca:	48 8d 3c 01          	lea    (%rcx,%rax,1),%rdi
ffff8000001048ce:	49 89 cf             	mov    %rcx,%r15
ffff8000001048d1:	b8 00 00 00 00       	mov    $0x0,%eax
ffff8000001048d6:	49 b8 e5 8b ff ff ff 	movabs $0xffffffffffff8be5,%r8
ffff8000001048dd:	ff ff ff 
ffff8000001048e0:	49 01 c8             	add    %rcx,%r8
ffff8000001048e3:	41 ff d0             	callq  *%r8
ffff8000001048e6:	e9 ae 03 00 00       	jmpq   ffff800000104c99 <SolveErrorInt+0x562>
ffff8000001048eb:	48 83 7d d0 06       	cmpq   $0x6,-0x30(%rbp)
ffff8000001048f0:	75 39                	jne    ffff80000010492b <SolveErrorInt+0x1f4>
ffff8000001048f2:	48 8b 45 e8          	mov    -0x18(%rbp),%rax
ffff8000001048f6:	48 8b 10             	mov    (%rax),%rdx
ffff8000001048f9:	48 8b 45 d8          	mov    -0x28(%rbp),%rax
ffff8000001048fd:	48 89 c6             	mov    %rax,%rsi
ffff800000104900:	48 b8 00 cb ff ff ff 	movabs $0xffffffffffffcb00,%rax
ffff800000104907:	ff ff ff 
ffff80000010490a:	48 8d 3c 01          	lea    (%rcx,%rax,1),%rdi
ffff80000010490e:	49 89 cf             	mov    %rcx,%r15
ffff800000104911:	b8 00 00 00 00       	mov    $0x0,%eax
ffff800000104916:	49 b8 e5 8b ff ff ff 	movabs $0xffffffffffff8be5,%r8
ffff80000010491d:	ff ff ff 
ffff800000104920:	49 01 c8             	add    %rcx,%r8
ffff800000104923:	41 ff d0             	callq  *%r8
ffff800000104926:	e9 6e 03 00 00       	jmpq   ffff800000104c99 <SolveErrorInt+0x562>
ffff80000010492b:	48 83 7d d0 07       	cmpq   $0x7,-0x30(%rbp)
ffff800000104930:	75 39                	jne    ffff80000010496b <SolveErrorInt+0x234>
ffff800000104932:	48 8b 45 e8          	mov    -0x18(%rbp),%rax
ffff800000104936:	48 8b 10             	mov    (%rax),%rdx
ffff800000104939:	48 8b 45 d8          	mov    -0x28(%rbp),%rax
ffff80000010493d:	48 89 c6             	mov    %rax,%rsi
ffff800000104940:	48 b8 28 cb ff ff ff 	movabs $0xffffffffffffcb28,%rax
ffff800000104947:	ff ff ff 
ffff80000010494a:	48 8d 3c 01          	lea    (%rcx,%rax,1),%rdi
ffff80000010494e:	49 89 cf             	mov    %rcx,%r15
ffff800000104951:	b8 00 00 00 00       	mov    $0x0,%eax
ffff800000104956:	49 b8 e5 8b ff ff ff 	movabs $0xffffffffffff8be5,%r8
ffff80000010495d:	ff ff ff 
ffff800000104960:	49 01 c8             	add    %rcx,%r8
ffff800000104963:	41 ff d0             	callq  *%r8
ffff800000104966:	e9 2e 03 00 00       	jmpq   ffff800000104c99 <SolveErrorInt+0x562>
ffff80000010496b:	48 83 7d d0 08       	cmpq   $0x8,-0x30(%rbp)
ffff800000104970:	75 39                	jne    ffff8000001049ab <SolveErrorInt+0x274>
ffff800000104972:	48 8b 45 e8          	mov    -0x18(%rbp),%rax
ffff800000104976:	48 8b 10             	mov    (%rax),%rdx
ffff800000104979:	48 8b 45 d8          	mov    -0x28(%rbp),%rax
ffff80000010497d:	48 89 c6             	mov    %rax,%rsi
ffff800000104980:	48 b8 50 cb ff ff ff 	movabs $0xffffffffffffcb50,%rax
ffff800000104987:	ff ff ff 
ffff80000010498a:	48 8d 3c 01          	lea    (%rcx,%rax,1),%rdi
ffff80000010498e:	49 89 cf             	mov    %rcx,%r15
ffff800000104991:	b8 00 00 00 00       	mov    $0x0,%eax
ffff800000104996:	49 b8 e5 8b ff ff ff 	movabs $0xffffffffffff8be5,%r8
ffff80000010499d:	ff ff ff 
ffff8000001049a0:	49 01 c8             	add    %rcx,%r8
ffff8000001049a3:	41 ff d0             	callq  *%r8
ffff8000001049a6:	e9 ee 02 00 00       	jmpq   ffff800000104c99 <SolveErrorInt+0x562>
ffff8000001049ab:	48 83 7d d0 09       	cmpq   $0x9,-0x30(%rbp)
ffff8000001049b0:	75 39                	jne    ffff8000001049eb <SolveErrorInt+0x2b4>
ffff8000001049b2:	48 8b 45 e8          	mov    -0x18(%rbp),%rax
ffff8000001049b6:	48 8b 10             	mov    (%rax),%rdx
ffff8000001049b9:	48 8b 45 d8          	mov    -0x28(%rbp),%rax
ffff8000001049bd:	48 89 c6             	mov    %rax,%rsi
ffff8000001049c0:	48 b8 78 cb ff ff ff 	movabs $0xffffffffffffcb78,%rax
ffff8000001049c7:	ff ff ff 
ffff8000001049ca:	48 8d 3c 01          	lea    (%rcx,%rax,1),%rdi
ffff8000001049ce:	49 89 cf             	mov    %rcx,%r15
ffff8000001049d1:	b8 00 00 00 00       	mov    $0x0,%eax
ffff8000001049d6:	49 b8 e5 8b ff ff ff 	movabs $0xffffffffffff8be5,%r8
ffff8000001049dd:	ff ff ff 
ffff8000001049e0:	49 01 c8             	add    %rcx,%r8
ffff8000001049e3:	41 ff d0             	callq  *%r8
ffff8000001049e6:	e9 ae 02 00 00       	jmpq   ffff800000104c99 <SolveErrorInt+0x562>
ffff8000001049eb:	48 83 7d d0 0a       	cmpq   $0xa,-0x30(%rbp)
ffff8000001049f0:	75 39                	jne    ffff800000104a2b <SolveErrorInt+0x2f4>
ffff8000001049f2:	48 8b 45 e8          	mov    -0x18(%rbp),%rax
ffff8000001049f6:	48 8b 10             	mov    (%rax),%rdx
ffff8000001049f9:	48 8b 45 d8          	mov    -0x28(%rbp),%rax
ffff8000001049fd:	48 89 c6             	mov    %rax,%rsi
ffff800000104a00:	48 b8 a0 cb ff ff ff 	movabs $0xffffffffffffcba0,%rax
ffff800000104a07:	ff ff ff 
ffff800000104a0a:	48 8d 3c 01          	lea    (%rcx,%rax,1),%rdi
ffff800000104a0e:	49 89 cf             	mov    %rcx,%r15
ffff800000104a11:	b8 00 00 00 00       	mov    $0x0,%eax
ffff800000104a16:	49 b8 e5 8b ff ff ff 	movabs $0xffffffffffff8be5,%r8
ffff800000104a1d:	ff ff ff 
ffff800000104a20:	49 01 c8             	add    %rcx,%r8
ffff800000104a23:	41 ff d0             	callq  *%r8
ffff800000104a26:	e9 6e 02 00 00       	jmpq   ffff800000104c99 <SolveErrorInt+0x562>
ffff800000104a2b:	48 83 7d d0 0b       	cmpq   $0xb,-0x30(%rbp)
ffff800000104a30:	75 39                	jne    ffff800000104a6b <SolveErrorInt+0x334>
ffff800000104a32:	48 8b 45 e8          	mov    -0x18(%rbp),%rax
ffff800000104a36:	48 8b 10             	mov    (%rax),%rdx
ffff800000104a39:	48 8b 45 d8          	mov    -0x28(%rbp),%rax
ffff800000104a3d:	48 89 c6             	mov    %rax,%rsi
ffff800000104a40:	48 b8 c8 cb ff ff ff 	movabs $0xffffffffffffcbc8,%rax
ffff800000104a47:	ff ff ff 
ffff800000104a4a:	48 8d 3c 01          	lea    (%rcx,%rax,1),%rdi
ffff800000104a4e:	49 89 cf             	mov    %rcx,%r15
ffff800000104a51:	b8 00 00 00 00       	mov    $0x0,%eax
ffff800000104a56:	49 b8 e5 8b ff ff ff 	movabs $0xffffffffffff8be5,%r8
ffff800000104a5d:	ff ff ff 
ffff800000104a60:	49 01 c8             	add    %rcx,%r8
ffff800000104a63:	41 ff d0             	callq  *%r8
ffff800000104a66:	e9 2e 02 00 00       	jmpq   ffff800000104c99 <SolveErrorInt+0x562>
ffff800000104a6b:	48 83 7d d0 0c       	cmpq   $0xc,-0x30(%rbp)
ffff800000104a70:	75 39                	jne    ffff800000104aab <SolveErrorInt+0x374>
ffff800000104a72:	48 8b 45 e8          	mov    -0x18(%rbp),%rax
ffff800000104a76:	48 8b 10             	mov    (%rax),%rdx
ffff800000104a79:	48 8b 45 d8          	mov    -0x28(%rbp),%rax
ffff800000104a7d:	48 89 c6             	mov    %rax,%rsi
ffff800000104a80:	48 b8 f0 cb ff ff ff 	movabs $0xffffffffffffcbf0,%rax
ffff800000104a87:	ff ff ff 
ffff800000104a8a:	48 8d 3c 01          	lea    (%rcx,%rax,1),%rdi
ffff800000104a8e:	49 89 cf             	mov    %rcx,%r15
ffff800000104a91:	b8 00 00 00 00       	mov    $0x0,%eax
ffff800000104a96:	49 b8 e5 8b ff ff ff 	movabs $0xffffffffffff8be5,%r8
ffff800000104a9d:	ff ff ff 
ffff800000104aa0:	49 01 c8             	add    %rcx,%r8
ffff800000104aa3:	41 ff d0             	callq  *%r8
ffff800000104aa6:	e9 ee 01 00 00       	jmpq   ffff800000104c99 <SolveErrorInt+0x562>
ffff800000104aab:	48 83 7d d0 0d       	cmpq   $0xd,-0x30(%rbp)
ffff800000104ab0:	75 39                	jne    ffff800000104aeb <SolveErrorInt+0x3b4>
ffff800000104ab2:	48 8b 45 e8          	mov    -0x18(%rbp),%rax
ffff800000104ab6:	48 8b 10             	mov    (%rax),%rdx
ffff800000104ab9:	48 8b 45 d8          	mov    -0x28(%rbp),%rax
ffff800000104abd:	48 89 c6             	mov    %rax,%rsi
ffff800000104ac0:	48 b8 18 cc ff ff ff 	movabs $0xffffffffffffcc18,%rax
ffff800000104ac7:	ff ff ff 
ffff800000104aca:	48 8d 3c 01          	lea    (%rcx,%rax,1),%rdi
ffff800000104ace:	49 89 cf             	mov    %rcx,%r15
ffff800000104ad1:	b8 00 00 00 00       	mov    $0x0,%eax
ffff800000104ad6:	49 b8 e5 8b ff ff ff 	movabs $0xffffffffffff8be5,%r8
ffff800000104add:	ff ff ff 
ffff800000104ae0:	49 01 c8             	add    %rcx,%r8
ffff800000104ae3:	41 ff d0             	callq  *%r8
ffff800000104ae6:	e9 ae 01 00 00       	jmpq   ffff800000104c99 <SolveErrorInt+0x562>
ffff800000104aeb:	48 83 7d d0 0e       	cmpq   $0xe,-0x30(%rbp)
ffff800000104af0:	75 39                	jne    ffff800000104b2b <SolveErrorInt+0x3f4>
ffff800000104af2:	48 8b 45 e8          	mov    -0x18(%rbp),%rax
ffff800000104af6:	48 8b 10             	mov    (%rax),%rdx
ffff800000104af9:	48 8b 45 d8          	mov    -0x28(%rbp),%rax
ffff800000104afd:	48 89 c6             	mov    %rax,%rsi
ffff800000104b00:	48 b8 48 cc ff ff ff 	movabs $0xffffffffffffcc48,%rax
ffff800000104b07:	ff ff ff 
ffff800000104b0a:	48 8d 3c 01          	lea    (%rcx,%rax,1),%rdi
ffff800000104b0e:	49 89 cf             	mov    %rcx,%r15
ffff800000104b11:	b8 00 00 00 00       	mov    $0x0,%eax
ffff800000104b16:	49 b8 e5 8b ff ff ff 	movabs $0xffffffffffff8be5,%r8
ffff800000104b1d:	ff ff ff 
ffff800000104b20:	49 01 c8             	add    %rcx,%r8
ffff800000104b23:	41 ff d0             	callq  *%r8
ffff800000104b26:	e9 6e 01 00 00       	jmpq   ffff800000104c99 <SolveErrorInt+0x562>
ffff800000104b2b:	48 83 7d d0 10       	cmpq   $0x10,-0x30(%rbp)
ffff800000104b30:	75 39                	jne    ffff800000104b6b <SolveErrorInt+0x434>
ffff800000104b32:	48 8b 45 e8          	mov    -0x18(%rbp),%rax
ffff800000104b36:	48 8b 10             	mov    (%rax),%rdx
ffff800000104b39:	48 8b 45 d8          	mov    -0x28(%rbp),%rax
ffff800000104b3d:	48 89 c6             	mov    %rax,%rsi
ffff800000104b40:	48 b8 70 cc ff ff ff 	movabs $0xffffffffffffcc70,%rax
ffff800000104b47:	ff ff ff 
ffff800000104b4a:	48 8d 3c 01          	lea    (%rcx,%rax,1),%rdi
ffff800000104b4e:	49 89 cf             	mov    %rcx,%r15
ffff800000104b51:	b8 00 00 00 00       	mov    $0x0,%eax
ffff800000104b56:	49 b8 e5 8b ff ff ff 	movabs $0xffffffffffff8be5,%r8
ffff800000104b5d:	ff ff ff 
ffff800000104b60:	49 01 c8             	add    %rcx,%r8
ffff800000104b63:	41 ff d0             	callq  *%r8
ffff800000104b66:	e9 2e 01 00 00       	jmpq   ffff800000104c99 <SolveErrorInt+0x562>
ffff800000104b6b:	48 83 7d d0 11       	cmpq   $0x11,-0x30(%rbp)
ffff800000104b70:	75 39                	jne    ffff800000104bab <SolveErrorInt+0x474>
ffff800000104b72:	48 8b 45 e8          	mov    -0x18(%rbp),%rax
ffff800000104b76:	48 8b 10             	mov    (%rax),%rdx
ffff800000104b79:	48 8b 45 d8          	mov    -0x28(%rbp),%rax
ffff800000104b7d:	48 89 c6             	mov    %rax,%rsi
ffff800000104b80:	48 b8 a8 cc ff ff ff 	movabs $0xffffffffffffcca8,%rax
ffff800000104b87:	ff ff ff 
ffff800000104b8a:	48 8d 3c 01          	lea    (%rcx,%rax,1),%rdi
ffff800000104b8e:	49 89 cf             	mov    %rcx,%r15
ffff800000104b91:	b8 00 00 00 00       	mov    $0x0,%eax
ffff800000104b96:	49 b8 e5 8b ff ff ff 	movabs $0xffffffffffff8be5,%r8
ffff800000104b9d:	ff ff ff 
ffff800000104ba0:	49 01 c8             	add    %rcx,%r8
ffff800000104ba3:	41 ff d0             	callq  *%r8
ffff800000104ba6:	e9 ee 00 00 00       	jmpq   ffff800000104c99 <SolveErrorInt+0x562>
ffff800000104bab:	48 83 7d d0 12       	cmpq   $0x12,-0x30(%rbp)
ffff800000104bb0:	75 39                	jne    ffff800000104beb <SolveErrorInt+0x4b4>
ffff800000104bb2:	48 8b 45 e8          	mov    -0x18(%rbp),%rax
ffff800000104bb6:	48 8b 10             	mov    (%rax),%rdx
ffff800000104bb9:	48 8b 45 d8          	mov    -0x28(%rbp),%rax
ffff800000104bbd:	48 89 c6             	mov    %rax,%rsi
ffff800000104bc0:	48 b8 d8 cc ff ff ff 	movabs $0xffffffffffffccd8,%rax
ffff800000104bc7:	ff ff ff 
ffff800000104bca:	48 8d 3c 01          	lea    (%rcx,%rax,1),%rdi
ffff800000104bce:	49 89 cf             	mov    %rcx,%r15
ffff800000104bd1:	b8 00 00 00 00       	mov    $0x0,%eax
ffff800000104bd6:	49 b8 e5 8b ff ff ff 	movabs $0xffffffffffff8be5,%r8
ffff800000104bdd:	ff ff ff 
ffff800000104be0:	49 01 c8             	add    %rcx,%r8
ffff800000104be3:	41 ff d0             	callq  *%r8
ffff800000104be6:	e9 ae 00 00 00       	jmpq   ffff800000104c99 <SolveErrorInt+0x562>
ffff800000104beb:	48 83 7d d0 13       	cmpq   $0x13,-0x30(%rbp)
ffff800000104bf0:	75 36                	jne    ffff800000104c28 <SolveErrorInt+0x4f1>
ffff800000104bf2:	48 8b 45 e8          	mov    -0x18(%rbp),%rax
ffff800000104bf6:	48 8b 10             	mov    (%rax),%rdx
ffff800000104bf9:	48 8b 45 d8          	mov    -0x28(%rbp),%rax
ffff800000104bfd:	48 89 c6             	mov    %rax,%rsi
ffff800000104c00:	48 b8 00 cd ff ff ff 	movabs $0xffffffffffffcd00,%rax
ffff800000104c07:	ff ff ff 
ffff800000104c0a:	48 8d 3c 01          	lea    (%rcx,%rax,1),%rdi
ffff800000104c0e:	49 89 cf             	mov    %rcx,%r15
ffff800000104c11:	b8 00 00 00 00       	mov    $0x0,%eax
ffff800000104c16:	49 b8 e5 8b ff ff ff 	movabs $0xffffffffffff8be5,%r8
ffff800000104c1d:	ff ff ff 
ffff800000104c20:	49 01 c8             	add    %rcx,%r8
ffff800000104c23:	41 ff d0             	callq  *%r8
ffff800000104c26:	eb 71                	jmp    ffff800000104c99 <SolveErrorInt+0x562>
ffff800000104c28:	48 83 7d d0 14       	cmpq   $0x14,-0x30(%rbp)
ffff800000104c2d:	75 36                	jne    ffff800000104c65 <SolveErrorInt+0x52e>
ffff800000104c2f:	48 8b 45 e8          	mov    -0x18(%rbp),%rax
ffff800000104c33:	48 8b 10             	mov    (%rax),%rdx
ffff800000104c36:	48 8b 45 d8          	mov    -0x28(%rbp),%rax
ffff800000104c3a:	48 89 c6             	mov    %rax,%rsi
ffff800000104c3d:	48 b8 28 cd ff ff ff 	movabs $0xffffffffffffcd28,%rax
ffff800000104c44:	ff ff ff 
ffff800000104c47:	48 8d 3c 01          	lea    (%rcx,%rax,1),%rdi
ffff800000104c4b:	49 89 cf             	mov    %rcx,%r15
ffff800000104c4e:	b8 00 00 00 00       	mov    $0x0,%eax
ffff800000104c53:	49 b8 e5 8b ff ff ff 	movabs $0xffffffffffff8be5,%r8
ffff800000104c5a:	ff ff ff 
ffff800000104c5d:	49 01 c8             	add    %rcx,%r8
ffff800000104c60:	41 ff d0             	callq  *%r8
ffff800000104c63:	eb 34                	jmp    ffff800000104c99 <SolveErrorInt+0x562>
ffff800000104c65:	48 8b 45 e8          	mov    -0x18(%rbp),%rax
ffff800000104c69:	48 8b 10             	mov    (%rax),%rdx
ffff800000104c6c:	48 8b 45 d8          	mov    -0x28(%rbp),%rax
ffff800000104c70:	48 89 c6             	mov    %rax,%rsi
ffff800000104c73:	48 b8 60 cd ff ff ff 	movabs $0xffffffffffffcd60,%rax
ffff800000104c7a:	ff ff ff 
ffff800000104c7d:	48 8d 3c 01          	lea    (%rcx,%rax,1),%rdi
ffff800000104c81:	49 89 cf             	mov    %rcx,%r15
ffff800000104c84:	b8 00 00 00 00       	mov    $0x0,%eax
ffff800000104c89:	49 b8 e5 8b ff ff ff 	movabs $0xffffffffffff8be5,%r8
ffff800000104c90:	ff ff ff 
ffff800000104c93:	49 01 c8             	add    %rcx,%r8
ffff800000104c96:	41 ff d0             	callq  *%r8
ffff800000104c99:	eb fe                	jmp    ffff800000104c99 <SolveErrorInt+0x562>

ffff800000104c9b <set_tss64>:
ffff800000104c9b:	55                   	push   %rbp
ffff800000104c9c:	48 89 e5             	mov    %rsp,%rbp
ffff800000104c9f:	4c 8d 15 f9 ff ff ff 	lea    -0x7(%rip),%r10        # ffff800000104c9f <set_tss64+0x4>
ffff800000104ca6:	49 bb 19 8a 00 00 00 	movabs $0x8a19,%r11
ffff800000104cad:	00 00 00 
ffff800000104cb0:	4d 01 da             	add    %r11,%r10
ffff800000104cb3:	48 89 7d f8          	mov    %rdi,-0x8(%rbp)
ffff800000104cb7:	48 89 75 f0          	mov    %rsi,-0x10(%rbp)
ffff800000104cbb:	48 89 55 e8          	mov    %rdx,-0x18(%rbp)
ffff800000104cbf:	48 89 4d e0          	mov    %rcx,-0x20(%rbp)
ffff800000104cc3:	4c 89 45 d8          	mov    %r8,-0x28(%rbp)
ffff800000104cc7:	4c 89 4d d0          	mov    %r9,-0x30(%rbp)
ffff800000104ccb:	b8 40 00 00 00       	mov    $0x40,%eax
ffff800000104cd0:	0f 00 d8             	ltr    %ax
ffff800000104cd3:	48 b8 80 ff ff ff ff 	movabs $0xffffffffffffff80,%rax
ffff800000104cda:	ff ff ff 
ffff800000104cdd:	49 8b 04 02          	mov    (%r10,%rax,1),%rax
ffff800000104ce1:	48 8d 40 04          	lea    0x4(%rax),%rax
ffff800000104ce5:	48 8b 55 f8          	mov    -0x8(%rbp),%rdx
ffff800000104ce9:	48 89 10             	mov    %rdx,(%rax)
ffff800000104cec:	48 b8 80 ff ff ff ff 	movabs $0xffffffffffffff80,%rax
ffff800000104cf3:	ff ff ff 
ffff800000104cf6:	49 8b 04 02          	mov    (%r10,%rax,1),%rax
ffff800000104cfa:	48 8d 40 0c          	lea    0xc(%rax),%rax
ffff800000104cfe:	48 8b 55 f0          	mov    -0x10(%rbp),%rdx
ffff800000104d02:	48 89 10             	mov    %rdx,(%rax)
ffff800000104d05:	48 b8 80 ff ff ff ff 	movabs $0xffffffffffffff80,%rax
ffff800000104d0c:	ff ff ff 
ffff800000104d0f:	49 8b 04 02          	mov    (%r10,%rax,1),%rax
ffff800000104d13:	48 8d 40 14          	lea    0x14(%rax),%rax
ffff800000104d17:	48 8b 55 e8          	mov    -0x18(%rbp),%rdx
ffff800000104d1b:	48 89 10             	mov    %rdx,(%rax)
ffff800000104d1e:	48 b8 80 ff ff ff ff 	movabs $0xffffffffffffff80,%rax
ffff800000104d25:	ff ff ff 
ffff800000104d28:	49 8b 04 02          	mov    (%r10,%rax,1),%rax
ffff800000104d2c:	48 8d 40 24          	lea    0x24(%rax),%rax
ffff800000104d30:	48 8b 55 e0          	mov    -0x20(%rbp),%rdx
ffff800000104d34:	48 89 10             	mov    %rdx,(%rax)
ffff800000104d37:	48 b8 80 ff ff ff ff 	movabs $0xffffffffffffff80,%rax
ffff800000104d3e:	ff ff ff 
ffff800000104d41:	49 8b 04 02          	mov    (%r10,%rax,1),%rax
ffff800000104d45:	48 8d 40 2c          	lea    0x2c(%rax),%rax
ffff800000104d49:	48 8b 55 d8          	mov    -0x28(%rbp),%rdx
ffff800000104d4d:	48 89 10             	mov    %rdx,(%rax)
ffff800000104d50:	48 b8 80 ff ff ff ff 	movabs $0xffffffffffffff80,%rax
ffff800000104d57:	ff ff ff 
ffff800000104d5a:	49 8b 04 02          	mov    (%r10,%rax,1),%rax
ffff800000104d5e:	48 8d 40 34          	lea    0x34(%rax),%rax
ffff800000104d62:	48 8b 55 d0          	mov    -0x30(%rbp),%rdx
ffff800000104d66:	48 89 10             	mov    %rdx,(%rax)
ffff800000104d69:	48 b8 80 ff ff ff ff 	movabs $0xffffffffffffff80,%rax
ffff800000104d70:	ff ff ff 
ffff800000104d73:	49 8b 04 02          	mov    (%r10,%rax,1),%rax
ffff800000104d77:	48 8d 40 3c          	lea    0x3c(%rax),%rax
ffff800000104d7b:	48 8b 55 10          	mov    0x10(%rbp),%rdx
ffff800000104d7f:	48 89 10             	mov    %rdx,(%rax)
ffff800000104d82:	48 b8 80 ff ff ff ff 	movabs $0xffffffffffffff80,%rax
ffff800000104d89:	ff ff ff 
ffff800000104d8c:	49 8b 04 02          	mov    (%r10,%rax,1),%rax
ffff800000104d90:	48 8d 40 44          	lea    0x44(%rax),%rax
ffff800000104d94:	48 8b 55 18          	mov    0x18(%rbp),%rdx
ffff800000104d98:	48 89 10             	mov    %rdx,(%rax)
ffff800000104d9b:	48 b8 80 ff ff ff ff 	movabs $0xffffffffffffff80,%rax
ffff800000104da2:	ff ff ff 
ffff800000104da5:	49 8b 04 02          	mov    (%r10,%rax,1),%rax
ffff800000104da9:	48 8d 40 4c          	lea    0x4c(%rax),%rax
ffff800000104dad:	48 8b 55 20          	mov    0x20(%rbp),%rdx
ffff800000104db1:	48 89 10             	mov    %rdx,(%rax)
ffff800000104db4:	48 b8 80 ff ff ff ff 	movabs $0xffffffffffffff80,%rax
ffff800000104dbb:	ff ff ff 
ffff800000104dbe:	49 8b 04 02          	mov    (%r10,%rax,1),%rax
ffff800000104dc2:	48 8d 40 54          	lea    0x54(%rax),%rax
ffff800000104dc6:	48 8b 55 28          	mov    0x28(%rbp),%rdx
ffff800000104dca:	48 89 10             	mov    %rdx,(%rax)
ffff800000104dcd:	90                   	nop
ffff800000104dce:	5d                   	pop    %rbp
ffff800000104dcf:	c3                   	retq   

ffff800000104dd0 <do_invalid_TSS>:
ffff800000104dd0:	55                   	push   %rbp
ffff800000104dd1:	48 89 e5             	mov    %rsp,%rbp
ffff800000104dd4:	41 57                	push   %r15
ffff800000104dd6:	53                   	push   %rbx
ffff800000104dd7:	48 83 ec 20          	sub    $0x20,%rsp
ffff800000104ddb:	48 8d 1d f9 ff ff ff 	lea    -0x7(%rip),%rbx        # ffff800000104ddb <do_invalid_TSS+0xb>
ffff800000104de2:	49 bb dd 88 00 00 00 	movabs $0x88dd,%r11
ffff800000104de9:	00 00 00 
ffff800000104dec:	4c 01 db             	add    %r11,%rbx
ffff800000104def:	48 89 7d d8          	mov    %rdi,-0x28(%rbp)
ffff800000104df3:	48 89 75 d0          	mov    %rsi,-0x30(%rbp)
ffff800000104df7:	48 8b 45 d8          	mov    -0x28(%rbp),%rax
ffff800000104dfb:	48 05 98 00 00 00    	add    $0x98,%rax
ffff800000104e01:	48 89 45 e8          	mov    %rax,-0x18(%rbp)
ffff800000104e05:	48 8b 45 e8          	mov    -0x18(%rbp),%rax
ffff800000104e09:	48 8b 08             	mov    (%rax),%rcx
ffff800000104e0c:	48 8b 55 d8          	mov    -0x28(%rbp),%rdx
ffff800000104e10:	48 8b 45 d0          	mov    -0x30(%rbp),%rax
ffff800000104e14:	49 89 c9             	mov    %rcx,%r9
ffff800000104e17:	49 89 d0             	mov    %rdx,%r8
ffff800000104e1a:	48 89 c1             	mov    %rax,%rcx
ffff800000104e1d:	48 b8 80 cd ff ff ff 	movabs $0xffffffffffffcd80,%rax
ffff800000104e24:	ff ff ff 
ffff800000104e27:	48 8d 14 03          	lea    (%rbx,%rax,1),%rdx
ffff800000104e2b:	be 00 00 ff 00       	mov    $0xff0000,%esi
ffff800000104e30:	bf 00 00 00 00       	mov    $0x0,%edi
ffff800000104e35:	49 89 df             	mov    %rbx,%r15
ffff800000104e38:	b8 00 00 00 00       	mov    $0x0,%eax
ffff800000104e3d:	49 ba 11 83 ff ff ff 	movabs $0xffffffffffff8311,%r10
ffff800000104e44:	ff ff ff 
ffff800000104e47:	49 01 da             	add    %rbx,%r10
ffff800000104e4a:	41 ff d2             	callq  *%r10
ffff800000104e4d:	48 8b 45 d0          	mov    -0x30(%rbp),%rax
ffff800000104e51:	83 e0 01             	and    $0x1,%eax
ffff800000104e54:	48 85 c0             	test   %rax,%rax
ffff800000104e57:	74 2f                	je     ffff800000104e88 <do_invalid_TSS+0xb8>
ffff800000104e59:	48 b8 b0 cd ff ff ff 	movabs $0xffffffffffffcdb0,%rax
ffff800000104e60:	ff ff ff 
ffff800000104e63:	48 8d 14 03          	lea    (%rbx,%rax,1),%rdx
ffff800000104e67:	be 00 00 ff 00       	mov    $0xff0000,%esi
ffff800000104e6c:	bf 00 00 00 00       	mov    $0x0,%edi
ffff800000104e71:	49 89 df             	mov    %rbx,%r15
ffff800000104e74:	b8 00 00 00 00       	mov    $0x0,%eax
ffff800000104e79:	48 b9 11 83 ff ff ff 	movabs $0xffffffffffff8311,%rcx
ffff800000104e80:	ff ff ff 
ffff800000104e83:	48 01 d9             	add    %rbx,%rcx
ffff800000104e86:	ff d1                	callq  *%rcx
ffff800000104e88:	48 8b 45 d0          	mov    -0x30(%rbp),%rax
ffff800000104e8c:	83 e0 02             	and    $0x2,%eax
ffff800000104e8f:	48 85 c0             	test   %rax,%rax
ffff800000104e92:	74 31                	je     ffff800000104ec5 <do_invalid_TSS+0xf5>
ffff800000104e94:	48 b8 30 ce ff ff ff 	movabs $0xffffffffffffce30,%rax
ffff800000104e9b:	ff ff ff 
ffff800000104e9e:	48 8d 14 03          	lea    (%rbx,%rax,1),%rdx
ffff800000104ea2:	be 00 00 ff 00       	mov    $0xff0000,%esi
ffff800000104ea7:	bf 00 00 00 00       	mov    $0x0,%edi
ffff800000104eac:	49 89 df             	mov    %rbx,%r15
ffff800000104eaf:	b8 00 00 00 00       	mov    $0x0,%eax
ffff800000104eb4:	48 b9 11 83 ff ff ff 	movabs $0xffffffffffff8311,%rcx
ffff800000104ebb:	ff ff ff 
ffff800000104ebe:	48 01 d9             	add    %rbx,%rcx
ffff800000104ec1:	ff d1                	callq  *%rcx
ffff800000104ec3:	eb 2f                	jmp    ffff800000104ef4 <do_invalid_TSS+0x124>
ffff800000104ec5:	48 b8 60 ce ff ff ff 	movabs $0xffffffffffffce60,%rax
ffff800000104ecc:	ff ff ff 
ffff800000104ecf:	48 8d 14 03          	lea    (%rbx,%rax,1),%rdx
ffff800000104ed3:	be 00 00 ff 00       	mov    $0xff0000,%esi
ffff800000104ed8:	bf 00 00 00 00       	mov    $0x0,%edi
ffff800000104edd:	49 89 df             	mov    %rbx,%r15
ffff800000104ee0:	b8 00 00 00 00       	mov    $0x0,%eax
ffff800000104ee5:	48 b9 11 83 ff ff ff 	movabs $0xffffffffffff8311,%rcx
ffff800000104eec:	ff ff ff 
ffff800000104eef:	48 01 d9             	add    %rbx,%rcx
ffff800000104ef2:	ff d1                	callq  *%rcx
ffff800000104ef4:	48 8b 45 d0          	mov    -0x30(%rbp),%rax
ffff800000104ef8:	83 e0 02             	and    $0x2,%eax
ffff800000104efb:	48 85 c0             	test   %rax,%rax
ffff800000104efe:	75 6c                	jne    ffff800000104f6c <do_invalid_TSS+0x19c>
ffff800000104f00:	48 8b 45 d0          	mov    -0x30(%rbp),%rax
ffff800000104f04:	83 e0 04             	and    $0x4,%eax
ffff800000104f07:	48 85 c0             	test   %rax,%rax
ffff800000104f0a:	74 31                	je     ffff800000104f3d <do_invalid_TSS+0x16d>
ffff800000104f0c:	48 b8 98 ce ff ff ff 	movabs $0xffffffffffffce98,%rax
ffff800000104f13:	ff ff ff 
ffff800000104f16:	48 8d 14 03          	lea    (%rbx,%rax,1),%rdx
ffff800000104f1a:	be 00 00 ff 00       	mov    $0xff0000,%esi
ffff800000104f1f:	bf 00 00 00 00       	mov    $0x0,%edi
ffff800000104f24:	49 89 df             	mov    %rbx,%r15
ffff800000104f27:	b8 00 00 00 00       	mov    $0x0,%eax
ffff800000104f2c:	48 b9 11 83 ff ff ff 	movabs $0xffffffffffff8311,%rcx
ffff800000104f33:	ff ff ff 
ffff800000104f36:	48 01 d9             	add    %rbx,%rcx
ffff800000104f39:	ff d1                	callq  *%rcx
ffff800000104f3b:	eb 2f                	jmp    ffff800000104f6c <do_invalid_TSS+0x19c>
ffff800000104f3d:	48 b8 d0 ce ff ff ff 	movabs $0xffffffffffffced0,%rax
ffff800000104f44:	ff ff ff 
ffff800000104f47:	48 8d 14 03          	lea    (%rbx,%rax,1),%rdx
ffff800000104f4b:	be 00 00 ff 00       	mov    $0xff0000,%esi
ffff800000104f50:	bf 00 00 00 00       	mov    $0x0,%edi
ffff800000104f55:	49 89 df             	mov    %rbx,%r15
ffff800000104f58:	b8 00 00 00 00       	mov    $0x0,%eax
ffff800000104f5d:	48 b9 11 83 ff ff ff 	movabs $0xffffffffffff8311,%rcx
ffff800000104f64:	ff ff ff 
ffff800000104f67:	48 01 d9             	add    %rbx,%rcx
ffff800000104f6a:	ff d1                	callq  *%rcx
ffff800000104f6c:	48 8b 45 d0          	mov    -0x30(%rbp),%rax
ffff800000104f70:	25 f8 ff 00 00       	and    $0xfff8,%eax
ffff800000104f75:	48 89 c1             	mov    %rax,%rcx
ffff800000104f78:	48 b8 00 cf ff ff ff 	movabs $0xffffffffffffcf00,%rax
ffff800000104f7f:	ff ff ff 
ffff800000104f82:	48 8d 14 03          	lea    (%rbx,%rax,1),%rdx
ffff800000104f86:	be 00 00 ff 00       	mov    $0xff0000,%esi
ffff800000104f8b:	bf 00 00 00 00       	mov    $0x0,%edi
ffff800000104f90:	49 89 df             	mov    %rbx,%r15
ffff800000104f93:	b8 00 00 00 00       	mov    $0x0,%eax
ffff800000104f98:	49 b8 11 83 ff ff ff 	movabs $0xffffffffffff8311,%r8
ffff800000104f9f:	ff ff ff 
ffff800000104fa2:	49 01 d8             	add    %rbx,%r8
ffff800000104fa5:	41 ff d0             	callq  *%r8
ffff800000104fa8:	eb fe                	jmp    ffff800000104fa8 <do_invalid_TSS+0x1d8>

ffff800000104faa <do_page_fault>:
ffff800000104faa:	55                   	push   %rbp
ffff800000104fab:	48 89 e5             	mov    %rsp,%rbp
ffff800000104fae:	41 57                	push   %r15
ffff800000104fb0:	53                   	push   %rbx
ffff800000104fb1:	48 83 ec 20          	sub    $0x20,%rsp
ffff800000104fb5:	48 8d 1d f9 ff ff ff 	lea    -0x7(%rip),%rbx        # ffff800000104fb5 <do_page_fault+0xb>
ffff800000104fbc:	49 bb 03 87 00 00 00 	movabs $0x8703,%r11
ffff800000104fc3:	00 00 00 
ffff800000104fc6:	4c 01 db             	add    %r11,%rbx
ffff800000104fc9:	48 89 7d d8          	mov    %rdi,-0x28(%rbp)
ffff800000104fcd:	48 89 75 d0          	mov    %rsi,-0x30(%rbp)
ffff800000104fd1:	48 c7 45 e8 00 00 00 	movq   $0x0,-0x18(%rbp)
ffff800000104fd8:	00 
ffff800000104fd9:	48 c7 45 e0 00 00 00 	movq   $0x0,-0x20(%rbp)
ffff800000104fe0:	00 
ffff800000104fe1:	0f 20 d0             	mov    %cr2,%rax
ffff800000104fe4:	48 89 45 e0          	mov    %rax,-0x20(%rbp)
ffff800000104fe8:	48 8b 45 d8          	mov    -0x28(%rbp),%rax
ffff800000104fec:	48 05 98 00 00 00    	add    $0x98,%rax
ffff800000104ff2:	48 89 45 e8          	mov    %rax,-0x18(%rbp)
ffff800000104ff6:	48 8b 45 e8          	mov    -0x18(%rbp),%rax
ffff800000104ffa:	48 8b 08             	mov    (%rax),%rcx
ffff800000104ffd:	48 8b 55 d8          	mov    -0x28(%rbp),%rdx
ffff800000105001:	48 8b 45 d0          	mov    -0x30(%rbp),%rax
ffff800000105005:	49 89 c9             	mov    %rcx,%r9
ffff800000105008:	49 89 d0             	mov    %rdx,%r8
ffff80000010500b:	48 89 c1             	mov    %rax,%rcx
ffff80000010500e:	48 b8 20 cf ff ff ff 	movabs $0xffffffffffffcf20,%rax
ffff800000105015:	ff ff ff 
ffff800000105018:	48 8d 14 03          	lea    (%rbx,%rax,1),%rdx
ffff80000010501c:	be 00 00 ff 00       	mov    $0xff0000,%esi
ffff800000105021:	bf 00 00 00 00       	mov    $0x0,%edi
ffff800000105026:	49 89 df             	mov    %rbx,%r15
ffff800000105029:	b8 00 00 00 00       	mov    $0x0,%eax
ffff80000010502e:	49 ba 11 83 ff ff ff 	movabs $0xffffffffffff8311,%r10
ffff800000105035:	ff ff ff 
ffff800000105038:	49 01 da             	add    %rbx,%r10
ffff80000010503b:	41 ff d2             	callq  *%r10
ffff80000010503e:	48 8b 45 d0          	mov    -0x30(%rbp),%rax
ffff800000105042:	83 e0 01             	and    $0x1,%eax
ffff800000105045:	48 85 c0             	test   %rax,%rax
ffff800000105048:	75 2f                	jne    ffff800000105079 <do_page_fault+0xcf>
ffff80000010504a:	48 b8 52 cf ff ff ff 	movabs $0xffffffffffffcf52,%rax
ffff800000105051:	ff ff ff 
ffff800000105054:	48 8d 14 03          	lea    (%rbx,%rax,1),%rdx
ffff800000105058:	be 00 00 ff 00       	mov    $0xff0000,%esi
ffff80000010505d:	bf 00 00 00 00       	mov    $0x0,%edi
ffff800000105062:	49 89 df             	mov    %rbx,%r15
ffff800000105065:	b8 00 00 00 00       	mov    $0x0,%eax
ffff80000010506a:	48 b9 11 83 ff ff ff 	movabs $0xffffffffffff8311,%rcx
ffff800000105071:	ff ff ff 
ffff800000105074:	48 01 d9             	add    %rbx,%rcx
ffff800000105077:	ff d1                	callq  *%rcx
ffff800000105079:	48 8b 45 d0          	mov    -0x30(%rbp),%rax
ffff80000010507d:	83 e0 02             	and    $0x2,%eax
ffff800000105080:	48 85 c0             	test   %rax,%rax
ffff800000105083:	74 31                	je     ffff8000001050b6 <do_page_fault+0x10c>
ffff800000105085:	48 b8 65 cf ff ff ff 	movabs $0xffffffffffffcf65,%rax
ffff80000010508c:	ff ff ff 
ffff80000010508f:	48 8d 14 03          	lea    (%rbx,%rax,1),%rdx
ffff800000105093:	be 00 00 ff 00       	mov    $0xff0000,%esi
ffff800000105098:	bf 00 00 00 00       	mov    $0x0,%edi
ffff80000010509d:	49 89 df             	mov    %rbx,%r15
ffff8000001050a0:	b8 00 00 00 00       	mov    $0x0,%eax
ffff8000001050a5:	48 b9 11 83 ff ff ff 	movabs $0xffffffffffff8311,%rcx
ffff8000001050ac:	ff ff ff 
ffff8000001050af:	48 01 d9             	add    %rbx,%rcx
ffff8000001050b2:	ff d1                	callq  *%rcx
ffff8000001050b4:	eb 2f                	jmp    ffff8000001050e5 <do_page_fault+0x13b>
ffff8000001050b6:	48 b8 79 cf ff ff ff 	movabs $0xffffffffffffcf79,%rax
ffff8000001050bd:	ff ff ff 
ffff8000001050c0:	48 8d 14 03          	lea    (%rbx,%rax,1),%rdx
ffff8000001050c4:	be 00 00 ff 00       	mov    $0xff0000,%esi
ffff8000001050c9:	bf 00 00 00 00       	mov    $0x0,%edi
ffff8000001050ce:	49 89 df             	mov    %rbx,%r15
ffff8000001050d1:	b8 00 00 00 00       	mov    $0x0,%eax
ffff8000001050d6:	48 b9 11 83 ff ff ff 	movabs $0xffffffffffff8311,%rcx
ffff8000001050dd:	ff ff ff 
ffff8000001050e0:	48 01 d9             	add    %rbx,%rcx
ffff8000001050e3:	ff d1                	callq  *%rcx
ffff8000001050e5:	48 8b 45 d0          	mov    -0x30(%rbp),%rax
ffff8000001050e9:	83 e0 04             	and    $0x4,%eax
ffff8000001050ec:	48 85 c0             	test   %rax,%rax
ffff8000001050ef:	74 31                	je     ffff800000105122 <do_page_fault+0x178>
ffff8000001050f1:	48 b8 8c cf ff ff ff 	movabs $0xffffffffffffcf8c,%rax
ffff8000001050f8:	ff ff ff 
ffff8000001050fb:	48 8d 14 03          	lea    (%rbx,%rax,1),%rdx
ffff8000001050ff:	be 00 00 ff 00       	mov    $0xff0000,%esi
ffff800000105104:	bf 00 00 00 00       	mov    $0x0,%edi
ffff800000105109:	49 89 df             	mov    %rbx,%r15
ffff80000010510c:	b8 00 00 00 00       	mov    $0x0,%eax
ffff800000105111:	48 b9 11 83 ff ff ff 	movabs $0xffffffffffff8311,%rcx
ffff800000105118:	ff ff ff 
ffff80000010511b:	48 01 d9             	add    %rbx,%rcx
ffff80000010511e:	ff d1                	callq  *%rcx
ffff800000105120:	eb 2f                	jmp    ffff800000105151 <do_page_fault+0x1a7>
ffff800000105122:	48 b8 9e cf ff ff ff 	movabs $0xffffffffffffcf9e,%rax
ffff800000105129:	ff ff ff 
ffff80000010512c:	48 8d 14 03          	lea    (%rbx,%rax,1),%rdx
ffff800000105130:	be 00 00 ff 00       	mov    $0xff0000,%esi
ffff800000105135:	bf 00 00 00 00       	mov    $0x0,%edi
ffff80000010513a:	49 89 df             	mov    %rbx,%r15
ffff80000010513d:	b8 00 00 00 00       	mov    $0x0,%eax
ffff800000105142:	48 b9 11 83 ff ff ff 	movabs $0xffffffffffff8311,%rcx
ffff800000105149:	ff ff ff 
ffff80000010514c:	48 01 d9             	add    %rbx,%rcx
ffff80000010514f:	ff d1                	callq  *%rcx
ffff800000105151:	48 8b 45 d0          	mov    -0x30(%rbp),%rax
ffff800000105155:	83 e0 08             	and    $0x8,%eax
ffff800000105158:	48 85 c0             	test   %rax,%rax
ffff80000010515b:	74 2f                	je     ffff80000010518c <do_page_fault+0x1e2>
ffff80000010515d:	48 b8 ba cf ff ff ff 	movabs $0xffffffffffffcfba,%rax
ffff800000105164:	ff ff ff 
ffff800000105167:	48 8d 14 03          	lea    (%rbx,%rax,1),%rdx
ffff80000010516b:	be 00 00 ff 00       	mov    $0xff0000,%esi
ffff800000105170:	bf 00 00 00 00       	mov    $0x0,%edi
ffff800000105175:	49 89 df             	mov    %rbx,%r15
ffff800000105178:	b8 00 00 00 00       	mov    $0x0,%eax
ffff80000010517d:	48 b9 11 83 ff ff ff 	movabs $0xffffffffffff8311,%rcx
ffff800000105184:	ff ff ff 
ffff800000105187:	48 01 d9             	add    %rbx,%rcx
ffff80000010518a:	ff d1                	callq  *%rcx
ffff80000010518c:	48 8b 45 d0          	mov    -0x30(%rbp),%rax
ffff800000105190:	83 e0 10             	and    $0x10,%eax
ffff800000105193:	48 85 c0             	test   %rax,%rax
ffff800000105196:	74 2f                	je     ffff8000001051c7 <do_page_fault+0x21d>
ffff800000105198:	48 b8 d8 cf ff ff ff 	movabs $0xffffffffffffcfd8,%rax
ffff80000010519f:	ff ff ff 
ffff8000001051a2:	48 8d 14 03          	lea    (%rbx,%rax,1),%rdx
ffff8000001051a6:	be 00 00 ff 00       	mov    $0xff0000,%esi
ffff8000001051ab:	bf 00 00 00 00       	mov    $0x0,%edi
ffff8000001051b0:	49 89 df             	mov    %rbx,%r15
ffff8000001051b3:	b8 00 00 00 00       	mov    $0x0,%eax
ffff8000001051b8:	48 b9 11 83 ff ff ff 	movabs $0xffffffffffff8311,%rcx
ffff8000001051bf:	ff ff ff 
ffff8000001051c2:	48 01 d9             	add    %rbx,%rcx
ffff8000001051c5:	ff d1                	callq  *%rcx
ffff8000001051c7:	48 b8 f7 cf ff ff ff 	movabs $0xffffffffffffcff7,%rax
ffff8000001051ce:	ff ff ff 
ffff8000001051d1:	48 8d 14 03          	lea    (%rbx,%rax,1),%rdx
ffff8000001051d5:	be 00 00 ff 00       	mov    $0xff0000,%esi
ffff8000001051da:	bf 00 00 00 00       	mov    $0x0,%edi
ffff8000001051df:	49 89 df             	mov    %rbx,%r15
ffff8000001051e2:	b8 00 00 00 00       	mov    $0x0,%eax
ffff8000001051e7:	48 b9 11 83 ff ff ff 	movabs $0xffffffffffff8311,%rcx
ffff8000001051ee:	ff ff ff 
ffff8000001051f1:	48 01 d9             	add    %rbx,%rcx
ffff8000001051f4:	ff d1                	callq  *%rcx
ffff8000001051f6:	48 8b 45 e0          	mov    -0x20(%rbp),%rax
ffff8000001051fa:	48 89 c1             	mov    %rax,%rcx
ffff8000001051fd:	48 b8 f9 cf ff ff ff 	movabs $0xffffffffffffcff9,%rax
ffff800000105204:	ff ff ff 
ffff800000105207:	48 8d 14 03          	lea    (%rbx,%rax,1),%rdx
ffff80000010520b:	be 00 00 ff 00       	mov    $0xff0000,%esi
ffff800000105210:	bf 00 00 00 00       	mov    $0x0,%edi
ffff800000105215:	49 89 df             	mov    %rbx,%r15
ffff800000105218:	b8 00 00 00 00       	mov    $0x0,%eax
ffff80000010521d:	49 b8 11 83 ff ff ff 	movabs $0xffffffffffff8311,%r8
ffff800000105224:	ff ff ff 
ffff800000105227:	49 01 d8             	add    %rbx,%r8
ffff80000010522a:	41 ff d0             	callq  *%r8
ffff80000010522d:	eb fe                	jmp    ffff80000010522d <do_page_fault+0x283>

ffff80000010522f <do_nmi>:
ffff80000010522f:	55                   	push   %rbp
ffff800000105230:	48 89 e5             	mov    %rsp,%rbp
ffff800000105233:	41 57                	push   %r15
ffff800000105235:	48 83 ec 28          	sub    $0x28,%rsp
ffff800000105239:	4c 8d 15 f9 ff ff ff 	lea    -0x7(%rip),%r10        # ffff800000105239 <do_nmi+0xa>
ffff800000105240:	49 bb 7f 84 00 00 00 	movabs $0x847f,%r11
ffff800000105247:	00 00 00 
ffff80000010524a:	4d 01 da             	add    %r11,%r10
ffff80000010524d:	48 89 7d d8          	mov    %rdi,-0x28(%rbp)
ffff800000105251:	48 89 75 d0          	mov    %rsi,-0x30(%rbp)
ffff800000105255:	48 c7 45 e8 00 00 00 	movq   $0x0,-0x18(%rbp)
ffff80000010525c:	00 
ffff80000010525d:	48 8b 45 d8          	mov    -0x28(%rbp),%rax
ffff800000105261:	48 05 98 00 00 00    	add    $0x98,%rax
ffff800000105267:	48 89 45 e8          	mov    %rax,-0x18(%rbp)
ffff80000010526b:	48 8b 45 e8          	mov    -0x18(%rbp),%rax
ffff80000010526f:	48 8b 08             	mov    (%rax),%rcx
ffff800000105272:	48 8b 55 d8          	mov    -0x28(%rbp),%rdx
ffff800000105276:	48 8b 45 d0          	mov    -0x30(%rbp),%rax
ffff80000010527a:	49 89 c9             	mov    %rcx,%r9
ffff80000010527d:	49 89 d0             	mov    %rdx,%r8
ffff800000105280:	48 89 c1             	mov    %rax,%rcx
ffff800000105283:	48 b8 08 d0 ff ff ff 	movabs $0xffffffffffffd008,%rax
ffff80000010528a:	ff ff ff 
ffff80000010528d:	49 8d 14 02          	lea    (%r10,%rax,1),%rdx
ffff800000105291:	be 00 00 ff 00       	mov    $0xff0000,%esi
ffff800000105296:	bf 00 00 00 00       	mov    $0x0,%edi
ffff80000010529b:	4d 89 d7             	mov    %r10,%r15
ffff80000010529e:	b8 00 00 00 00       	mov    $0x0,%eax
ffff8000001052a3:	49 bb 11 83 ff ff ff 	movabs $0xffffffffffff8311,%r11
ffff8000001052aa:	ff ff ff 
ffff8000001052ad:	4d 01 d3             	add    %r10,%r11
ffff8000001052b0:	41 ff d3             	callq  *%r11
ffff8000001052b3:	eb fe                	jmp    ffff8000001052b3 <do_nmi+0x84>

ffff8000001052b5 <do_double_fault>:
ffff8000001052b5:	55                   	push   %rbp
ffff8000001052b6:	48 89 e5             	mov    %rsp,%rbp
ffff8000001052b9:	41 57                	push   %r15
ffff8000001052bb:	48 83 ec 28          	sub    $0x28,%rsp
ffff8000001052bf:	4c 8d 15 f9 ff ff ff 	lea    -0x7(%rip),%r10        # ffff8000001052bf <do_double_fault+0xa>
ffff8000001052c6:	49 bb f9 83 00 00 00 	movabs $0x83f9,%r11
ffff8000001052cd:	00 00 00 
ffff8000001052d0:	4d 01 da             	add    %r11,%r10
ffff8000001052d3:	48 89 7d d8          	mov    %rdi,-0x28(%rbp)
ffff8000001052d7:	48 89 75 d0          	mov    %rsi,-0x30(%rbp)
ffff8000001052db:	48 c7 45 e8 00 00 00 	movq   $0x0,-0x18(%rbp)
ffff8000001052e2:	00 
ffff8000001052e3:	48 8b 45 d8          	mov    -0x28(%rbp),%rax
ffff8000001052e7:	48 05 98 00 00 00    	add    $0x98,%rax
ffff8000001052ed:	48 89 45 e8          	mov    %rax,-0x18(%rbp)
ffff8000001052f1:	48 8b 45 e8          	mov    -0x18(%rbp),%rax
ffff8000001052f5:	48 8b 08             	mov    (%rax),%rcx
ffff8000001052f8:	48 8b 55 d8          	mov    -0x28(%rbp),%rdx
ffff8000001052fc:	48 8b 45 d0          	mov    -0x30(%rbp),%rax
ffff800000105300:	49 89 c9             	mov    %rcx,%r9
ffff800000105303:	49 89 d0             	mov    %rdx,%r8
ffff800000105306:	48 89 c1             	mov    %rax,%rcx
ffff800000105309:	48 b8 30 d0 ff ff ff 	movabs $0xffffffffffffd030,%rax
ffff800000105310:	ff ff ff 
ffff800000105313:	49 8d 14 02          	lea    (%r10,%rax,1),%rdx
ffff800000105317:	be 00 00 ff 00       	mov    $0xff0000,%esi
ffff80000010531c:	bf 00 00 00 00       	mov    $0x0,%edi
ffff800000105321:	4d 89 d7             	mov    %r10,%r15
ffff800000105324:	b8 00 00 00 00       	mov    $0x0,%eax
ffff800000105329:	49 bb 11 83 ff ff ff 	movabs $0xffffffffffff8311,%r11
ffff800000105330:	ff ff ff 
ffff800000105333:	4d 01 d3             	add    %r10,%r11
ffff800000105336:	41 ff d3             	callq  *%r11
ffff800000105339:	eb fe                	jmp    ffff800000105339 <do_double_fault+0x84>

ffff80000010533b <do_coprocessor_segment_overrun>:
ffff80000010533b:	55                   	push   %rbp
ffff80000010533c:	48 89 e5             	mov    %rsp,%rbp
ffff80000010533f:	41 57                	push   %r15
ffff800000105341:	48 83 ec 28          	sub    $0x28,%rsp
ffff800000105345:	4c 8d 15 f9 ff ff ff 	lea    -0x7(%rip),%r10        # ffff800000105345 <do_coprocessor_segment_overrun+0xa>
ffff80000010534c:	49 bb 73 83 00 00 00 	movabs $0x8373,%r11
ffff800000105353:	00 00 00 
ffff800000105356:	4d 01 da             	add    %r11,%r10
ffff800000105359:	48 89 7d d8          	mov    %rdi,-0x28(%rbp)
ffff80000010535d:	48 89 75 d0          	mov    %rsi,-0x30(%rbp)
ffff800000105361:	48 c7 45 e8 00 00 00 	movq   $0x0,-0x18(%rbp)
ffff800000105368:	00 
ffff800000105369:	48 8b 45 d8          	mov    -0x28(%rbp),%rax
ffff80000010536d:	48 05 98 00 00 00    	add    $0x98,%rax
ffff800000105373:	48 89 45 e8          	mov    %rax,-0x18(%rbp)
ffff800000105377:	48 8b 45 e8          	mov    -0x18(%rbp),%rax
ffff80000010537b:	48 8b 08             	mov    (%rax),%rcx
ffff80000010537e:	48 8b 55 d8          	mov    -0x28(%rbp),%rdx
ffff800000105382:	48 8b 45 d0          	mov    -0x30(%rbp),%rax
ffff800000105386:	49 89 c9             	mov    %rcx,%r9
ffff800000105389:	49 89 d0             	mov    %rdx,%r8
ffff80000010538c:	48 89 c1             	mov    %rax,%rcx
ffff80000010538f:	48 b8 70 d0 ff ff ff 	movabs $0xffffffffffffd070,%rax
ffff800000105396:	ff ff ff 
ffff800000105399:	49 8d 14 02          	lea    (%r10,%rax,1),%rdx
ffff80000010539d:	be 00 00 ff 00       	mov    $0xff0000,%esi
ffff8000001053a2:	bf 00 00 00 00       	mov    $0x0,%edi
ffff8000001053a7:	4d 89 d7             	mov    %r10,%r15
ffff8000001053aa:	b8 00 00 00 00       	mov    $0x0,%eax
ffff8000001053af:	49 bb 11 83 ff ff ff 	movabs $0xffffffffffff8311,%r11
ffff8000001053b6:	ff ff ff 
ffff8000001053b9:	4d 01 d3             	add    %r10,%r11
ffff8000001053bc:	41 ff d3             	callq  *%r11
ffff8000001053bf:	eb fe                	jmp    ffff8000001053bf <do_coprocessor_segment_overrun+0x84>

ffff8000001053c1 <do_segment_not_present>:
ffff8000001053c1:	55                   	push   %rbp
ffff8000001053c2:	48 89 e5             	mov    %rsp,%rbp
ffff8000001053c5:	41 57                	push   %r15
ffff8000001053c7:	53                   	push   %rbx
ffff8000001053c8:	48 83 ec 20          	sub    $0x20,%rsp
ffff8000001053cc:	48 8d 1d f9 ff ff ff 	lea    -0x7(%rip),%rbx        # ffff8000001053cc <do_segment_not_present+0xb>
ffff8000001053d3:	49 bb ec 82 00 00 00 	movabs $0x82ec,%r11
ffff8000001053da:	00 00 00 
ffff8000001053dd:	4c 01 db             	add    %r11,%rbx
ffff8000001053e0:	48 89 7d d8          	mov    %rdi,-0x28(%rbp)
ffff8000001053e4:	48 89 75 d0          	mov    %rsi,-0x30(%rbp)
ffff8000001053e8:	48 c7 45 e8 00 00 00 	movq   $0x0,-0x18(%rbp)
ffff8000001053ef:	00 
ffff8000001053f0:	48 8b 45 d8          	mov    -0x28(%rbp),%rax
ffff8000001053f4:	48 05 98 00 00 00    	add    $0x98,%rax
ffff8000001053fa:	48 89 45 e8          	mov    %rax,-0x18(%rbp)
ffff8000001053fe:	48 8b 45 e8          	mov    -0x18(%rbp),%rax
ffff800000105402:	48 8b 08             	mov    (%rax),%rcx
ffff800000105405:	48 8b 55 d8          	mov    -0x28(%rbp),%rdx
ffff800000105409:	48 8b 45 d0          	mov    -0x30(%rbp),%rax
ffff80000010540d:	49 89 c9             	mov    %rcx,%r9
ffff800000105410:	49 89 d0             	mov    %rdx,%r8
ffff800000105413:	48 89 c1             	mov    %rax,%rcx
ffff800000105416:	48 b8 c0 d0 ff ff ff 	movabs $0xffffffffffffd0c0,%rax
ffff80000010541d:	ff ff ff 
ffff800000105420:	48 8d 14 03          	lea    (%rbx,%rax,1),%rdx
ffff800000105424:	be 00 00 ff 00       	mov    $0xff0000,%esi
ffff800000105429:	bf 00 00 00 00       	mov    $0x0,%edi
ffff80000010542e:	49 89 df             	mov    %rbx,%r15
ffff800000105431:	b8 00 00 00 00       	mov    $0x0,%eax
ffff800000105436:	49 ba 11 83 ff ff ff 	movabs $0xffffffffffff8311,%r10
ffff80000010543d:	ff ff ff 
ffff800000105440:	49 01 da             	add    %rbx,%r10
ffff800000105443:	41 ff d2             	callq  *%r10
ffff800000105446:	48 8b 45 d0          	mov    -0x30(%rbp),%rax
ffff80000010544a:	83 e0 01             	and    $0x1,%eax
ffff80000010544d:	48 85 c0             	test   %rax,%rax
ffff800000105450:	74 2f                	je     ffff800000105481 <do_segment_not_present+0xc0>
ffff800000105452:	48 b8 08 d1 ff ff ff 	movabs $0xffffffffffffd108,%rax
ffff800000105459:	ff ff ff 
ffff80000010545c:	48 8d 14 03          	lea    (%rbx,%rax,1),%rdx
ffff800000105460:	be 00 00 ff 00       	mov    $0xff0000,%esi
ffff800000105465:	bf 00 00 00 00       	mov    $0x0,%edi
ffff80000010546a:	49 89 df             	mov    %rbx,%r15
ffff80000010546d:	b8 00 00 00 00       	mov    $0x0,%eax
ffff800000105472:	48 b9 11 83 ff ff ff 	movabs $0xffffffffffff8311,%rcx
ffff800000105479:	ff ff ff 
ffff80000010547c:	48 01 d9             	add    %rbx,%rcx
ffff80000010547f:	ff d1                	callq  *%rcx
ffff800000105481:	48 8b 45 d0          	mov    -0x30(%rbp),%rax
ffff800000105485:	83 e0 02             	and    $0x2,%eax
ffff800000105488:	48 85 c0             	test   %rax,%rax
ffff80000010548b:	74 31                	je     ffff8000001054be <do_segment_not_present+0xfd>
ffff80000010548d:	48 b8 30 ce ff ff ff 	movabs $0xffffffffffffce30,%rax
ffff800000105494:	ff ff ff 
ffff800000105497:	48 8d 14 03          	lea    (%rbx,%rax,1),%rdx
ffff80000010549b:	be 00 00 ff 00       	mov    $0xff0000,%esi
ffff8000001054a0:	bf 00 00 00 00       	mov    $0x0,%edi
ffff8000001054a5:	49 89 df             	mov    %rbx,%r15
ffff8000001054a8:	b8 00 00 00 00       	mov    $0x0,%eax
ffff8000001054ad:	48 b9 11 83 ff ff ff 	movabs $0xffffffffffff8311,%rcx
ffff8000001054b4:	ff ff ff 
ffff8000001054b7:	48 01 d9             	add    %rbx,%rcx
ffff8000001054ba:	ff d1                	callq  *%rcx
ffff8000001054bc:	eb 2f                	jmp    ffff8000001054ed <do_segment_not_present+0x12c>
ffff8000001054be:	48 b8 60 ce ff ff ff 	movabs $0xffffffffffffce60,%rax
ffff8000001054c5:	ff ff ff 
ffff8000001054c8:	48 8d 14 03          	lea    (%rbx,%rax,1),%rdx
ffff8000001054cc:	be 00 00 ff 00       	mov    $0xff0000,%esi
ffff8000001054d1:	bf 00 00 00 00       	mov    $0x0,%edi
ffff8000001054d6:	49 89 df             	mov    %rbx,%r15
ffff8000001054d9:	b8 00 00 00 00       	mov    $0x0,%eax
ffff8000001054de:	48 b9 11 83 ff ff ff 	movabs $0xffffffffffff8311,%rcx
ffff8000001054e5:	ff ff ff 
ffff8000001054e8:	48 01 d9             	add    %rbx,%rcx
ffff8000001054eb:	ff d1                	callq  *%rcx
ffff8000001054ed:	48 8b 45 d0          	mov    -0x30(%rbp),%rax
ffff8000001054f1:	83 e0 02             	and    $0x2,%eax
ffff8000001054f4:	48 85 c0             	test   %rax,%rax
ffff8000001054f7:	75 6c                	jne    ffff800000105565 <do_segment_not_present+0x1a4>
ffff8000001054f9:	48 8b 45 d0          	mov    -0x30(%rbp),%rax
ffff8000001054fd:	83 e0 04             	and    $0x4,%eax
ffff800000105500:	48 85 c0             	test   %rax,%rax
ffff800000105503:	74 31                	je     ffff800000105536 <do_segment_not_present+0x175>
ffff800000105505:	48 b8 98 ce ff ff ff 	movabs $0xffffffffffffce98,%rax
ffff80000010550c:	ff ff ff 
ffff80000010550f:	48 8d 14 03          	lea    (%rbx,%rax,1),%rdx
ffff800000105513:	be 00 00 ff 00       	mov    $0xff0000,%esi
ffff800000105518:	bf 00 00 00 00       	mov    $0x0,%edi
ffff80000010551d:	49 89 df             	mov    %rbx,%r15
ffff800000105520:	b8 00 00 00 00       	mov    $0x0,%eax
ffff800000105525:	48 b9 11 83 ff ff ff 	movabs $0xffffffffffff8311,%rcx
ffff80000010552c:	ff ff ff 
ffff80000010552f:	48 01 d9             	add    %rbx,%rcx
ffff800000105532:	ff d1                	callq  *%rcx
ffff800000105534:	eb 2f                	jmp    ffff800000105565 <do_segment_not_present+0x1a4>
ffff800000105536:	48 b8 d0 ce ff ff ff 	movabs $0xffffffffffffced0,%rax
ffff80000010553d:	ff ff ff 
ffff800000105540:	48 8d 14 03          	lea    (%rbx,%rax,1),%rdx
ffff800000105544:	be 00 00 ff 00       	mov    $0xff0000,%esi
ffff800000105549:	bf 00 00 00 00       	mov    $0x0,%edi
ffff80000010554e:	49 89 df             	mov    %rbx,%r15
ffff800000105551:	b8 00 00 00 00       	mov    $0x0,%eax
ffff800000105556:	48 b9 11 83 ff ff ff 	movabs $0xffffffffffff8311,%rcx
ffff80000010555d:	ff ff ff 
ffff800000105560:	48 01 d9             	add    %rbx,%rcx
ffff800000105563:	ff d1                	callq  *%rcx
ffff800000105565:	48 8b 45 d0          	mov    -0x30(%rbp),%rax
ffff800000105569:	25 f8 ff 00 00       	and    $0xfff8,%eax
ffff80000010556e:	48 89 c1             	mov    %rax,%rcx
ffff800000105571:	48 b8 00 cf ff ff ff 	movabs $0xffffffffffffcf00,%rax
ffff800000105578:	ff ff ff 
ffff80000010557b:	48 8d 14 03          	lea    (%rbx,%rax,1),%rdx
ffff80000010557f:	be 00 00 ff 00       	mov    $0xff0000,%esi
ffff800000105584:	bf 00 00 00 00       	mov    $0x0,%edi
ffff800000105589:	49 89 df             	mov    %rbx,%r15
ffff80000010558c:	b8 00 00 00 00       	mov    $0x0,%eax
ffff800000105591:	49 b8 11 83 ff ff ff 	movabs $0xffffffffffff8311,%r8
ffff800000105598:	ff ff ff 
ffff80000010559b:	49 01 d8             	add    %rbx,%r8
ffff80000010559e:	41 ff d0             	callq  *%r8
ffff8000001055a1:	eb fe                	jmp    ffff8000001055a1 <do_segment_not_present+0x1e0>

ffff8000001055a3 <do_general_protection>:
ffff8000001055a3:	55                   	push   %rbp
ffff8000001055a4:	48 89 e5             	mov    %rsp,%rbp
ffff8000001055a7:	41 57                	push   %r15
ffff8000001055a9:	53                   	push   %rbx
ffff8000001055aa:	48 83 ec 20          	sub    $0x20,%rsp
ffff8000001055ae:	48 8d 1d f9 ff ff ff 	lea    -0x7(%rip),%rbx        # ffff8000001055ae <do_general_protection+0xb>
ffff8000001055b5:	49 bb 0a 81 00 00 00 	movabs $0x810a,%r11
ffff8000001055bc:	00 00 00 
ffff8000001055bf:	4c 01 db             	add    %r11,%rbx
ffff8000001055c2:	48 89 7d d8          	mov    %rdi,-0x28(%rbp)
ffff8000001055c6:	48 89 75 d0          	mov    %rsi,-0x30(%rbp)
ffff8000001055ca:	48 c7 45 e8 00 00 00 	movq   $0x0,-0x18(%rbp)
ffff8000001055d1:	00 
ffff8000001055d2:	48 8b 45 d8          	mov    -0x28(%rbp),%rax
ffff8000001055d6:	48 05 98 00 00 00    	add    $0x98,%rax
ffff8000001055dc:	48 89 45 e8          	mov    %rax,-0x18(%rbp)
ffff8000001055e0:	48 8b 45 e8          	mov    -0x18(%rbp),%rax
ffff8000001055e4:	48 8b 08             	mov    (%rax),%rcx
ffff8000001055e7:	48 8b 55 d8          	mov    -0x28(%rbp),%rdx
ffff8000001055eb:	48 8b 45 d0          	mov    -0x30(%rbp),%rax
ffff8000001055ef:	49 89 c9             	mov    %rcx,%r9
ffff8000001055f2:	49 89 d0             	mov    %rdx,%r8
ffff8000001055f5:	48 89 c1             	mov    %rax,%rcx
ffff8000001055f8:	48 b8 88 d1 ff ff ff 	movabs $0xffffffffffffd188,%rax
ffff8000001055ff:	ff ff ff 
ffff800000105602:	48 8d 14 03          	lea    (%rbx,%rax,1),%rdx
ffff800000105606:	be 00 00 ff 00       	mov    $0xff0000,%esi
ffff80000010560b:	bf 00 00 00 00       	mov    $0x0,%edi
ffff800000105610:	49 89 df             	mov    %rbx,%r15
ffff800000105613:	b8 00 00 00 00       	mov    $0x0,%eax
ffff800000105618:	49 ba 11 83 ff ff ff 	movabs $0xffffffffffff8311,%r10
ffff80000010561f:	ff ff ff 
ffff800000105622:	49 01 da             	add    %rbx,%r10
ffff800000105625:	41 ff d2             	callq  *%r10
ffff800000105628:	48 8b 45 d0          	mov    -0x30(%rbp),%rax
ffff80000010562c:	83 e0 01             	and    $0x1,%eax
ffff80000010562f:	48 85 c0             	test   %rax,%rax
ffff800000105632:	74 2f                	je     ffff800000105663 <do_general_protection+0xc0>
ffff800000105634:	48 b8 08 d1 ff ff ff 	movabs $0xffffffffffffd108,%rax
ffff80000010563b:	ff ff ff 
ffff80000010563e:	48 8d 14 03          	lea    (%rbx,%rax,1),%rdx
ffff800000105642:	be 00 00 ff 00       	mov    $0xff0000,%esi
ffff800000105647:	bf 00 00 00 00       	mov    $0x0,%edi
ffff80000010564c:	49 89 df             	mov    %rbx,%r15
ffff80000010564f:	b8 00 00 00 00       	mov    $0x0,%eax
ffff800000105654:	48 b9 11 83 ff ff ff 	movabs $0xffffffffffff8311,%rcx
ffff80000010565b:	ff ff ff 
ffff80000010565e:	48 01 d9             	add    %rbx,%rcx
ffff800000105661:	ff d1                	callq  *%rcx
ffff800000105663:	48 8b 45 d0          	mov    -0x30(%rbp),%rax
ffff800000105667:	83 e0 02             	and    $0x2,%eax
ffff80000010566a:	48 85 c0             	test   %rax,%rax
ffff80000010566d:	74 31                	je     ffff8000001056a0 <do_general_protection+0xfd>
ffff80000010566f:	48 b8 30 ce ff ff ff 	movabs $0xffffffffffffce30,%rax
ffff800000105676:	ff ff ff 
ffff800000105679:	48 8d 14 03          	lea    (%rbx,%rax,1),%rdx
ffff80000010567d:	be 00 00 ff 00       	mov    $0xff0000,%esi
ffff800000105682:	bf 00 00 00 00       	mov    $0x0,%edi
ffff800000105687:	49 89 df             	mov    %rbx,%r15
ffff80000010568a:	b8 00 00 00 00       	mov    $0x0,%eax
ffff80000010568f:	48 b9 11 83 ff ff ff 	movabs $0xffffffffffff8311,%rcx
ffff800000105696:	ff ff ff 
ffff800000105699:	48 01 d9             	add    %rbx,%rcx
ffff80000010569c:	ff d1                	callq  *%rcx
ffff80000010569e:	eb 2f                	jmp    ffff8000001056cf <do_general_protection+0x12c>
ffff8000001056a0:	48 b8 60 ce ff ff ff 	movabs $0xffffffffffffce60,%rax
ffff8000001056a7:	ff ff ff 
ffff8000001056aa:	48 8d 14 03          	lea    (%rbx,%rax,1),%rdx
ffff8000001056ae:	be 00 00 ff 00       	mov    $0xff0000,%esi
ffff8000001056b3:	bf 00 00 00 00       	mov    $0x0,%edi
ffff8000001056b8:	49 89 df             	mov    %rbx,%r15
ffff8000001056bb:	b8 00 00 00 00       	mov    $0x0,%eax
ffff8000001056c0:	48 b9 11 83 ff ff ff 	movabs $0xffffffffffff8311,%rcx
ffff8000001056c7:	ff ff ff 
ffff8000001056ca:	48 01 d9             	add    %rbx,%rcx
ffff8000001056cd:	ff d1                	callq  *%rcx
ffff8000001056cf:	48 8b 45 d0          	mov    -0x30(%rbp),%rax
ffff8000001056d3:	83 e0 02             	and    $0x2,%eax
ffff8000001056d6:	48 85 c0             	test   %rax,%rax
ffff8000001056d9:	75 6c                	jne    ffff800000105747 <do_general_protection+0x1a4>
ffff8000001056db:	48 8b 45 d0          	mov    -0x30(%rbp),%rax
ffff8000001056df:	83 e0 04             	and    $0x4,%eax
ffff8000001056e2:	48 85 c0             	test   %rax,%rax
ffff8000001056e5:	74 31                	je     ffff800000105718 <do_general_protection+0x175>
ffff8000001056e7:	48 b8 98 ce ff ff ff 	movabs $0xffffffffffffce98,%rax
ffff8000001056ee:	ff ff ff 
ffff8000001056f1:	48 8d 14 03          	lea    (%rbx,%rax,1),%rdx
ffff8000001056f5:	be 00 00 ff 00       	mov    $0xff0000,%esi
ffff8000001056fa:	bf 00 00 00 00       	mov    $0x0,%edi
ffff8000001056ff:	49 89 df             	mov    %rbx,%r15
ffff800000105702:	b8 00 00 00 00       	mov    $0x0,%eax
ffff800000105707:	48 b9 11 83 ff ff ff 	movabs $0xffffffffffff8311,%rcx
ffff80000010570e:	ff ff ff 
ffff800000105711:	48 01 d9             	add    %rbx,%rcx
ffff800000105714:	ff d1                	callq  *%rcx
ffff800000105716:	eb 2f                	jmp    ffff800000105747 <do_general_protection+0x1a4>
ffff800000105718:	48 b8 d0 ce ff ff ff 	movabs $0xffffffffffffced0,%rax
ffff80000010571f:	ff ff ff 
ffff800000105722:	48 8d 14 03          	lea    (%rbx,%rax,1),%rdx
ffff800000105726:	be 00 00 ff 00       	mov    $0xff0000,%esi
ffff80000010572b:	bf 00 00 00 00       	mov    $0x0,%edi
ffff800000105730:	49 89 df             	mov    %rbx,%r15
ffff800000105733:	b8 00 00 00 00       	mov    $0x0,%eax
ffff800000105738:	48 b9 11 83 ff ff ff 	movabs $0xffffffffffff8311,%rcx
ffff80000010573f:	ff ff ff 
ffff800000105742:	48 01 d9             	add    %rbx,%rcx
ffff800000105745:	ff d1                	callq  *%rcx
ffff800000105747:	48 8b 45 d0          	mov    -0x30(%rbp),%rax
ffff80000010574b:	25 f8 ff 00 00       	and    $0xfff8,%eax
ffff800000105750:	48 89 c1             	mov    %rax,%rcx
ffff800000105753:	48 b8 00 cf ff ff ff 	movabs $0xffffffffffffcf00,%rax
ffff80000010575a:	ff ff ff 
ffff80000010575d:	48 8d 14 03          	lea    (%rbx,%rax,1),%rdx
ffff800000105761:	be 00 00 ff 00       	mov    $0xff0000,%esi
ffff800000105766:	bf 00 00 00 00       	mov    $0x0,%edi
ffff80000010576b:	49 89 df             	mov    %rbx,%r15
ffff80000010576e:	b8 00 00 00 00       	mov    $0x0,%eax
ffff800000105773:	49 b8 11 83 ff ff ff 	movabs $0xffffffffffff8311,%r8
ffff80000010577a:	ff ff ff 
ffff80000010577d:	49 01 d8             	add    %rbx,%r8
ffff800000105780:	41 ff d0             	callq  *%r8
ffff800000105783:	eb fe                	jmp    ffff800000105783 <do_general_protection+0x1e0>

ffff800000105785 <putchar>:
ffff800000105785:	55                   	push   %rbp
ffff800000105786:	48 89 e5             	mov    %rsp,%rbp
ffff800000105789:	48 83 ec 10          	sub    $0x10,%rsp
ffff80000010578d:	48 8d 05 f9 ff ff ff 	lea    -0x7(%rip),%rax        # ffff80000010578d <putchar+0x8>
ffff800000105794:	49 bb 2b 7f 00 00 00 	movabs $0x7f2b,%r11
ffff80000010579b:	00 00 00 
ffff80000010579e:	4c 01 d8             	add    %r11,%rax
ffff8000001057a1:	89 fa                	mov    %edi,%edx
ffff8000001057a3:	88 55 fc             	mov    %dl,-0x4(%rbp)
ffff8000001057a6:	0f be 4d fc          	movsbl -0x4(%rbp),%ecx
ffff8000001057aa:	ba ff ff ff 00       	mov    $0xffffff,%edx
ffff8000001057af:	be 00 00 00 00       	mov    $0x0,%esi
ffff8000001057b4:	89 cf                	mov    %ecx,%edi
ffff8000001057b6:	48 b9 11 81 ff ff ff 	movabs $0xffffffffffff8111,%rcx
ffff8000001057bd:	ff ff ff 
ffff8000001057c0:	48 8d 04 08          	lea    (%rax,%rcx,1),%rax
ffff8000001057c4:	ff d0                	callq  *%rax
ffff8000001057c6:	90                   	nop
ffff8000001057c7:	c9                   	leaveq 
ffff8000001057c8:	c3                   	retq   

ffff8000001057c9 <putchar_color>:
ffff8000001057c9:	55                   	push   %rbp
ffff8000001057ca:	48 89 e5             	mov    %rsp,%rbp
ffff8000001057cd:	41 57                	push   %r15
ffff8000001057cf:	48 83 ec 28          	sub    $0x28,%rsp
ffff8000001057d3:	48 8d 05 f9 ff ff ff 	lea    -0x7(%rip),%rax        # ffff8000001057d3 <putchar_color+0xa>
ffff8000001057da:	49 bb e5 7e 00 00 00 	movabs $0x7ee5,%r11
ffff8000001057e1:	00 00 00 
ffff8000001057e4:	4c 01 d8             	add    %r11,%rax
ffff8000001057e7:	89 f9                	mov    %edi,%ecx
ffff8000001057e9:	89 75 d8             	mov    %esi,-0x28(%rbp)
ffff8000001057ec:	89 55 d4             	mov    %edx,-0x2c(%rbp)
ffff8000001057ef:	88 4d dc             	mov    %cl,-0x24(%rbp)
ffff8000001057f2:	c7 45 ec 00 00 00 00 	movl   $0x0,-0x14(%rbp)
ffff8000001057f9:	e9 ed 00 00 00       	jmpq   ffff8000001058eb <putchar_color+0x122>
ffff8000001057fe:	c7 45 e4 00 01 00 00 	movl   $0x100,-0x1c(%rbp)
ffff800000105805:	48 ba 28 04 00 00 00 	movabs $0x428,%rdx
ffff80000010580c:	00 00 00 
ffff80000010580f:	8b 0c 10             	mov    (%rax,%rdx,1),%ecx
ffff800000105812:	48 ba 28 04 00 00 00 	movabs $0x428,%rdx
ffff800000105819:	00 00 00 
ffff80000010581c:	8b 74 10 0c          	mov    0xc(%rax,%rdx,1),%esi
ffff800000105820:	8b 55 ec             	mov    -0x14(%rbp),%edx
ffff800000105823:	01 f2                	add    %esi,%edx
ffff800000105825:	0f af d1             	imul   %ecx,%edx
ffff800000105828:	89 55 e0             	mov    %edx,-0x20(%rbp)
ffff80000010582b:	c7 45 e8 00 00 00 00 	movl   $0x0,-0x18(%rbp)
ffff800000105832:	e9 a6 00 00 00       	jmpq   ffff8000001058dd <putchar_color+0x114>
ffff800000105837:	d1 7d e4             	sarl   -0x1c(%rbp)
ffff80000010583a:	0f be 55 dc          	movsbl -0x24(%rbp),%edx
ffff80000010583e:	48 be 28 ef ff ff ff 	movabs $0xffffffffffffef28,%rsi
ffff800000105845:	ff ff ff 
ffff800000105848:	8b 4d ec             	mov    -0x14(%rbp),%ecx
ffff80000010584b:	48 63 c9             	movslq %ecx,%rcx
ffff80000010584e:	48 63 d2             	movslq %edx,%rdx
ffff800000105851:	48 01 c6             	add    %rax,%rsi
ffff800000105854:	48 c1 e2 04          	shl    $0x4,%rdx
ffff800000105858:	48 01 ca             	add    %rcx,%rdx
ffff80000010585b:	48 01 f2             	add    %rsi,%rdx
ffff80000010585e:	0f b6 12             	movzbl (%rdx),%edx
ffff800000105861:	0f b6 d2             	movzbl %dl,%edx
ffff800000105864:	23 55 e4             	and    -0x1c(%rbp),%edx
ffff800000105867:	85 d2                	test   %edx,%edx
ffff800000105869:	74 38                	je     ffff8000001058a3 <putchar_color+0xda>
ffff80000010586b:	48 ba 28 04 00 00 00 	movabs $0x428,%rdx
ffff800000105872:	00 00 00 
ffff800000105875:	48 8b 4c 10 18       	mov    0x18(%rax,%rdx,1),%rcx
ffff80000010587a:	48 ba 28 04 00 00 00 	movabs $0x428,%rdx
ffff800000105881:	00 00 00 
ffff800000105884:	8b 74 10 08          	mov    0x8(%rax,%rdx,1),%esi
ffff800000105888:	8b 55 e0             	mov    -0x20(%rbp),%edx
ffff80000010588b:	01 d6                	add    %edx,%esi
ffff80000010588d:	8b 55 e8             	mov    -0x18(%rbp),%edx
ffff800000105890:	01 f2                	add    %esi,%edx
ffff800000105892:	48 63 d2             	movslq %edx,%rdx
ffff800000105895:	48 c1 e2 02          	shl    $0x2,%rdx
ffff800000105899:	48 01 d1             	add    %rdx,%rcx
ffff80000010589c:	8b 55 d4             	mov    -0x2c(%rbp),%edx
ffff80000010589f:	89 11                	mov    %edx,(%rcx)
ffff8000001058a1:	eb 36                	jmp    ffff8000001058d9 <putchar_color+0x110>
ffff8000001058a3:	48 ba 28 04 00 00 00 	movabs $0x428,%rdx
ffff8000001058aa:	00 00 00 
ffff8000001058ad:	48 8b 4c 10 18       	mov    0x18(%rax,%rdx,1),%rcx
ffff8000001058b2:	48 ba 28 04 00 00 00 	movabs $0x428,%rdx
ffff8000001058b9:	00 00 00 
ffff8000001058bc:	8b 74 10 08          	mov    0x8(%rax,%rdx,1),%esi
ffff8000001058c0:	8b 55 e0             	mov    -0x20(%rbp),%edx
ffff8000001058c3:	01 d6                	add    %edx,%esi
ffff8000001058c5:	8b 55 e8             	mov    -0x18(%rbp),%edx
ffff8000001058c8:	01 f2                	add    %esi,%edx
ffff8000001058ca:	48 63 d2             	movslq %edx,%rdx
ffff8000001058cd:	48 c1 e2 02          	shl    $0x2,%rdx
ffff8000001058d1:	48 01 d1             	add    %rdx,%rcx
ffff8000001058d4:	8b 55 d8             	mov    -0x28(%rbp),%edx
ffff8000001058d7:	89 11                	mov    %edx,(%rcx)
ffff8000001058d9:	83 45 e8 01          	addl   $0x1,-0x18(%rbp)
ffff8000001058dd:	83 7d e8 07          	cmpl   $0x7,-0x18(%rbp)
ffff8000001058e1:	0f 8e 50 ff ff ff    	jle    ffff800000105837 <putchar_color+0x6e>
ffff8000001058e7:	83 45 ec 01          	addl   $0x1,-0x14(%rbp)
ffff8000001058eb:	83 7d ec 0f          	cmpl   $0xf,-0x14(%rbp)
ffff8000001058ef:	0f 8e 09 ff ff ff    	jle    ffff8000001057fe <putchar_color+0x35>
ffff8000001058f5:	48 ba 28 04 00 00 00 	movabs $0x428,%rdx
ffff8000001058fc:	00 00 00 
ffff8000001058ff:	8b 54 10 10          	mov    0x10(%rax,%rdx,1),%edx
ffff800000105903:	89 d7                	mov    %edx,%edi
ffff800000105905:	49 89 c7             	mov    %rax,%r15
ffff800000105908:	48 ba e4 b0 ff ff ff 	movabs $0xffffffffffffb0e4,%rdx
ffff80000010590f:	ff ff ff 
ffff800000105912:	48 01 c2             	add    %rax,%rdx
ffff800000105915:	ff d2                	callq  *%rdx
ffff800000105917:	90                   	nop
ffff800000105918:	48 83 c4 28          	add    $0x28,%rsp
ffff80000010591c:	41 5f                	pop    %r15
ffff80000010591e:	5d                   	pop    %rbp
ffff80000010591f:	c3                   	retq   

ffff800000105920 <puts_color>:
ffff800000105920:	55                   	push   %rbp
ffff800000105921:	48 89 e5             	mov    %rsp,%rbp
ffff800000105924:	53                   	push   %rbx
ffff800000105925:	48 83 ec 18          	sub    $0x18,%rsp
ffff800000105929:	48 8d 1d f9 ff ff ff 	lea    -0x7(%rip),%rbx        # ffff800000105929 <puts_color+0x9>
ffff800000105930:	49 bb 8f 7d 00 00 00 	movabs $0x7d8f,%r11
ffff800000105937:	00 00 00 
ffff80000010593a:	4c 01 db             	add    %r11,%rbx
ffff80000010593d:	48 89 7d e8          	mov    %rdi,-0x18(%rbp)
ffff800000105941:	89 75 e4             	mov    %esi,-0x1c(%rbp)
ffff800000105944:	89 55 e0             	mov    %edx,-0x20(%rbp)
ffff800000105947:	eb 29                	jmp    ffff800000105972 <puts_color+0x52>
ffff800000105949:	48 8b 45 e8          	mov    -0x18(%rbp),%rax
ffff80000010594d:	0f b6 00             	movzbl (%rax),%eax
ffff800000105950:	0f be c0             	movsbl %al,%eax
ffff800000105953:	8b 55 e0             	mov    -0x20(%rbp),%edx
ffff800000105956:	8b 4d e4             	mov    -0x1c(%rbp),%ecx
ffff800000105959:	89 ce                	mov    %ecx,%esi
ffff80000010595b:	89 c7                	mov    %eax,%edi
ffff80000010595d:	48 b8 11 81 ff ff ff 	movabs $0xffffffffffff8111,%rax
ffff800000105964:	ff ff ff 
ffff800000105967:	48 8d 04 03          	lea    (%rbx,%rax,1),%rax
ffff80000010596b:	ff d0                	callq  *%rax
ffff80000010596d:	48 83 45 e8 01       	addq   $0x1,-0x18(%rbp)
ffff800000105972:	48 8b 45 e8          	mov    -0x18(%rbp),%rax
ffff800000105976:	0f b6 00             	movzbl (%rax),%eax
ffff800000105979:	84 c0                	test   %al,%al
ffff80000010597b:	75 cc                	jne    ffff800000105949 <puts_color+0x29>
ffff80000010597d:	90                   	nop
ffff80000010597e:	48 83 c4 18          	add    $0x18,%rsp
ffff800000105982:	5b                   	pop    %rbx
ffff800000105983:	5d                   	pop    %rbp
ffff800000105984:	c3                   	retq   

ffff800000105985 <puts>:
ffff800000105985:	55                   	push   %rbp
ffff800000105986:	48 89 e5             	mov    %rsp,%rbp
ffff800000105989:	48 83 ec 10          	sub    $0x10,%rsp
ffff80000010598d:	48 8d 05 f9 ff ff ff 	lea    -0x7(%rip),%rax        # ffff80000010598d <puts+0x8>
ffff800000105994:	49 bb 2b 7d 00 00 00 	movabs $0x7d2b,%r11
ffff80000010599b:	00 00 00 
ffff80000010599e:	4c 01 d8             	add    %r11,%rax
ffff8000001059a1:	48 89 7d f8          	mov    %rdi,-0x8(%rbp)
ffff8000001059a5:	48 8b 4d f8          	mov    -0x8(%rbp),%rcx
ffff8000001059a9:	ba ff ff ff 00       	mov    $0xffffff,%edx
ffff8000001059ae:	be 00 00 00 00       	mov    $0x0,%esi
ffff8000001059b3:	48 89 cf             	mov    %rcx,%rdi
ffff8000001059b6:	48 b9 68 82 ff ff ff 	movabs $0xffffffffffff8268,%rcx
ffff8000001059bd:	ff ff ff 
ffff8000001059c0:	48 8d 04 08          	lea    (%rax,%rcx,1),%rax
ffff8000001059c4:	ff d0                	callq  *%rax
ffff8000001059c6:	90                   	nop
ffff8000001059c7:	c9                   	leaveq 
ffff8000001059c8:	c3                   	retq   

ffff8000001059c9 <printf_color>:
ffff8000001059c9:	55                   	push   %rbp
ffff8000001059ca:	48 89 e5             	mov    %rsp,%rbp
ffff8000001059cd:	41 57                	push   %r15
ffff8000001059cf:	53                   	push   %rbx
ffff8000001059d0:	48 81 ec 20 01 00 00 	sub    $0x120,%rsp
ffff8000001059d7:	48 8d 1d f9 ff ff ff 	lea    -0x7(%rip),%rbx        # ffff8000001059d7 <printf_color+0xe>
ffff8000001059de:	49 bb e1 7c 00 00 00 	movabs $0x7ce1,%r11
ffff8000001059e5:	00 00 00 
ffff8000001059e8:	4c 01 db             	add    %r11,%rbx
ffff8000001059eb:	89 bd dc fe ff ff    	mov    %edi,-0x124(%rbp)
ffff8000001059f1:	89 b5 d8 fe ff ff    	mov    %esi,-0x128(%rbp)
ffff8000001059f7:	48 89 95 d0 fe ff ff 	mov    %rdx,-0x130(%rbp)
ffff8000001059fe:	48 89 8d 58 ff ff ff 	mov    %rcx,-0xa8(%rbp)
ffff800000105a05:	4c 89 85 60 ff ff ff 	mov    %r8,-0xa0(%rbp)
ffff800000105a0c:	4c 89 8d 68 ff ff ff 	mov    %r9,-0x98(%rbp)
ffff800000105a13:	84 c0                	test   %al,%al
ffff800000105a15:	74 23                	je     ffff800000105a3a <printf_color+0x71>
ffff800000105a17:	0f 29 85 70 ff ff ff 	movaps %xmm0,-0x90(%rbp)
ffff800000105a1e:	0f 29 4d 80          	movaps %xmm1,-0x80(%rbp)
ffff800000105a22:	0f 29 55 90          	movaps %xmm2,-0x70(%rbp)
ffff800000105a26:	0f 29 5d a0          	movaps %xmm3,-0x60(%rbp)
ffff800000105a2a:	0f 29 65 b0          	movaps %xmm4,-0x50(%rbp)
ffff800000105a2e:	0f 29 6d c0          	movaps %xmm5,-0x40(%rbp)
ffff800000105a32:	0f 29 75 d0          	movaps %xmm6,-0x30(%rbp)
ffff800000105a36:	0f 29 7d e0          	movaps %xmm7,-0x20(%rbp)
ffff800000105a3a:	c7 85 18 ff ff ff 18 	movl   $0x18,-0xe8(%rbp)
ffff800000105a41:	00 00 00 
ffff800000105a44:	c7 85 1c ff ff ff 30 	movl   $0x30,-0xe4(%rbp)
ffff800000105a4b:	00 00 00 
ffff800000105a4e:	48 8d 45 10          	lea    0x10(%rbp),%rax
ffff800000105a52:	48 89 85 20 ff ff ff 	mov    %rax,-0xe0(%rbp)
ffff800000105a59:	48 8d 85 40 ff ff ff 	lea    -0xc0(%rbp),%rax
ffff800000105a60:	48 89 85 28 ff ff ff 	mov    %rax,-0xd8(%rbp)
ffff800000105a67:	e9 12 08 00 00       	jmpq   ffff80000010627e <printf_color+0x8b5>
ffff800000105a6c:	48 8b 85 d0 fe ff ff 	mov    -0x130(%rbp),%rax
ffff800000105a73:	0f b6 00             	movzbl (%rax),%eax
ffff800000105a76:	3c 25                	cmp    $0x25,%al
ffff800000105a78:	0f 85 76 06 00 00    	jne    ffff8000001060f4 <printf_color+0x72b>
ffff800000105a7e:	48 83 85 d0 fe ff ff 	addq   $0x1,-0x130(%rbp)
ffff800000105a85:	01 
ffff800000105a86:	c7 85 38 ff ff ff 00 	movl   $0x0,-0xc8(%rbp)
ffff800000105a8d:	00 00 00 
ffff800000105a90:	8b 85 38 ff ff ff    	mov    -0xc8(%rbp),%eax
ffff800000105a96:	89 85 3c ff ff ff    	mov    %eax,-0xc4(%rbp)
ffff800000105a9c:	48 8b 85 d0 fe ff ff 	mov    -0x130(%rbp),%rax
ffff800000105aa3:	0f b6 00             	movzbl (%rax),%eax
ffff800000105aa6:	3c 39                	cmp    $0x39,%al
ffff800000105aa8:	0f 8f 81 00 00 00    	jg     ffff800000105b2f <printf_color+0x166>
ffff800000105aae:	48 8b 85 d0 fe ff ff 	mov    -0x130(%rbp),%rax
ffff800000105ab5:	0f b6 00             	movzbl (%rax),%eax
ffff800000105ab8:	3c 2f                	cmp    $0x2f,%al
ffff800000105aba:	7e 73                	jle    ffff800000105b2f <printf_color+0x166>
ffff800000105abc:	48 8b 85 d0 fe ff ff 	mov    -0x130(%rbp),%rax
ffff800000105ac3:	0f b6 00             	movzbl (%rax),%eax
ffff800000105ac6:	3c 30                	cmp    $0x30,%al
ffff800000105ac8:	0f 94 c0             	sete   %al
ffff800000105acb:	0f b6 c0             	movzbl %al,%eax
ffff800000105ace:	89 85 3c ff ff ff    	mov    %eax,-0xc4(%rbp)
ffff800000105ad4:	c7 85 38 ff ff ff 00 	movl   $0x0,-0xc8(%rbp)
ffff800000105adb:	00 00 00 
ffff800000105ade:	eb 33                	jmp    ffff800000105b13 <printf_color+0x14a>
ffff800000105ae0:	8b 95 38 ff ff ff    	mov    -0xc8(%rbp),%edx
ffff800000105ae6:	89 d0                	mov    %edx,%eax
ffff800000105ae8:	c1 e0 02             	shl    $0x2,%eax
ffff800000105aeb:	01 d0                	add    %edx,%eax
ffff800000105aed:	01 c0                	add    %eax,%eax
ffff800000105aef:	89 85 38 ff ff ff    	mov    %eax,-0xc8(%rbp)
ffff800000105af5:	48 8b 85 d0 fe ff ff 	mov    -0x130(%rbp),%rax
ffff800000105afc:	0f b6 00             	movzbl (%rax),%eax
ffff800000105aff:	0f be c0             	movsbl %al,%eax
ffff800000105b02:	83 e8 30             	sub    $0x30,%eax
ffff800000105b05:	01 85 38 ff ff ff    	add    %eax,-0xc8(%rbp)
ffff800000105b0b:	48 83 85 d0 fe ff ff 	addq   $0x1,-0x130(%rbp)
ffff800000105b12:	01 
ffff800000105b13:	48 8b 85 d0 fe ff ff 	mov    -0x130(%rbp),%rax
ffff800000105b1a:	0f b6 00             	movzbl (%rax),%eax
ffff800000105b1d:	3c 39                	cmp    $0x39,%al
ffff800000105b1f:	7f 0e                	jg     ffff800000105b2f <printf_color+0x166>
ffff800000105b21:	48 8b 85 d0 fe ff ff 	mov    -0x130(%rbp),%rax
ffff800000105b28:	0f b6 00             	movzbl (%rax),%eax
ffff800000105b2b:	84 c0                	test   %al,%al
ffff800000105b2d:	79 b1                	jns    ffff800000105ae0 <printf_color+0x117>
ffff800000105b2f:	48 8b 85 d0 fe ff ff 	mov    -0x130(%rbp),%rax
ffff800000105b36:	0f b6 00             	movzbl (%rax),%eax
ffff800000105b39:	3c 64                	cmp    $0x64,%al
ffff800000105b3b:	75 74                	jne    ffff800000105bb1 <printf_color+0x1e8>
ffff800000105b3d:	8b 85 18 ff ff ff    	mov    -0xe8(%rbp),%eax
ffff800000105b43:	83 f8 2f             	cmp    $0x2f,%eax
ffff800000105b46:	77 23                	ja     ffff800000105b6b <printf_color+0x1a2>
ffff800000105b48:	48 8b 85 28 ff ff ff 	mov    -0xd8(%rbp),%rax
ffff800000105b4f:	8b 95 18 ff ff ff    	mov    -0xe8(%rbp),%edx
ffff800000105b55:	89 d2                	mov    %edx,%edx
ffff800000105b57:	48 01 d0             	add    %rdx,%rax
ffff800000105b5a:	8b 95 18 ff ff ff    	mov    -0xe8(%rbp),%edx
ffff800000105b60:	83 c2 08             	add    $0x8,%edx
ffff800000105b63:	89 95 18 ff ff ff    	mov    %edx,-0xe8(%rbp)
ffff800000105b69:	eb 12                	jmp    ffff800000105b7d <printf_color+0x1b4>
ffff800000105b6b:	48 8b 85 20 ff ff ff 	mov    -0xe0(%rbp),%rax
ffff800000105b72:	48 8d 50 08          	lea    0x8(%rax),%rdx
ffff800000105b76:	48 89 95 20 ff ff ff 	mov    %rdx,-0xe0(%rbp)
ffff800000105b7d:	8b 00                	mov    (%rax),%eax
ffff800000105b7f:	8b bd 3c ff ff ff    	mov    -0xc4(%rbp),%edi
ffff800000105b85:	8b 8d 38 ff ff ff    	mov    -0xc8(%rbp),%ecx
ffff800000105b8b:	8b 95 d8 fe ff ff    	mov    -0x128(%rbp),%edx
ffff800000105b91:	8b b5 dc fe ff ff    	mov    -0x124(%rbp),%esi
ffff800000105b97:	41 89 f8             	mov    %edi,%r8d
ffff800000105b9a:	89 c7                	mov    %eax,%edi
ffff800000105b9c:	48 b8 03 94 ff ff ff 	movabs $0xffffffffffff9403,%rax
ffff800000105ba3:	ff ff ff 
ffff800000105ba6:	48 8d 04 03          	lea    (%rbx,%rax,1),%rax
ffff800000105baa:	ff d0                	callq  *%rax
ffff800000105bac:	e9 c5 06 00 00       	jmpq   ffff800000106276 <printf_color+0x8ad>
ffff800000105bb1:	48 8b 85 d0 fe ff ff 	mov    -0x130(%rbp),%rax
ffff800000105bb8:	0f b6 00             	movzbl (%rax),%eax
ffff800000105bbb:	3c 63                	cmp    $0x63,%al
ffff800000105bbd:	75 6a                	jne    ffff800000105c29 <printf_color+0x260>
ffff800000105bbf:	8b 85 18 ff ff ff    	mov    -0xe8(%rbp),%eax
ffff800000105bc5:	83 f8 2f             	cmp    $0x2f,%eax
ffff800000105bc8:	77 23                	ja     ffff800000105bed <printf_color+0x224>
ffff800000105bca:	48 8b 85 28 ff ff ff 	mov    -0xd8(%rbp),%rax
ffff800000105bd1:	8b 95 18 ff ff ff    	mov    -0xe8(%rbp),%edx
ffff800000105bd7:	89 d2                	mov    %edx,%edx
ffff800000105bd9:	48 01 d0             	add    %rdx,%rax
ffff800000105bdc:	8b 95 18 ff ff ff    	mov    -0xe8(%rbp),%edx
ffff800000105be2:	83 c2 08             	add    $0x8,%edx
ffff800000105be5:	89 95 18 ff ff ff    	mov    %edx,-0xe8(%rbp)
ffff800000105beb:	eb 12                	jmp    ffff800000105bff <printf_color+0x236>
ffff800000105bed:	48 8b 85 20 ff ff ff 	mov    -0xe0(%rbp),%rax
ffff800000105bf4:	48 8d 50 08          	lea    0x8(%rax),%rdx
ffff800000105bf8:	48 89 95 20 ff ff ff 	mov    %rdx,-0xe0(%rbp)
ffff800000105bff:	8b 00                	mov    (%rax),%eax
ffff800000105c01:	0f be c0             	movsbl %al,%eax
ffff800000105c04:	8b 95 d8 fe ff ff    	mov    -0x128(%rbp),%edx
ffff800000105c0a:	8b 8d dc fe ff ff    	mov    -0x124(%rbp),%ecx
ffff800000105c10:	89 ce                	mov    %ecx,%esi
ffff800000105c12:	89 c7                	mov    %eax,%edi
ffff800000105c14:	48 b8 11 81 ff ff ff 	movabs $0xffffffffffff8111,%rax
ffff800000105c1b:	ff ff ff 
ffff800000105c1e:	48 8d 04 03          	lea    (%rbx,%rax,1),%rax
ffff800000105c22:	ff d0                	callq  *%rax
ffff800000105c24:	e9 4d 06 00 00       	jmpq   ffff800000106276 <printf_color+0x8ad>
ffff800000105c29:	48 8b 85 d0 fe ff ff 	mov    -0x130(%rbp),%rax
ffff800000105c30:	0f b6 00             	movzbl (%rax),%eax
ffff800000105c33:	3c 73                	cmp    $0x73,%al
ffff800000105c35:	75 69                	jne    ffff800000105ca0 <printf_color+0x2d7>
ffff800000105c37:	8b 85 18 ff ff ff    	mov    -0xe8(%rbp),%eax
ffff800000105c3d:	83 f8 2f             	cmp    $0x2f,%eax
ffff800000105c40:	77 23                	ja     ffff800000105c65 <printf_color+0x29c>
ffff800000105c42:	48 8b 85 28 ff ff ff 	mov    -0xd8(%rbp),%rax
ffff800000105c49:	8b 95 18 ff ff ff    	mov    -0xe8(%rbp),%edx
ffff800000105c4f:	89 d2                	mov    %edx,%edx
ffff800000105c51:	48 01 d0             	add    %rdx,%rax
ffff800000105c54:	8b 95 18 ff ff ff    	mov    -0xe8(%rbp),%edx
ffff800000105c5a:	83 c2 08             	add    $0x8,%edx
ffff800000105c5d:	89 95 18 ff ff ff    	mov    %edx,-0xe8(%rbp)
ffff800000105c63:	eb 12                	jmp    ffff800000105c77 <printf_color+0x2ae>
ffff800000105c65:	48 8b 85 20 ff ff ff 	mov    -0xe0(%rbp),%rax
ffff800000105c6c:	48 8d 50 08          	lea    0x8(%rax),%rdx
ffff800000105c70:	48 89 95 20 ff ff ff 	mov    %rdx,-0xe0(%rbp)
ffff800000105c77:	48 8b 00             	mov    (%rax),%rax
ffff800000105c7a:	8b 95 d8 fe ff ff    	mov    -0x128(%rbp),%edx
ffff800000105c80:	8b 8d dc fe ff ff    	mov    -0x124(%rbp),%ecx
ffff800000105c86:	89 ce                	mov    %ecx,%esi
ffff800000105c88:	48 89 c7             	mov    %rax,%rdi
ffff800000105c8b:	48 b8 68 82 ff ff ff 	movabs $0xffffffffffff8268,%rax
ffff800000105c92:	ff ff ff 
ffff800000105c95:	48 8d 04 03          	lea    (%rbx,%rax,1),%rax
ffff800000105c99:	ff d0                	callq  *%rax
ffff800000105c9b:	e9 d6 05 00 00       	jmpq   ffff800000106276 <printf_color+0x8ad>
ffff800000105ca0:	48 8b 85 d0 fe ff ff 	mov    -0x130(%rbp),%rax
ffff800000105ca7:	0f b6 00             	movzbl (%rax),%eax
ffff800000105caa:	3c 78                	cmp    $0x78,%al
ffff800000105cac:	75 7e                	jne    ffff800000105d2c <printf_color+0x363>
ffff800000105cae:	8b 85 18 ff ff ff    	mov    -0xe8(%rbp),%eax
ffff800000105cb4:	83 f8 2f             	cmp    $0x2f,%eax
ffff800000105cb7:	77 23                	ja     ffff800000105cdc <printf_color+0x313>
ffff800000105cb9:	48 8b 85 28 ff ff ff 	mov    -0xd8(%rbp),%rax
ffff800000105cc0:	8b 95 18 ff ff ff    	mov    -0xe8(%rbp),%edx
ffff800000105cc6:	89 d2                	mov    %edx,%edx
ffff800000105cc8:	48 01 d0             	add    %rdx,%rax
ffff800000105ccb:	8b 95 18 ff ff ff    	mov    -0xe8(%rbp),%edx
ffff800000105cd1:	83 c2 08             	add    $0x8,%edx
ffff800000105cd4:	89 95 18 ff ff ff    	mov    %edx,-0xe8(%rbp)
ffff800000105cda:	eb 12                	jmp    ffff800000105cee <printf_color+0x325>
ffff800000105cdc:	48 8b 85 20 ff ff ff 	mov    -0xe0(%rbp),%rax
ffff800000105ce3:	48 8d 50 08          	lea    0x8(%rax),%rdx
ffff800000105ce7:	48 89 95 20 ff ff ff 	mov    %rdx,-0xe0(%rbp)
ffff800000105cee:	48 8b 00             	mov    (%rax),%rax
ffff800000105cf1:	8b bd 3c ff ff ff    	mov    -0xc4(%rbp),%edi
ffff800000105cf7:	8b 8d 38 ff ff ff    	mov    -0xc8(%rbp),%ecx
ffff800000105cfd:	8b 95 d8 fe ff ff    	mov    -0x128(%rbp),%edx
ffff800000105d03:	8b b5 dc fe ff ff    	mov    -0x124(%rbp),%esi
ffff800000105d09:	41 89 f9             	mov    %edi,%r9d
ffff800000105d0c:	41 89 c8             	mov    %ecx,%r8d
ffff800000105d0f:	b9 00 00 00 00       	mov    $0x0,%ecx
ffff800000105d14:	48 89 c7             	mov    %rax,%rdi
ffff800000105d17:	48 b8 3e 98 ff ff ff 	movabs $0xffffffffffff983e,%rax
ffff800000105d1e:	ff ff ff 
ffff800000105d21:	48 8d 04 03          	lea    (%rbx,%rax,1),%rax
ffff800000105d25:	ff d0                	callq  *%rax
ffff800000105d27:	e9 4a 05 00 00       	jmpq   ffff800000106276 <printf_color+0x8ad>
ffff800000105d2c:	48 8b 85 d0 fe ff ff 	mov    -0x130(%rbp),%rax
ffff800000105d33:	0f b6 00             	movzbl (%rax),%eax
ffff800000105d36:	3c 58                	cmp    $0x58,%al
ffff800000105d38:	75 7e                	jne    ffff800000105db8 <printf_color+0x3ef>
ffff800000105d3a:	8b 85 18 ff ff ff    	mov    -0xe8(%rbp),%eax
ffff800000105d40:	83 f8 2f             	cmp    $0x2f,%eax
ffff800000105d43:	77 23                	ja     ffff800000105d68 <printf_color+0x39f>
ffff800000105d45:	48 8b 85 28 ff ff ff 	mov    -0xd8(%rbp),%rax
ffff800000105d4c:	8b 95 18 ff ff ff    	mov    -0xe8(%rbp),%edx
ffff800000105d52:	89 d2                	mov    %edx,%edx
ffff800000105d54:	48 01 d0             	add    %rdx,%rax
ffff800000105d57:	8b 95 18 ff ff ff    	mov    -0xe8(%rbp),%edx
ffff800000105d5d:	83 c2 08             	add    $0x8,%edx
ffff800000105d60:	89 95 18 ff ff ff    	mov    %edx,-0xe8(%rbp)
ffff800000105d66:	eb 12                	jmp    ffff800000105d7a <printf_color+0x3b1>
ffff800000105d68:	48 8b 85 20 ff ff ff 	mov    -0xe0(%rbp),%rax
ffff800000105d6f:	48 8d 50 08          	lea    0x8(%rax),%rdx
ffff800000105d73:	48 89 95 20 ff ff ff 	mov    %rdx,-0xe0(%rbp)
ffff800000105d7a:	48 8b 00             	mov    (%rax),%rax
ffff800000105d7d:	8b bd 3c ff ff ff    	mov    -0xc4(%rbp),%edi
ffff800000105d83:	8b 8d 38 ff ff ff    	mov    -0xc8(%rbp),%ecx
ffff800000105d89:	8b 95 d8 fe ff ff    	mov    -0x128(%rbp),%edx
ffff800000105d8f:	8b b5 dc fe ff ff    	mov    -0x124(%rbp),%esi
ffff800000105d95:	41 89 f9             	mov    %edi,%r9d
ffff800000105d98:	41 89 c8             	mov    %ecx,%r8d
ffff800000105d9b:	b9 01 00 00 00       	mov    $0x1,%ecx
ffff800000105da0:	48 89 c7             	mov    %rax,%rdi
ffff800000105da3:	48 b8 3e 98 ff ff ff 	movabs $0xffffffffffff983e,%rax
ffff800000105daa:	ff ff ff 
ffff800000105dad:	48 8d 04 03          	lea    (%rbx,%rax,1),%rax
ffff800000105db1:	ff d0                	callq  *%rax
ffff800000105db3:	e9 be 04 00 00       	jmpq   ffff800000106276 <printf_color+0x8ad>
ffff800000105db8:	48 8b 85 d0 fe ff ff 	mov    -0x130(%rbp),%rax
ffff800000105dbf:	0f b6 00             	movzbl (%rax),%eax
ffff800000105dc2:	3c 6c                	cmp    $0x6c,%al
ffff800000105dc4:	0f 85 90 00 00 00    	jne    ffff800000105e5a <printf_color+0x491>
ffff800000105dca:	48 8b 85 d0 fe ff ff 	mov    -0x130(%rbp),%rax
ffff800000105dd1:	48 83 c0 01          	add    $0x1,%rax
ffff800000105dd5:	0f b6 00             	movzbl (%rax),%eax
ffff800000105dd8:	3c 64                	cmp    $0x64,%al
ffff800000105dda:	75 7e                	jne    ffff800000105e5a <printf_color+0x491>
ffff800000105ddc:	48 83 85 d0 fe ff ff 	addq   $0x1,-0x130(%rbp)
ffff800000105de3:	01 
ffff800000105de4:	8b 85 18 ff ff ff    	mov    -0xe8(%rbp),%eax
ffff800000105dea:	83 f8 2f             	cmp    $0x2f,%eax
ffff800000105ded:	77 23                	ja     ffff800000105e12 <printf_color+0x449>
ffff800000105def:	48 8b 85 28 ff ff ff 	mov    -0xd8(%rbp),%rax
ffff800000105df6:	8b 95 18 ff ff ff    	mov    -0xe8(%rbp),%edx
ffff800000105dfc:	89 d2                	mov    %edx,%edx
ffff800000105dfe:	48 01 d0             	add    %rdx,%rax
ffff800000105e01:	8b 95 18 ff ff ff    	mov    -0xe8(%rbp),%edx
ffff800000105e07:	83 c2 08             	add    $0x8,%edx
ffff800000105e0a:	89 95 18 ff ff ff    	mov    %edx,-0xe8(%rbp)
ffff800000105e10:	eb 12                	jmp    ffff800000105e24 <printf_color+0x45b>
ffff800000105e12:	48 8b 85 20 ff ff ff 	mov    -0xe0(%rbp),%rax
ffff800000105e19:	48 8d 50 08          	lea    0x8(%rax),%rdx
ffff800000105e1d:	48 89 95 20 ff ff ff 	mov    %rdx,-0xe0(%rbp)
ffff800000105e24:	48 8b 00             	mov    (%rax),%rax
ffff800000105e27:	8b bd 3c ff ff ff    	mov    -0xc4(%rbp),%edi
ffff800000105e2d:	8b 8d 38 ff ff ff    	mov    -0xc8(%rbp),%ecx
ffff800000105e33:	8b 95 d8 fe ff ff    	mov    -0x128(%rbp),%edx
ffff800000105e39:	8b b5 dc fe ff ff    	mov    -0x124(%rbp),%esi
ffff800000105e3f:	41 89 f8             	mov    %edi,%r8d
ffff800000105e42:	48 89 c7             	mov    %rax,%rdi
ffff800000105e45:	48 b8 ff 95 ff ff ff 	movabs $0xffffffffffff95ff,%rax
ffff800000105e4c:	ff ff ff 
ffff800000105e4f:	48 8d 04 03          	lea    (%rbx,%rax,1),%rax
ffff800000105e53:	ff d0                	callq  *%rax
ffff800000105e55:	e9 1c 04 00 00       	jmpq   ffff800000106276 <printf_color+0x8ad>
ffff800000105e5a:	48 8b 85 d0 fe ff ff 	mov    -0x130(%rbp),%rax
ffff800000105e61:	0f b6 00             	movzbl (%rax),%eax
ffff800000105e64:	3c 75                	cmp    $0x75,%al
ffff800000105e66:	0f 85 56 02 00 00    	jne    ffff8000001060c2 <printf_color+0x6f9>
ffff800000105e6c:	48 83 85 d0 fe ff ff 	addq   $0x1,-0x130(%rbp)
ffff800000105e73:	01 
ffff800000105e74:	48 8b 85 d0 fe ff ff 	mov    -0x130(%rbp),%rax
ffff800000105e7b:	0f b6 00             	movzbl (%rax),%eax
ffff800000105e7e:	3c 64                	cmp    $0x64,%al
ffff800000105e80:	75 76                	jne    ffff800000105ef8 <printf_color+0x52f>
ffff800000105e82:	8b 85 18 ff ff ff    	mov    -0xe8(%rbp),%eax
ffff800000105e88:	83 f8 2f             	cmp    $0x2f,%eax
ffff800000105e8b:	77 23                	ja     ffff800000105eb0 <printf_color+0x4e7>
ffff800000105e8d:	48 8b 85 28 ff ff ff 	mov    -0xd8(%rbp),%rax
ffff800000105e94:	8b 95 18 ff ff ff    	mov    -0xe8(%rbp),%edx
ffff800000105e9a:	89 d2                	mov    %edx,%edx
ffff800000105e9c:	48 01 d0             	add    %rdx,%rax
ffff800000105e9f:	8b 95 18 ff ff ff    	mov    -0xe8(%rbp),%edx
ffff800000105ea5:	83 c2 08             	add    $0x8,%edx
ffff800000105ea8:	89 95 18 ff ff ff    	mov    %edx,-0xe8(%rbp)
ffff800000105eae:	eb 12                	jmp    ffff800000105ec2 <printf_color+0x4f9>
ffff800000105eb0:	48 8b 85 20 ff ff ff 	mov    -0xe0(%rbp),%rax
ffff800000105eb7:	48 8d 50 08          	lea    0x8(%rax),%rdx
ffff800000105ebb:	48 89 95 20 ff ff ff 	mov    %rdx,-0xe0(%rbp)
ffff800000105ec2:	8b 00                	mov    (%rax),%eax
ffff800000105ec4:	89 c7                	mov    %eax,%edi
ffff800000105ec6:	8b b5 3c ff ff ff    	mov    -0xc4(%rbp),%esi
ffff800000105ecc:	8b 8d 38 ff ff ff    	mov    -0xc8(%rbp),%ecx
ffff800000105ed2:	8b 95 d8 fe ff ff    	mov    -0x128(%rbp),%edx
ffff800000105ed8:	8b 85 dc fe ff ff    	mov    -0x124(%rbp),%eax
ffff800000105ede:	41 89 f0             	mov    %esi,%r8d
ffff800000105ee1:	89 c6                	mov    %eax,%esi
ffff800000105ee3:	48 b8 26 9b ff ff ff 	movabs $0xffffffffffff9b26,%rax
ffff800000105eea:	ff ff ff 
ffff800000105eed:	48 8d 04 03          	lea    (%rbx,%rax,1),%rax
ffff800000105ef1:	ff d0                	callq  *%rax
ffff800000105ef3:	e9 7e 03 00 00       	jmpq   ffff800000106276 <printf_color+0x8ad>
ffff800000105ef8:	48 8b 85 d0 fe ff ff 	mov    -0x130(%rbp),%rax
ffff800000105eff:	0f b6 00             	movzbl (%rax),%eax
ffff800000105f02:	3c 78                	cmp    $0x78,%al
ffff800000105f04:	0f 85 80 00 00 00    	jne    ffff800000105f8a <printf_color+0x5c1>
ffff800000105f0a:	8b 85 18 ff ff ff    	mov    -0xe8(%rbp),%eax
ffff800000105f10:	83 f8 2f             	cmp    $0x2f,%eax
ffff800000105f13:	77 23                	ja     ffff800000105f38 <printf_color+0x56f>
ffff800000105f15:	48 8b 85 28 ff ff ff 	mov    -0xd8(%rbp),%rax
ffff800000105f1c:	8b 95 18 ff ff ff    	mov    -0xe8(%rbp),%edx
ffff800000105f22:	89 d2                	mov    %edx,%edx
ffff800000105f24:	48 01 d0             	add    %rdx,%rax
ffff800000105f27:	8b 95 18 ff ff ff    	mov    -0xe8(%rbp),%edx
ffff800000105f2d:	83 c2 08             	add    $0x8,%edx
ffff800000105f30:	89 95 18 ff ff ff    	mov    %edx,-0xe8(%rbp)
ffff800000105f36:	eb 12                	jmp    ffff800000105f4a <printf_color+0x581>
ffff800000105f38:	48 8b 85 20 ff ff ff 	mov    -0xe0(%rbp),%rax
ffff800000105f3f:	48 8d 50 08          	lea    0x8(%rax),%rdx
ffff800000105f43:	48 89 95 20 ff ff ff 	mov    %rdx,-0xe0(%rbp)
ffff800000105f4a:	48 8b 00             	mov    (%rax),%rax
ffff800000105f4d:	48 89 c7             	mov    %rax,%rdi
ffff800000105f50:	8b b5 3c ff ff ff    	mov    -0xc4(%rbp),%esi
ffff800000105f56:	8b 8d 38 ff ff ff    	mov    -0xc8(%rbp),%ecx
ffff800000105f5c:	8b 95 d8 fe ff ff    	mov    -0x128(%rbp),%edx
ffff800000105f62:	8b 85 dc fe ff ff    	mov    -0x124(%rbp),%eax
ffff800000105f68:	41 89 f1             	mov    %esi,%r9d
ffff800000105f6b:	41 89 c8             	mov    %ecx,%r8d
ffff800000105f6e:	b9 00 00 00 00       	mov    $0x0,%ecx
ffff800000105f73:	89 c6                	mov    %eax,%esi
ffff800000105f75:	48 b8 b2 9e ff ff ff 	movabs $0xffffffffffff9eb2,%rax
ffff800000105f7c:	ff ff ff 
ffff800000105f7f:	48 8d 04 03          	lea    (%rbx,%rax,1),%rax
ffff800000105f83:	ff d0                	callq  *%rax
ffff800000105f85:	e9 ec 02 00 00       	jmpq   ffff800000106276 <printf_color+0x8ad>
ffff800000105f8a:	48 8b 85 d0 fe ff ff 	mov    -0x130(%rbp),%rax
ffff800000105f91:	0f b6 00             	movzbl (%rax),%eax
ffff800000105f94:	3c 58                	cmp    $0x58,%al
ffff800000105f96:	0f 85 80 00 00 00    	jne    ffff80000010601c <printf_color+0x653>
ffff800000105f9c:	8b 85 18 ff ff ff    	mov    -0xe8(%rbp),%eax
ffff800000105fa2:	83 f8 2f             	cmp    $0x2f,%eax
ffff800000105fa5:	77 23                	ja     ffff800000105fca <printf_color+0x601>
ffff800000105fa7:	48 8b 85 28 ff ff ff 	mov    -0xd8(%rbp),%rax
ffff800000105fae:	8b 95 18 ff ff ff    	mov    -0xe8(%rbp),%edx
ffff800000105fb4:	89 d2                	mov    %edx,%edx
ffff800000105fb6:	48 01 d0             	add    %rdx,%rax
ffff800000105fb9:	8b 95 18 ff ff ff    	mov    -0xe8(%rbp),%edx
ffff800000105fbf:	83 c2 08             	add    $0x8,%edx
ffff800000105fc2:	89 95 18 ff ff ff    	mov    %edx,-0xe8(%rbp)
ffff800000105fc8:	eb 12                	jmp    ffff800000105fdc <printf_color+0x613>
ffff800000105fca:	48 8b 85 20 ff ff ff 	mov    -0xe0(%rbp),%rax
ffff800000105fd1:	48 8d 50 08          	lea    0x8(%rax),%rdx
ffff800000105fd5:	48 89 95 20 ff ff ff 	mov    %rdx,-0xe0(%rbp)
ffff800000105fdc:	48 8b 00             	mov    (%rax),%rax
ffff800000105fdf:	48 89 c7             	mov    %rax,%rdi
ffff800000105fe2:	8b b5 3c ff ff ff    	mov    -0xc4(%rbp),%esi
ffff800000105fe8:	8b 8d 38 ff ff ff    	mov    -0xc8(%rbp),%ecx
ffff800000105fee:	8b 95 d8 fe ff ff    	mov    -0x128(%rbp),%edx
ffff800000105ff4:	8b 85 dc fe ff ff    	mov    -0x124(%rbp),%eax
ffff800000105ffa:	41 89 f1             	mov    %esi,%r9d
ffff800000105ffd:	41 89 c8             	mov    %ecx,%r8d
ffff800000106000:	b9 01 00 00 00       	mov    $0x1,%ecx
ffff800000106005:	89 c6                	mov    %eax,%esi
ffff800000106007:	48 b8 b2 9e ff ff ff 	movabs $0xffffffffffff9eb2,%rax
ffff80000010600e:	ff ff ff 
ffff800000106011:	48 8d 04 03          	lea    (%rbx,%rax,1),%rax
ffff800000106015:	ff d0                	callq  *%rax
ffff800000106017:	e9 5a 02 00 00       	jmpq   ffff800000106276 <printf_color+0x8ad>
ffff80000010601c:	48 8b 85 d0 fe ff ff 	mov    -0x130(%rbp),%rax
ffff800000106023:	0f b6 00             	movzbl (%rax),%eax
ffff800000106026:	3c 6c                	cmp    $0x6c,%al
ffff800000106028:	0f 85 48 02 00 00    	jne    ffff800000106276 <printf_color+0x8ad>
ffff80000010602e:	48 8b 85 d0 fe ff ff 	mov    -0x130(%rbp),%rax
ffff800000106035:	48 83 c0 01          	add    $0x1,%rax
ffff800000106039:	0f b6 00             	movzbl (%rax),%eax
ffff80000010603c:	3c 64                	cmp    $0x64,%al
ffff80000010603e:	0f 85 32 02 00 00    	jne    ffff800000106276 <printf_color+0x8ad>
ffff800000106044:	48 83 85 d0 fe ff ff 	addq   $0x1,-0x130(%rbp)
ffff80000010604b:	01 
ffff80000010604c:	8b 85 18 ff ff ff    	mov    -0xe8(%rbp),%eax
ffff800000106052:	83 f8 2f             	cmp    $0x2f,%eax
ffff800000106055:	77 23                	ja     ffff80000010607a <printf_color+0x6b1>
ffff800000106057:	48 8b 85 28 ff ff ff 	mov    -0xd8(%rbp),%rax
ffff80000010605e:	8b 95 18 ff ff ff    	mov    -0xe8(%rbp),%edx
ffff800000106064:	89 d2                	mov    %edx,%edx
ffff800000106066:	48 01 d0             	add    %rdx,%rax
ffff800000106069:	8b 95 18 ff ff ff    	mov    -0xe8(%rbp),%edx
ffff80000010606f:	83 c2 08             	add    $0x8,%edx
ffff800000106072:	89 95 18 ff ff ff    	mov    %edx,-0xe8(%rbp)
ffff800000106078:	eb 12                	jmp    ffff80000010608c <printf_color+0x6c3>
ffff80000010607a:	48 8b 85 20 ff ff ff 	mov    -0xe0(%rbp),%rax
ffff800000106081:	48 8d 50 08          	lea    0x8(%rax),%rdx
ffff800000106085:	48 89 95 20 ff ff ff 	mov    %rdx,-0xe0(%rbp)
ffff80000010608c:	48 8b 00             	mov    (%rax),%rax
ffff80000010608f:	8b bd 3c ff ff ff    	mov    -0xc4(%rbp),%edi
ffff800000106095:	8b 8d 38 ff ff ff    	mov    -0xc8(%rbp),%ecx
ffff80000010609b:	8b 95 d8 fe ff ff    	mov    -0x128(%rbp),%edx
ffff8000001060a1:	8b b5 dc fe ff ff    	mov    -0x124(%rbp),%esi
ffff8000001060a7:	41 89 f8             	mov    %edi,%r8d
ffff8000001060aa:	48 89 c7             	mov    %rax,%rdi
ffff8000001060ad:	48 b8 ff 95 ff ff ff 	movabs $0xffffffffffff95ff,%rax
ffff8000001060b4:	ff ff ff 
ffff8000001060b7:	48 8d 04 03          	lea    (%rbx,%rax,1),%rax
ffff8000001060bb:	ff d0                	callq  *%rax
ffff8000001060bd:	e9 b4 01 00 00       	jmpq   ffff800000106276 <printf_color+0x8ad>
ffff8000001060c2:	48 8b 85 d0 fe ff ff 	mov    -0x130(%rbp),%rax
ffff8000001060c9:	0f b6 00             	movzbl (%rax),%eax
ffff8000001060cc:	0f be c0             	movsbl %al,%eax
ffff8000001060cf:	8b 95 d8 fe ff ff    	mov    -0x128(%rbp),%edx
ffff8000001060d5:	8b 8d dc fe ff ff    	mov    -0x124(%rbp),%ecx
ffff8000001060db:	89 ce                	mov    %ecx,%esi
ffff8000001060dd:	89 c7                	mov    %eax,%edi
ffff8000001060df:	48 b8 11 81 ff ff ff 	movabs $0xffffffffffff8111,%rax
ffff8000001060e6:	ff ff ff 
ffff8000001060e9:	48 8d 04 03          	lea    (%rbx,%rax,1),%rax
ffff8000001060ed:	ff d0                	callq  *%rax
ffff8000001060ef:	e9 82 01 00 00       	jmpq   ffff800000106276 <printf_color+0x8ad>
ffff8000001060f4:	48 8b 85 d0 fe ff ff 	mov    -0x130(%rbp),%rax
ffff8000001060fb:	0f b6 00             	movzbl (%rax),%eax
ffff8000001060fe:	3c 0a                	cmp    $0xa,%al
ffff800000106100:	75 70                	jne    ffff800000106172 <printf_color+0x7a9>
ffff800000106102:	48 b8 28 04 00 00 00 	movabs $0x428,%rax
ffff800000106109:	00 00 00 
ffff80000010610c:	8b 54 03 0c          	mov    0xc(%rbx,%rax,1),%edx
ffff800000106110:	48 b8 28 04 00 00 00 	movabs $0x428,%rax
ffff800000106117:	00 00 00 
ffff80000010611a:	8b 44 03 14          	mov    0x14(%rbx,%rax,1),%eax
ffff80000010611e:	01 c2                	add    %eax,%edx
ffff800000106120:	48 b8 28 04 00 00 00 	movabs $0x428,%rax
ffff800000106127:	00 00 00 
ffff80000010612a:	89 54 03 0c          	mov    %edx,0xc(%rbx,%rax,1)
ffff80000010612e:	48 b8 28 04 00 00 00 	movabs $0x428,%rax
ffff800000106135:	00 00 00 
ffff800000106138:	c7 44 03 08 00 00 00 	movl   $0x0,0x8(%rbx,%rax,1)
ffff80000010613f:	00 
ffff800000106140:	48 b8 28 04 00 00 00 	movabs $0x428,%rax
ffff800000106147:	00 00 00 
ffff80000010614a:	8b 44 03 0c          	mov    0xc(%rbx,%rax,1),%eax
ffff80000010614e:	48 ba 28 04 00 00 00 	movabs $0x428,%rdx
ffff800000106155:	00 00 00 
ffff800000106158:	8b 4c 13 04          	mov    0x4(%rbx,%rdx,1),%ecx
ffff80000010615c:	99                   	cltd   
ffff80000010615d:	f7 f9                	idiv   %ecx
ffff80000010615f:	48 b8 28 04 00 00 00 	movabs $0x428,%rax
ffff800000106166:	00 00 00 
ffff800000106169:	89 54 03 0c          	mov    %edx,0xc(%rbx,%rax,1)
ffff80000010616d:	e9 04 01 00 00       	jmpq   ffff800000106276 <printf_color+0x8ad>
ffff800000106172:	48 8b 85 d0 fe ff ff 	mov    -0x130(%rbp),%rax
ffff800000106179:	0f b6 00             	movzbl (%rax),%eax
ffff80000010617c:	3c 09                	cmp    $0x9,%al
ffff80000010617e:	0f 85 9e 00 00 00    	jne    ffff800000106222 <printf_color+0x859>
ffff800000106184:	48 b8 28 04 00 00 00 	movabs $0x428,%rax
ffff80000010618b:	00 00 00 
ffff80000010618e:	8b 44 03 08          	mov    0x8(%rbx,%rax,1),%eax
ffff800000106192:	48 ba 28 04 00 00 00 	movabs $0x428,%rdx
ffff800000106199:	00 00 00 
ffff80000010619c:	8b 74 13 10          	mov    0x10(%rbx,%rdx,1),%esi
ffff8000001061a0:	99                   	cltd   
ffff8000001061a1:	f7 fe                	idiv   %esi
ffff8000001061a3:	89 c2                	mov    %eax,%edx
ffff8000001061a5:	89 d0                	mov    %edx,%eax
ffff8000001061a7:	c1 f8 1f             	sar    $0x1f,%eax
ffff8000001061aa:	c1 e8 1e             	shr    $0x1e,%eax
ffff8000001061ad:	01 c2                	add    %eax,%edx
ffff8000001061af:	83 e2 03             	and    $0x3,%edx
ffff8000001061b2:	29 c2                	sub    %eax,%edx
ffff8000001061b4:	89 d0                	mov    %edx,%eax
ffff8000001061b6:	ba 04 00 00 00       	mov    $0x4,%edx
ffff8000001061bb:	29 c2                	sub    %eax,%edx
ffff8000001061bd:	89 d0                	mov    %edx,%eax
ffff8000001061bf:	89 85 30 ff ff ff    	mov    %eax,-0xd0(%rbp)
ffff8000001061c5:	c7 85 34 ff ff ff 00 	movl   $0x0,-0xcc(%rbp)
ffff8000001061cc:	00 00 00 
ffff8000001061cf:	eb 17                	jmp    ffff8000001061e8 <printf_color+0x81f>
ffff8000001061d1:	8b 85 34 ff ff ff    	mov    -0xcc(%rbp),%eax
ffff8000001061d7:	48 98                	cltq   
ffff8000001061d9:	c6 84 05 e0 fe ff ff 	movb   $0x20,-0x120(%rbp,%rax,1)
ffff8000001061e0:	20 
ffff8000001061e1:	83 85 34 ff ff ff 01 	addl   $0x1,-0xcc(%rbp)
ffff8000001061e8:	8b 85 34 ff ff ff    	mov    -0xcc(%rbp),%eax
ffff8000001061ee:	3b 85 30 ff ff ff    	cmp    -0xd0(%rbp),%eax
ffff8000001061f4:	7c db                	jl     ffff8000001061d1 <printf_color+0x808>
ffff8000001061f6:	8b 85 34 ff ff ff    	mov    -0xcc(%rbp),%eax
ffff8000001061fc:	48 98                	cltq   
ffff8000001061fe:	c6 84 05 e0 fe ff ff 	movb   $0x0,-0x120(%rbp,%rax,1)
ffff800000106205:	00 
ffff800000106206:	48 8d 85 e0 fe ff ff 	lea    -0x120(%rbp),%rax
ffff80000010620d:	48 89 c7             	mov    %rax,%rdi
ffff800000106210:	48 b8 cd 82 ff ff ff 	movabs $0xffffffffffff82cd,%rax
ffff800000106217:	ff ff ff 
ffff80000010621a:	48 8d 04 03          	lea    (%rbx,%rax,1),%rax
ffff80000010621e:	ff d0                	callq  *%rax
ffff800000106220:	eb 54                	jmp    ffff800000106276 <printf_color+0x8ad>
ffff800000106222:	48 8b 85 d0 fe ff ff 	mov    -0x130(%rbp),%rax
ffff800000106229:	0f b6 00             	movzbl (%rax),%eax
ffff80000010622c:	3c 08                	cmp    $0x8,%al
ffff80000010622e:	75 19                	jne    ffff800000106249 <printf_color+0x880>
ffff800000106230:	bf ff ff ff ff       	mov    $0xffffffff,%edi
ffff800000106235:	49 89 df             	mov    %rbx,%r15
ffff800000106238:	48 b8 e4 b0 ff ff ff 	movabs $0xffffffffffffb0e4,%rax
ffff80000010623f:	ff ff ff 
ffff800000106242:	48 01 d8             	add    %rbx,%rax
ffff800000106245:	ff d0                	callq  *%rax
ffff800000106247:	eb 2d                	jmp    ffff800000106276 <printf_color+0x8ad>
ffff800000106249:	48 8b 85 d0 fe ff ff 	mov    -0x130(%rbp),%rax
ffff800000106250:	0f b6 00             	movzbl (%rax),%eax
ffff800000106253:	0f be c0             	movsbl %al,%eax
ffff800000106256:	8b 95 d8 fe ff ff    	mov    -0x128(%rbp),%edx
ffff80000010625c:	8b 8d dc fe ff ff    	mov    -0x124(%rbp),%ecx
ffff800000106262:	89 ce                	mov    %ecx,%esi
ffff800000106264:	89 c7                	mov    %eax,%edi
ffff800000106266:	48 b8 11 81 ff ff ff 	movabs $0xffffffffffff8111,%rax
ffff80000010626d:	ff ff ff 
ffff800000106270:	48 8d 04 03          	lea    (%rbx,%rax,1),%rax
ffff800000106274:	ff d0                	callq  *%rax
ffff800000106276:	48 83 85 d0 fe ff ff 	addq   $0x1,-0x130(%rbp)
ffff80000010627d:	01 
ffff80000010627e:	48 8b 85 d0 fe ff ff 	mov    -0x130(%rbp),%rax
ffff800000106285:	0f b6 00             	movzbl (%rax),%eax
ffff800000106288:	84 c0                	test   %al,%al
ffff80000010628a:	0f 85 dc f7 ff ff    	jne    ffff800000105a6c <printf_color+0xa3>
ffff800000106290:	90                   	nop
ffff800000106291:	48 81 c4 20 01 00 00 	add    $0x120,%rsp
ffff800000106298:	5b                   	pop    %rbx
ffff800000106299:	41 5f                	pop    %r15
ffff80000010629b:	5d                   	pop    %rbp
ffff80000010629c:	c3                   	retq   

ffff80000010629d <printf>:
ffff80000010629d:	55                   	push   %rbp
ffff80000010629e:	48 89 e5             	mov    %rsp,%rbp
ffff8000001062a1:	41 57                	push   %r15
ffff8000001062a3:	53                   	push   %rbx
ffff8000001062a4:	48 81 ec 20 01 00 00 	sub    $0x120,%rsp
ffff8000001062ab:	48 8d 1d f9 ff ff ff 	lea    -0x7(%rip),%rbx        # ffff8000001062ab <printf+0xe>
ffff8000001062b2:	49 bb 0d 74 00 00 00 	movabs $0x740d,%r11
ffff8000001062b9:	00 00 00 
ffff8000001062bc:	4c 01 db             	add    %r11,%rbx
ffff8000001062bf:	48 89 bd d8 fe ff ff 	mov    %rdi,-0x128(%rbp)
ffff8000001062c6:	48 89 b5 48 ff ff ff 	mov    %rsi,-0xb8(%rbp)
ffff8000001062cd:	48 89 95 50 ff ff ff 	mov    %rdx,-0xb0(%rbp)
ffff8000001062d4:	48 89 8d 58 ff ff ff 	mov    %rcx,-0xa8(%rbp)
ffff8000001062db:	4c 89 85 60 ff ff ff 	mov    %r8,-0xa0(%rbp)
ffff8000001062e2:	4c 89 8d 68 ff ff ff 	mov    %r9,-0x98(%rbp)
ffff8000001062e9:	84 c0                	test   %al,%al
ffff8000001062eb:	74 23                	je     ffff800000106310 <printf+0x73>
ffff8000001062ed:	0f 29 85 70 ff ff ff 	movaps %xmm0,-0x90(%rbp)
ffff8000001062f4:	0f 29 4d 80          	movaps %xmm1,-0x80(%rbp)
ffff8000001062f8:	0f 29 55 90          	movaps %xmm2,-0x70(%rbp)
ffff8000001062fc:	0f 29 5d a0          	movaps %xmm3,-0x60(%rbp)
ffff800000106300:	0f 29 65 b0          	movaps %xmm4,-0x50(%rbp)
ffff800000106304:	0f 29 6d c0          	movaps %xmm5,-0x40(%rbp)
ffff800000106308:	0f 29 75 d0          	movaps %xmm6,-0x30(%rbp)
ffff80000010630c:	0f 29 7d e0          	movaps %xmm7,-0x20(%rbp)
ffff800000106310:	c7 85 18 ff ff ff 08 	movl   $0x8,-0xe8(%rbp)
ffff800000106317:	00 00 00 
ffff80000010631a:	c7 85 1c ff ff ff 30 	movl   $0x30,-0xe4(%rbp)
ffff800000106321:	00 00 00 
ffff800000106324:	48 8d 45 10          	lea    0x10(%rbp),%rax
ffff800000106328:	48 89 85 20 ff ff ff 	mov    %rax,-0xe0(%rbp)
ffff80000010632f:	48 8d 85 40 ff ff ff 	lea    -0xc0(%rbp),%rax
ffff800000106336:	48 89 85 28 ff ff ff 	mov    %rax,-0xd8(%rbp)
ffff80000010633d:	e9 5a 07 00 00       	jmpq   ffff800000106a9c <printf+0x7ff>
ffff800000106342:	48 8b 85 d8 fe ff ff 	mov    -0x128(%rbp),%rax
ffff800000106349:	0f b6 00             	movzbl (%rax),%eax
ffff80000010634c:	3c 25                	cmp    $0x25,%al
ffff80000010634e:	0f 85 cc 05 00 00    	jne    ffff800000106920 <printf+0x683>
ffff800000106354:	48 83 85 d8 fe ff ff 	addq   $0x1,-0x128(%rbp)
ffff80000010635b:	01 
ffff80000010635c:	c7 85 38 ff ff ff 00 	movl   $0x0,-0xc8(%rbp)
ffff800000106363:	00 00 00 
ffff800000106366:	8b 85 38 ff ff ff    	mov    -0xc8(%rbp),%eax
ffff80000010636c:	89 85 3c ff ff ff    	mov    %eax,-0xc4(%rbp)
ffff800000106372:	48 8b 85 d8 fe ff ff 	mov    -0x128(%rbp),%rax
ffff800000106379:	0f b6 00             	movzbl (%rax),%eax
ffff80000010637c:	3c 39                	cmp    $0x39,%al
ffff80000010637e:	0f 8f 81 00 00 00    	jg     ffff800000106405 <printf+0x168>
ffff800000106384:	48 8b 85 d8 fe ff ff 	mov    -0x128(%rbp),%rax
ffff80000010638b:	0f b6 00             	movzbl (%rax),%eax
ffff80000010638e:	3c 2f                	cmp    $0x2f,%al
ffff800000106390:	7e 73                	jle    ffff800000106405 <printf+0x168>
ffff800000106392:	48 8b 85 d8 fe ff ff 	mov    -0x128(%rbp),%rax
ffff800000106399:	0f b6 00             	movzbl (%rax),%eax
ffff80000010639c:	3c 30                	cmp    $0x30,%al
ffff80000010639e:	0f 94 c0             	sete   %al
ffff8000001063a1:	0f b6 c0             	movzbl %al,%eax
ffff8000001063a4:	89 85 3c ff ff ff    	mov    %eax,-0xc4(%rbp)
ffff8000001063aa:	c7 85 38 ff ff ff 00 	movl   $0x0,-0xc8(%rbp)
ffff8000001063b1:	00 00 00 
ffff8000001063b4:	eb 33                	jmp    ffff8000001063e9 <printf+0x14c>
ffff8000001063b6:	8b 95 38 ff ff ff    	mov    -0xc8(%rbp),%edx
ffff8000001063bc:	89 d0                	mov    %edx,%eax
ffff8000001063be:	c1 e0 02             	shl    $0x2,%eax
ffff8000001063c1:	01 d0                	add    %edx,%eax
ffff8000001063c3:	01 c0                	add    %eax,%eax
ffff8000001063c5:	89 85 38 ff ff ff    	mov    %eax,-0xc8(%rbp)
ffff8000001063cb:	48 8b 85 d8 fe ff ff 	mov    -0x128(%rbp),%rax
ffff8000001063d2:	0f b6 00             	movzbl (%rax),%eax
ffff8000001063d5:	0f be c0             	movsbl %al,%eax
ffff8000001063d8:	83 e8 30             	sub    $0x30,%eax
ffff8000001063db:	01 85 38 ff ff ff    	add    %eax,-0xc8(%rbp)
ffff8000001063e1:	48 83 85 d8 fe ff ff 	addq   $0x1,-0x128(%rbp)
ffff8000001063e8:	01 
ffff8000001063e9:	48 8b 85 d8 fe ff ff 	mov    -0x128(%rbp),%rax
ffff8000001063f0:	0f b6 00             	movzbl (%rax),%eax
ffff8000001063f3:	3c 39                	cmp    $0x39,%al
ffff8000001063f5:	7f 0e                	jg     ffff800000106405 <printf+0x168>
ffff8000001063f7:	48 8b 85 d8 fe ff ff 	mov    -0x128(%rbp),%rax
ffff8000001063fe:	0f b6 00             	movzbl (%rax),%eax
ffff800000106401:	84 c0                	test   %al,%al
ffff800000106403:	79 b1                	jns    ffff8000001063b6 <printf+0x119>
ffff800000106405:	48 8b 85 d8 fe ff ff 	mov    -0x128(%rbp),%rax
ffff80000010640c:	0f b6 00             	movzbl (%rax),%eax
ffff80000010640f:	3c 64                	cmp    $0x64,%al
ffff800000106411:	75 67                	jne    ffff80000010647a <printf+0x1dd>
ffff800000106413:	8b 85 18 ff ff ff    	mov    -0xe8(%rbp),%eax
ffff800000106419:	83 f8 2f             	cmp    $0x2f,%eax
ffff80000010641c:	77 23                	ja     ffff800000106441 <printf+0x1a4>
ffff80000010641e:	48 8b 85 28 ff ff ff 	mov    -0xd8(%rbp),%rax
ffff800000106425:	8b 95 18 ff ff ff    	mov    -0xe8(%rbp),%edx
ffff80000010642b:	89 d2                	mov    %edx,%edx
ffff80000010642d:	48 01 d0             	add    %rdx,%rax
ffff800000106430:	8b 95 18 ff ff ff    	mov    -0xe8(%rbp),%edx
ffff800000106436:	83 c2 08             	add    $0x8,%edx
ffff800000106439:	89 95 18 ff ff ff    	mov    %edx,-0xe8(%rbp)
ffff80000010643f:	eb 12                	jmp    ffff800000106453 <printf+0x1b6>
ffff800000106441:	48 8b 85 20 ff ff ff 	mov    -0xe0(%rbp),%rax
ffff800000106448:	48 8d 50 08          	lea    0x8(%rax),%rdx
ffff80000010644c:	48 89 95 20 ff ff ff 	mov    %rdx,-0xe0(%rbp)
ffff800000106453:	8b 00                	mov    (%rax),%eax
ffff800000106455:	8b 95 3c ff ff ff    	mov    -0xc4(%rbp),%edx
ffff80000010645b:	8b 8d 38 ff ff ff    	mov    -0xc8(%rbp),%ecx
ffff800000106461:	89 ce                	mov    %ecx,%esi
ffff800000106463:	89 c7                	mov    %eax,%edi
ffff800000106465:	48 b8 af 95 ff ff ff 	movabs $0xffffffffffff95af,%rax
ffff80000010646c:	ff ff ff 
ffff80000010646f:	48 8d 04 03          	lea    (%rbx,%rax,1),%rax
ffff800000106473:	ff d0                	callq  *%rax
ffff800000106475:	e9 1a 06 00 00       	jmpq   ffff800000106a94 <printf+0x7f7>
ffff80000010647a:	48 8b 85 d8 fe ff ff 	mov    -0x128(%rbp),%rax
ffff800000106481:	0f b6 00             	movzbl (%rax),%eax
ffff800000106484:	3c 63                	cmp    $0x63,%al
ffff800000106486:	75 5c                	jne    ffff8000001064e4 <printf+0x247>
ffff800000106488:	8b 85 18 ff ff ff    	mov    -0xe8(%rbp),%eax
ffff80000010648e:	83 f8 2f             	cmp    $0x2f,%eax
ffff800000106491:	77 23                	ja     ffff8000001064b6 <printf+0x219>
ffff800000106493:	48 8b 85 28 ff ff ff 	mov    -0xd8(%rbp),%rax
ffff80000010649a:	8b 95 18 ff ff ff    	mov    -0xe8(%rbp),%edx
ffff8000001064a0:	89 d2                	mov    %edx,%edx
ffff8000001064a2:	48 01 d0             	add    %rdx,%rax
ffff8000001064a5:	8b 95 18 ff ff ff    	mov    -0xe8(%rbp),%edx
ffff8000001064ab:	83 c2 08             	add    $0x8,%edx
ffff8000001064ae:	89 95 18 ff ff ff    	mov    %edx,-0xe8(%rbp)
ffff8000001064b4:	eb 12                	jmp    ffff8000001064c8 <printf+0x22b>
ffff8000001064b6:	48 8b 85 20 ff ff ff 	mov    -0xe0(%rbp),%rax
ffff8000001064bd:	48 8d 50 08          	lea    0x8(%rax),%rdx
ffff8000001064c1:	48 89 95 20 ff ff ff 	mov    %rdx,-0xe0(%rbp)
ffff8000001064c8:	8b 00                	mov    (%rax),%eax
ffff8000001064ca:	0f be c0             	movsbl %al,%eax
ffff8000001064cd:	89 c7                	mov    %eax,%edi
ffff8000001064cf:	48 b8 cd 80 ff ff ff 	movabs $0xffffffffffff80cd,%rax
ffff8000001064d6:	ff ff ff 
ffff8000001064d9:	48 8d 04 03          	lea    (%rbx,%rax,1),%rax
ffff8000001064dd:	ff d0                	callq  *%rax
ffff8000001064df:	e9 b0 05 00 00       	jmpq   ffff800000106a94 <printf+0x7f7>
ffff8000001064e4:	48 8b 85 d8 fe ff ff 	mov    -0x128(%rbp),%rax
ffff8000001064eb:	0f b6 00             	movzbl (%rax),%eax
ffff8000001064ee:	3c 73                	cmp    $0x73,%al
ffff8000001064f0:	75 5b                	jne    ffff80000010654d <printf+0x2b0>
ffff8000001064f2:	8b 85 18 ff ff ff    	mov    -0xe8(%rbp),%eax
ffff8000001064f8:	83 f8 2f             	cmp    $0x2f,%eax
ffff8000001064fb:	77 23                	ja     ffff800000106520 <printf+0x283>
ffff8000001064fd:	48 8b 85 28 ff ff ff 	mov    -0xd8(%rbp),%rax
ffff800000106504:	8b 95 18 ff ff ff    	mov    -0xe8(%rbp),%edx
ffff80000010650a:	89 d2                	mov    %edx,%edx
ffff80000010650c:	48 01 d0             	add    %rdx,%rax
ffff80000010650f:	8b 95 18 ff ff ff    	mov    -0xe8(%rbp),%edx
ffff800000106515:	83 c2 08             	add    $0x8,%edx
ffff800000106518:	89 95 18 ff ff ff    	mov    %edx,-0xe8(%rbp)
ffff80000010651e:	eb 12                	jmp    ffff800000106532 <printf+0x295>
ffff800000106520:	48 8b 85 20 ff ff ff 	mov    -0xe0(%rbp),%rax
ffff800000106527:	48 8d 50 08          	lea    0x8(%rax),%rdx
ffff80000010652b:	48 89 95 20 ff ff ff 	mov    %rdx,-0xe0(%rbp)
ffff800000106532:	48 8b 00             	mov    (%rax),%rax
ffff800000106535:	48 89 c7             	mov    %rax,%rdi
ffff800000106538:	48 b8 cd 82 ff ff ff 	movabs $0xffffffffffff82cd,%rax
ffff80000010653f:	ff ff ff 
ffff800000106542:	48 8d 04 03          	lea    (%rbx,%rax,1),%rax
ffff800000106546:	ff d0                	callq  *%rax
ffff800000106548:	e9 47 05 00 00       	jmpq   ffff800000106a94 <printf+0x7f7>
ffff80000010654d:	48 8b 85 d8 fe ff ff 	mov    -0x128(%rbp),%rax
ffff800000106554:	0f b6 00             	movzbl (%rax),%eax
ffff800000106557:	3c 78                	cmp    $0x78,%al
ffff800000106559:	75 6c                	jne    ffff8000001065c7 <printf+0x32a>
ffff80000010655b:	8b 85 18 ff ff ff    	mov    -0xe8(%rbp),%eax
ffff800000106561:	83 f8 2f             	cmp    $0x2f,%eax
ffff800000106564:	77 23                	ja     ffff800000106589 <printf+0x2ec>
ffff800000106566:	48 8b 85 28 ff ff ff 	mov    -0xd8(%rbp),%rax
ffff80000010656d:	8b 95 18 ff ff ff    	mov    -0xe8(%rbp),%edx
ffff800000106573:	89 d2                	mov    %edx,%edx
ffff800000106575:	48 01 d0             	add    %rdx,%rax
ffff800000106578:	8b 95 18 ff ff ff    	mov    -0xe8(%rbp),%edx
ffff80000010657e:	83 c2 08             	add    $0x8,%edx
ffff800000106581:	89 95 18 ff ff ff    	mov    %edx,-0xe8(%rbp)
ffff800000106587:	eb 12                	jmp    ffff80000010659b <printf+0x2fe>
ffff800000106589:	48 8b 85 20 ff ff ff 	mov    -0xe0(%rbp),%rax
ffff800000106590:	48 8d 50 08          	lea    0x8(%rax),%rdx
ffff800000106594:	48 89 95 20 ff ff ff 	mov    %rdx,-0xe0(%rbp)
ffff80000010659b:	48 8b 00             	mov    (%rax),%rax
ffff80000010659e:	8b 8d 3c ff ff ff    	mov    -0xc4(%rbp),%ecx
ffff8000001065a4:	8b 95 38 ff ff ff    	mov    -0xc8(%rbp),%edx
ffff8000001065aa:	be 00 00 00 00       	mov    $0x0,%esi
ffff8000001065af:	48 89 c7             	mov    %rax,%rdi
ffff8000001065b2:	48 b8 cb 9a ff ff ff 	movabs $0xffffffffffff9acb,%rax
ffff8000001065b9:	ff ff ff 
ffff8000001065bc:	48 8d 04 03          	lea    (%rbx,%rax,1),%rax
ffff8000001065c0:	ff d0                	callq  *%rax
ffff8000001065c2:	e9 cd 04 00 00       	jmpq   ffff800000106a94 <printf+0x7f7>
ffff8000001065c7:	48 8b 85 d8 fe ff ff 	mov    -0x128(%rbp),%rax
ffff8000001065ce:	0f b6 00             	movzbl (%rax),%eax
ffff8000001065d1:	3c 58                	cmp    $0x58,%al
ffff8000001065d3:	75 6c                	jne    ffff800000106641 <printf+0x3a4>
ffff8000001065d5:	8b 85 18 ff ff ff    	mov    -0xe8(%rbp),%eax
ffff8000001065db:	83 f8 2f             	cmp    $0x2f,%eax
ffff8000001065de:	77 23                	ja     ffff800000106603 <printf+0x366>
ffff8000001065e0:	48 8b 85 28 ff ff ff 	mov    -0xd8(%rbp),%rax
ffff8000001065e7:	8b 95 18 ff ff ff    	mov    -0xe8(%rbp),%edx
ffff8000001065ed:	89 d2                	mov    %edx,%edx
ffff8000001065ef:	48 01 d0             	add    %rdx,%rax
ffff8000001065f2:	8b 95 18 ff ff ff    	mov    -0xe8(%rbp),%edx
ffff8000001065f8:	83 c2 08             	add    $0x8,%edx
ffff8000001065fb:	89 95 18 ff ff ff    	mov    %edx,-0xe8(%rbp)
ffff800000106601:	eb 12                	jmp    ffff800000106615 <printf+0x378>
ffff800000106603:	48 8b 85 20 ff ff ff 	mov    -0xe0(%rbp),%rax
ffff80000010660a:	48 8d 50 08          	lea    0x8(%rax),%rdx
ffff80000010660e:	48 89 95 20 ff ff ff 	mov    %rdx,-0xe0(%rbp)
ffff800000106615:	48 8b 00             	mov    (%rax),%rax
ffff800000106618:	8b 8d 3c ff ff ff    	mov    -0xc4(%rbp),%ecx
ffff80000010661e:	8b 95 38 ff ff ff    	mov    -0xc8(%rbp),%edx
ffff800000106624:	be 01 00 00 00       	mov    $0x1,%esi
ffff800000106629:	48 89 c7             	mov    %rax,%rdi
ffff80000010662c:	48 b8 cb 9a ff ff ff 	movabs $0xffffffffffff9acb,%rax
ffff800000106633:	ff ff ff 
ffff800000106636:	48 8d 04 03          	lea    (%rbx,%rax,1),%rax
ffff80000010663a:	ff d0                	callq  *%rax
ffff80000010663c:	e9 53 04 00 00       	jmpq   ffff800000106a94 <printf+0x7f7>
ffff800000106641:	48 8b 85 d8 fe ff ff 	mov    -0x128(%rbp),%rax
ffff800000106648:	0f b6 00             	movzbl (%rax),%eax
ffff80000010664b:	3c 6c                	cmp    $0x6c,%al
ffff80000010664d:	0f 85 83 00 00 00    	jne    ffff8000001066d6 <printf+0x439>
ffff800000106653:	48 8b 85 d8 fe ff ff 	mov    -0x128(%rbp),%rax
ffff80000010665a:	48 83 c0 01          	add    $0x1,%rax
ffff80000010665e:	0f b6 00             	movzbl (%rax),%eax
ffff800000106661:	3c 64                	cmp    $0x64,%al
ffff800000106663:	75 71                	jne    ffff8000001066d6 <printf+0x439>
ffff800000106665:	48 83 85 d8 fe ff ff 	addq   $0x1,-0x128(%rbp)
ffff80000010666c:	01 
ffff80000010666d:	8b 85 18 ff ff ff    	mov    -0xe8(%rbp),%eax
ffff800000106673:	83 f8 2f             	cmp    $0x2f,%eax
ffff800000106676:	77 23                	ja     ffff80000010669b <printf+0x3fe>
ffff800000106678:	48 8b 85 28 ff ff ff 	mov    -0xd8(%rbp),%rax
ffff80000010667f:	8b 95 18 ff ff ff    	mov    -0xe8(%rbp),%edx
ffff800000106685:	89 d2                	mov    %edx,%edx
ffff800000106687:	48 01 d0             	add    %rdx,%rax
ffff80000010668a:	8b 95 18 ff ff ff    	mov    -0xe8(%rbp),%edx
ffff800000106690:	83 c2 08             	add    $0x8,%edx
ffff800000106693:	89 95 18 ff ff ff    	mov    %edx,-0xe8(%rbp)
ffff800000106699:	eb 12                	jmp    ffff8000001066ad <printf+0x410>
ffff80000010669b:	48 8b 85 20 ff ff ff 	mov    -0xe0(%rbp),%rax
ffff8000001066a2:	48 8d 50 08          	lea    0x8(%rax),%rdx
ffff8000001066a6:	48 89 95 20 ff ff ff 	mov    %rdx,-0xe0(%rbp)
ffff8000001066ad:	48 8b 00             	mov    (%rax),%rax
ffff8000001066b0:	8b 95 3c ff ff ff    	mov    -0xc4(%rbp),%edx
ffff8000001066b6:	8b 8d 38 ff ff ff    	mov    -0xc8(%rbp),%ecx
ffff8000001066bc:	89 ce                	mov    %ecx,%esi
ffff8000001066be:	48 89 c7             	mov    %rax,%rdi
ffff8000001066c1:	48 b8 ec 97 ff ff ff 	movabs $0xffffffffffff97ec,%rax
ffff8000001066c8:	ff ff ff 
ffff8000001066cb:	48 8d 04 03          	lea    (%rbx,%rax,1),%rax
ffff8000001066cf:	ff d0                	callq  *%rax
ffff8000001066d1:	e9 be 03 00 00       	jmpq   ffff800000106a94 <printf+0x7f7>
ffff8000001066d6:	48 8b 85 d8 fe ff ff 	mov    -0x128(%rbp),%rax
ffff8000001066dd:	0f b6 00             	movzbl (%rax),%eax
ffff8000001066e0:	3c 75                	cmp    $0x75,%al
ffff8000001066e2:	0f 85 14 02 00 00    	jne    ffff8000001068fc <printf+0x65f>
ffff8000001066e8:	48 83 85 d8 fe ff ff 	addq   $0x1,-0x128(%rbp)
ffff8000001066ef:	01 
ffff8000001066f0:	48 8b 85 d8 fe ff ff 	mov    -0x128(%rbp),%rax
ffff8000001066f7:	0f b6 00             	movzbl (%rax),%eax
ffff8000001066fa:	3c 64                	cmp    $0x64,%al
ffff8000001066fc:	75 69                	jne    ffff800000106767 <printf+0x4ca>
ffff8000001066fe:	8b 85 18 ff ff ff    	mov    -0xe8(%rbp),%eax
ffff800000106704:	83 f8 2f             	cmp    $0x2f,%eax
ffff800000106707:	77 23                	ja     ffff80000010672c <printf+0x48f>
ffff800000106709:	48 8b 85 28 ff ff ff 	mov    -0xd8(%rbp),%rax
ffff800000106710:	8b 95 18 ff ff ff    	mov    -0xe8(%rbp),%edx
ffff800000106716:	89 d2                	mov    %edx,%edx
ffff800000106718:	48 01 d0             	add    %rdx,%rax
ffff80000010671b:	8b 95 18 ff ff ff    	mov    -0xe8(%rbp),%edx
ffff800000106721:	83 c2 08             	add    $0x8,%edx
ffff800000106724:	89 95 18 ff ff ff    	mov    %edx,-0xe8(%rbp)
ffff80000010672a:	eb 12                	jmp    ffff80000010673e <printf+0x4a1>
ffff80000010672c:	48 8b 85 20 ff ff ff 	mov    -0xe0(%rbp),%rax
ffff800000106733:	48 8d 50 08          	lea    0x8(%rax),%rdx
ffff800000106737:	48 89 95 20 ff ff ff 	mov    %rdx,-0xe0(%rbp)
ffff80000010673e:	8b 00                	mov    (%rax),%eax
ffff800000106740:	89 c1                	mov    %eax,%ecx
ffff800000106742:	8b 95 3c ff ff ff    	mov    -0xc4(%rbp),%edx
ffff800000106748:	8b 85 38 ff ff ff    	mov    -0xc8(%rbp),%eax
ffff80000010674e:	89 c6                	mov    %eax,%esi
ffff800000106750:	89 cf                	mov    %ecx,%edi
ffff800000106752:	48 b8 86 9c ff ff ff 	movabs $0xffffffffffff9c86,%rax
ffff800000106759:	ff ff ff 
ffff80000010675c:	48 8d 04 03          	lea    (%rbx,%rax,1),%rax
ffff800000106760:	ff d0                	callq  *%rax
ffff800000106762:	e9 2d 03 00 00       	jmpq   ffff800000106a94 <printf+0x7f7>
ffff800000106767:	48 8b 85 d8 fe ff ff 	mov    -0x128(%rbp),%rax
ffff80000010676e:	0f b6 00             	movzbl (%rax),%eax
ffff800000106771:	3c 78                	cmp    $0x78,%al
ffff800000106773:	75 70                	jne    ffff8000001067e5 <printf+0x548>
ffff800000106775:	8b 85 18 ff ff ff    	mov    -0xe8(%rbp),%eax
ffff80000010677b:	83 f8 2f             	cmp    $0x2f,%eax
ffff80000010677e:	77 23                	ja     ffff8000001067a3 <printf+0x506>
ffff800000106780:	48 8b 85 28 ff ff ff 	mov    -0xd8(%rbp),%rax
ffff800000106787:	8b 95 18 ff ff ff    	mov    -0xe8(%rbp),%edx
ffff80000010678d:	89 d2                	mov    %edx,%edx
ffff80000010678f:	48 01 d0             	add    %rdx,%rax
ffff800000106792:	8b 95 18 ff ff ff    	mov    -0xe8(%rbp),%edx
ffff800000106798:	83 c2 08             	add    $0x8,%edx
ffff80000010679b:	89 95 18 ff ff ff    	mov    %edx,-0xe8(%rbp)
ffff8000001067a1:	eb 12                	jmp    ffff8000001067b5 <printf+0x518>
ffff8000001067a3:	48 8b 85 20 ff ff ff 	mov    -0xe0(%rbp),%rax
ffff8000001067aa:	48 8d 50 08          	lea    0x8(%rax),%rdx
ffff8000001067ae:	48 89 95 20 ff ff ff 	mov    %rdx,-0xe0(%rbp)
ffff8000001067b5:	48 8b 00             	mov    (%rax),%rax
ffff8000001067b8:	48 89 c7             	mov    %rax,%rdi
ffff8000001067bb:	8b 95 3c ff ff ff    	mov    -0xc4(%rbp),%edx
ffff8000001067c1:	8b 85 38 ff ff ff    	mov    -0xc8(%rbp),%eax
ffff8000001067c7:	89 d1                	mov    %edx,%ecx
ffff8000001067c9:	89 c2                	mov    %eax,%edx
ffff8000001067cb:	be 00 00 00 00       	mov    $0x0,%esi
ffff8000001067d0:	48 b8 72 a0 ff ff ff 	movabs $0xffffffffffffa072,%rax
ffff8000001067d7:	ff ff ff 
ffff8000001067da:	48 8d 04 03          	lea    (%rbx,%rax,1),%rax
ffff8000001067de:	ff d0                	callq  *%rax
ffff8000001067e0:	e9 af 02 00 00       	jmpq   ffff800000106a94 <printf+0x7f7>
ffff8000001067e5:	48 8b 85 d8 fe ff ff 	mov    -0x128(%rbp),%rax
ffff8000001067ec:	0f b6 00             	movzbl (%rax),%eax
ffff8000001067ef:	3c 58                	cmp    $0x58,%al
ffff8000001067f1:	75 70                	jne    ffff800000106863 <printf+0x5c6>
ffff8000001067f3:	8b 85 18 ff ff ff    	mov    -0xe8(%rbp),%eax
ffff8000001067f9:	83 f8 2f             	cmp    $0x2f,%eax
ffff8000001067fc:	77 23                	ja     ffff800000106821 <printf+0x584>
ffff8000001067fe:	48 8b 85 28 ff ff ff 	mov    -0xd8(%rbp),%rax
ffff800000106805:	8b 95 18 ff ff ff    	mov    -0xe8(%rbp),%edx
ffff80000010680b:	89 d2                	mov    %edx,%edx
ffff80000010680d:	48 01 d0             	add    %rdx,%rax
ffff800000106810:	8b 95 18 ff ff ff    	mov    -0xe8(%rbp),%edx
ffff800000106816:	83 c2 08             	add    $0x8,%edx
ffff800000106819:	89 95 18 ff ff ff    	mov    %edx,-0xe8(%rbp)
ffff80000010681f:	eb 12                	jmp    ffff800000106833 <printf+0x596>
ffff800000106821:	48 8b 85 20 ff ff ff 	mov    -0xe0(%rbp),%rax
ffff800000106828:	48 8d 50 08          	lea    0x8(%rax),%rdx
ffff80000010682c:	48 89 95 20 ff ff ff 	mov    %rdx,-0xe0(%rbp)
ffff800000106833:	48 8b 00             	mov    (%rax),%rax
ffff800000106836:	48 89 c7             	mov    %rax,%rdi
ffff800000106839:	8b 95 3c ff ff ff    	mov    -0xc4(%rbp),%edx
ffff80000010683f:	8b 85 38 ff ff ff    	mov    -0xc8(%rbp),%eax
ffff800000106845:	89 d1                	mov    %edx,%ecx
ffff800000106847:	89 c2                	mov    %eax,%edx
ffff800000106849:	be 01 00 00 00       	mov    $0x1,%esi
ffff80000010684e:	48 b8 72 a0 ff ff ff 	movabs $0xffffffffffffa072,%rax
ffff800000106855:	ff ff ff 
ffff800000106858:	48 8d 04 03          	lea    (%rbx,%rax,1),%rax
ffff80000010685c:	ff d0                	callq  *%rax
ffff80000010685e:	e9 31 02 00 00       	jmpq   ffff800000106a94 <printf+0x7f7>
ffff800000106863:	48 8b 85 d8 fe ff ff 	mov    -0x128(%rbp),%rax
ffff80000010686a:	0f b6 00             	movzbl (%rax),%eax
ffff80000010686d:	3c 6c                	cmp    $0x6c,%al
ffff80000010686f:	0f 85 1f 02 00 00    	jne    ffff800000106a94 <printf+0x7f7>
ffff800000106875:	48 8b 85 d8 fe ff ff 	mov    -0x128(%rbp),%rax
ffff80000010687c:	48 83 c0 01          	add    $0x1,%rax
ffff800000106880:	0f b6 00             	movzbl (%rax),%eax
ffff800000106883:	3c 64                	cmp    $0x64,%al
ffff800000106885:	0f 85 09 02 00 00    	jne    ffff800000106a94 <printf+0x7f7>
ffff80000010688b:	48 83 85 d8 fe ff ff 	addq   $0x1,-0x128(%rbp)
ffff800000106892:	01 
ffff800000106893:	8b 85 18 ff ff ff    	mov    -0xe8(%rbp),%eax
ffff800000106899:	83 f8 2f             	cmp    $0x2f,%eax
ffff80000010689c:	77 23                	ja     ffff8000001068c1 <printf+0x624>
ffff80000010689e:	48 8b 85 28 ff ff ff 	mov    -0xd8(%rbp),%rax
ffff8000001068a5:	8b 95 18 ff ff ff    	mov    -0xe8(%rbp),%edx
ffff8000001068ab:	89 d2                	mov    %edx,%edx
ffff8000001068ad:	48 01 d0             	add    %rdx,%rax
ffff8000001068b0:	8b 95 18 ff ff ff    	mov    -0xe8(%rbp),%edx
ffff8000001068b6:	83 c2 08             	add    $0x8,%edx
ffff8000001068b9:	89 95 18 ff ff ff    	mov    %edx,-0xe8(%rbp)
ffff8000001068bf:	eb 12                	jmp    ffff8000001068d3 <printf+0x636>
ffff8000001068c1:	48 8b 85 20 ff ff ff 	mov    -0xe0(%rbp),%rax
ffff8000001068c8:	48 8d 50 08          	lea    0x8(%rax),%rdx
ffff8000001068cc:	48 89 95 20 ff ff ff 	mov    %rdx,-0xe0(%rbp)
ffff8000001068d3:	48 8b 00             	mov    (%rax),%rax
ffff8000001068d6:	8b 95 3c ff ff ff    	mov    -0xc4(%rbp),%edx
ffff8000001068dc:	8b 8d 38 ff ff ff    	mov    -0xc8(%rbp),%ecx
ffff8000001068e2:	89 ce                	mov    %ecx,%esi
ffff8000001068e4:	48 89 c7             	mov    %rax,%rdi
ffff8000001068e7:	48 b8 ec 97 ff ff ff 	movabs $0xffffffffffff97ec,%rax
ffff8000001068ee:	ff ff ff 
ffff8000001068f1:	48 8d 04 03          	lea    (%rbx,%rax,1),%rax
ffff8000001068f5:	ff d0                	callq  *%rax
ffff8000001068f7:	e9 98 01 00 00       	jmpq   ffff800000106a94 <printf+0x7f7>
ffff8000001068fc:	48 8b 85 d8 fe ff ff 	mov    -0x128(%rbp),%rax
ffff800000106903:	0f b6 00             	movzbl (%rax),%eax
ffff800000106906:	0f be c0             	movsbl %al,%eax
ffff800000106909:	89 c7                	mov    %eax,%edi
ffff80000010690b:	48 b8 cd 80 ff ff ff 	movabs $0xffffffffffff80cd,%rax
ffff800000106912:	ff ff ff 
ffff800000106915:	48 8d 04 03          	lea    (%rbx,%rax,1),%rax
ffff800000106919:	ff d0                	callq  *%rax
ffff80000010691b:	e9 74 01 00 00       	jmpq   ffff800000106a94 <printf+0x7f7>
ffff800000106920:	48 8b 85 d8 fe ff ff 	mov    -0x128(%rbp),%rax
ffff800000106927:	0f b6 00             	movzbl (%rax),%eax
ffff80000010692a:	3c 0a                	cmp    $0xa,%al
ffff80000010692c:	75 70                	jne    ffff80000010699e <printf+0x701>
ffff80000010692e:	48 b8 28 04 00 00 00 	movabs $0x428,%rax
ffff800000106935:	00 00 00 
ffff800000106938:	8b 54 03 0c          	mov    0xc(%rbx,%rax,1),%edx
ffff80000010693c:	48 b8 28 04 00 00 00 	movabs $0x428,%rax
ffff800000106943:	00 00 00 
ffff800000106946:	8b 44 03 14          	mov    0x14(%rbx,%rax,1),%eax
ffff80000010694a:	01 c2                	add    %eax,%edx
ffff80000010694c:	48 b8 28 04 00 00 00 	movabs $0x428,%rax
ffff800000106953:	00 00 00 
ffff800000106956:	89 54 03 0c          	mov    %edx,0xc(%rbx,%rax,1)
ffff80000010695a:	48 b8 28 04 00 00 00 	movabs $0x428,%rax
ffff800000106961:	00 00 00 
ffff800000106964:	c7 44 03 08 00 00 00 	movl   $0x0,0x8(%rbx,%rax,1)
ffff80000010696b:	00 
ffff80000010696c:	48 b8 28 04 00 00 00 	movabs $0x428,%rax
ffff800000106973:	00 00 00 
ffff800000106976:	8b 44 03 0c          	mov    0xc(%rbx,%rax,1),%eax
ffff80000010697a:	48 ba 28 04 00 00 00 	movabs $0x428,%rdx
ffff800000106981:	00 00 00 
ffff800000106984:	8b 4c 13 04          	mov    0x4(%rbx,%rdx,1),%ecx
ffff800000106988:	99                   	cltd   
ffff800000106989:	f7 f9                	idiv   %ecx
ffff80000010698b:	48 b8 28 04 00 00 00 	movabs $0x428,%rax
ffff800000106992:	00 00 00 
ffff800000106995:	89 54 03 0c          	mov    %edx,0xc(%rbx,%rax,1)
ffff800000106999:	e9 f6 00 00 00       	jmpq   ffff800000106a94 <printf+0x7f7>
ffff80000010699e:	48 8b 85 d8 fe ff ff 	mov    -0x128(%rbp),%rax
ffff8000001069a5:	0f b6 00             	movzbl (%rax),%eax
ffff8000001069a8:	3c 09                	cmp    $0x9,%al
ffff8000001069aa:	0f 85 9e 00 00 00    	jne    ffff800000106a4e <printf+0x7b1>
ffff8000001069b0:	48 b8 28 04 00 00 00 	movabs $0x428,%rax
ffff8000001069b7:	00 00 00 
ffff8000001069ba:	8b 44 03 08          	mov    0x8(%rbx,%rax,1),%eax
ffff8000001069be:	48 ba 28 04 00 00 00 	movabs $0x428,%rdx
ffff8000001069c5:	00 00 00 
ffff8000001069c8:	8b 74 13 10          	mov    0x10(%rbx,%rdx,1),%esi
ffff8000001069cc:	99                   	cltd   
ffff8000001069cd:	f7 fe                	idiv   %esi
ffff8000001069cf:	89 c2                	mov    %eax,%edx
ffff8000001069d1:	89 d0                	mov    %edx,%eax
ffff8000001069d3:	c1 f8 1f             	sar    $0x1f,%eax
ffff8000001069d6:	c1 e8 1e             	shr    $0x1e,%eax
ffff8000001069d9:	01 c2                	add    %eax,%edx
ffff8000001069db:	83 e2 03             	and    $0x3,%edx
ffff8000001069de:	29 c2                	sub    %eax,%edx
ffff8000001069e0:	89 d0                	mov    %edx,%eax
ffff8000001069e2:	ba 04 00 00 00       	mov    $0x4,%edx
ffff8000001069e7:	29 c2                	sub    %eax,%edx
ffff8000001069e9:	89 d0                	mov    %edx,%eax
ffff8000001069eb:	89 85 30 ff ff ff    	mov    %eax,-0xd0(%rbp)
ffff8000001069f1:	c7 85 34 ff ff ff 00 	movl   $0x0,-0xcc(%rbp)
ffff8000001069f8:	00 00 00 
ffff8000001069fb:	eb 17                	jmp    ffff800000106a14 <printf+0x777>
ffff8000001069fd:	8b 85 34 ff ff ff    	mov    -0xcc(%rbp),%eax
ffff800000106a03:	48 98                	cltq   
ffff800000106a05:	c6 84 05 e0 fe ff ff 	movb   $0x20,-0x120(%rbp,%rax,1)
ffff800000106a0c:	20 
ffff800000106a0d:	83 85 34 ff ff ff 01 	addl   $0x1,-0xcc(%rbp)
ffff800000106a14:	8b 85 34 ff ff ff    	mov    -0xcc(%rbp),%eax
ffff800000106a1a:	3b 85 30 ff ff ff    	cmp    -0xd0(%rbp),%eax
ffff800000106a20:	7c db                	jl     ffff8000001069fd <printf+0x760>
ffff800000106a22:	8b 85 34 ff ff ff    	mov    -0xcc(%rbp),%eax
ffff800000106a28:	48 98                	cltq   
ffff800000106a2a:	c6 84 05 e0 fe ff ff 	movb   $0x0,-0x120(%rbp,%rax,1)
ffff800000106a31:	00 
ffff800000106a32:	48 8d 85 e0 fe ff ff 	lea    -0x120(%rbp),%rax
ffff800000106a39:	48 89 c7             	mov    %rax,%rdi
ffff800000106a3c:	48 b8 cd 82 ff ff ff 	movabs $0xffffffffffff82cd,%rax
ffff800000106a43:	ff ff ff 
ffff800000106a46:	48 8d 04 03          	lea    (%rbx,%rax,1),%rax
ffff800000106a4a:	ff d0                	callq  *%rax
ffff800000106a4c:	eb 46                	jmp    ffff800000106a94 <printf+0x7f7>
ffff800000106a4e:	48 8b 85 d8 fe ff ff 	mov    -0x128(%rbp),%rax
ffff800000106a55:	0f b6 00             	movzbl (%rax),%eax
ffff800000106a58:	3c 08                	cmp    $0x8,%al
ffff800000106a5a:	75 19                	jne    ffff800000106a75 <printf+0x7d8>
ffff800000106a5c:	bf ff ff ff ff       	mov    $0xffffffff,%edi
ffff800000106a61:	49 89 df             	mov    %rbx,%r15
ffff800000106a64:	48 b8 e4 b0 ff ff ff 	movabs $0xffffffffffffb0e4,%rax
ffff800000106a6b:	ff ff ff 
ffff800000106a6e:	48 01 d8             	add    %rbx,%rax
ffff800000106a71:	ff d0                	callq  *%rax
ffff800000106a73:	eb 1f                	jmp    ffff800000106a94 <printf+0x7f7>
ffff800000106a75:	48 8b 85 d8 fe ff ff 	mov    -0x128(%rbp),%rax
ffff800000106a7c:	0f b6 00             	movzbl (%rax),%eax
ffff800000106a7f:	0f be c0             	movsbl %al,%eax
ffff800000106a82:	89 c7                	mov    %eax,%edi
ffff800000106a84:	48 b8 cd 80 ff ff ff 	movabs $0xffffffffffff80cd,%rax
ffff800000106a8b:	ff ff ff 
ffff800000106a8e:	48 8d 04 03          	lea    (%rbx,%rax,1),%rax
ffff800000106a92:	ff d0                	callq  *%rax
ffff800000106a94:	48 83 85 d8 fe ff ff 	addq   $0x1,-0x128(%rbp)
ffff800000106a9b:	01 
ffff800000106a9c:	48 8b 85 d8 fe ff ff 	mov    -0x128(%rbp),%rax
ffff800000106aa3:	0f b6 00             	movzbl (%rax),%eax
ffff800000106aa6:	84 c0                	test   %al,%al
ffff800000106aa8:	0f 85 94 f8 ff ff    	jne    ffff800000106342 <printf+0xa5>
ffff800000106aae:	90                   	nop
ffff800000106aaf:	48 81 c4 20 01 00 00 	add    $0x120,%rsp
ffff800000106ab6:	5b                   	pop    %rbx
ffff800000106ab7:	41 5f                	pop    %r15
ffff800000106ab9:	5d                   	pop    %rbp
ffff800000106aba:	c3                   	retq   

ffff800000106abb <puti_color>:
ffff800000106abb:	55                   	push   %rbp
ffff800000106abc:	48 89 e5             	mov    %rsp,%rbp
ffff800000106abf:	48 83 ec 50          	sub    $0x50,%rsp
ffff800000106ac3:	4c 8d 0d f9 ff ff ff 	lea    -0x7(%rip),%r9        # ffff800000106ac3 <puti_color+0x8>
ffff800000106aca:	49 bb f5 6b 00 00 00 	movabs $0x6bf5,%r11
ffff800000106ad1:	00 00 00 
ffff800000106ad4:	4d 01 d9             	add    %r11,%r9
ffff800000106ad7:	89 7d cc             	mov    %edi,-0x34(%rbp)
ffff800000106ada:	89 75 c8             	mov    %esi,-0x38(%rbp)
ffff800000106add:	89 55 c4             	mov    %edx,-0x3c(%rbp)
ffff800000106ae0:	89 4d c0             	mov    %ecx,-0x40(%rbp)
ffff800000106ae3:	44 89 45 bc          	mov    %r8d,-0x44(%rbp)
ffff800000106ae7:	c7 45 fc 00 00 00 00 	movl   $0x0,-0x4(%rbp)
ffff800000106aee:	8b 45 cc             	mov    -0x34(%rbp),%eax
ffff800000106af1:	89 45 f0             	mov    %eax,-0x10(%rbp)
ffff800000106af4:	8b 45 cc             	mov    -0x34(%rbp),%eax
ffff800000106af7:	c1 f8 1f             	sar    $0x1f,%eax
ffff800000106afa:	31 45 cc             	xor    %eax,-0x34(%rbp)
ffff800000106afd:	29 45 cc             	sub    %eax,-0x34(%rbp)
ffff800000106b00:	eb 55                	jmp    ffff800000106b57 <puti_color+0x9c>
ffff800000106b02:	8b 75 fc             	mov    -0x4(%rbp),%esi
ffff800000106b05:	8d 46 01             	lea    0x1(%rsi),%eax
ffff800000106b08:	89 45 fc             	mov    %eax,-0x4(%rbp)
ffff800000106b0b:	8b 4d cc             	mov    -0x34(%rbp),%ecx
ffff800000106b0e:	ba 67 66 66 66       	mov    $0x66666667,%edx
ffff800000106b13:	89 c8                	mov    %ecx,%eax
ffff800000106b15:	f7 ea                	imul   %edx
ffff800000106b17:	c1 fa 02             	sar    $0x2,%edx
ffff800000106b1a:	89 c8                	mov    %ecx,%eax
ffff800000106b1c:	c1 f8 1f             	sar    $0x1f,%eax
ffff800000106b1f:	29 c2                	sub    %eax,%edx
ffff800000106b21:	89 d0                	mov    %edx,%eax
ffff800000106b23:	c1 e0 02             	shl    $0x2,%eax
ffff800000106b26:	01 d0                	add    %edx,%eax
ffff800000106b28:	01 c0                	add    %eax,%eax
ffff800000106b2a:	29 c1                	sub    %eax,%ecx
ffff800000106b2c:	89 ca                	mov    %ecx,%edx
ffff800000106b2e:	89 d0                	mov    %edx,%eax
ffff800000106b30:	83 c0 30             	add    $0x30,%eax
ffff800000106b33:	89 c2                	mov    %eax,%edx
ffff800000106b35:	48 63 c6             	movslq %esi,%rax
ffff800000106b38:	88 54 05 d0          	mov    %dl,-0x30(%rbp,%rax,1)
ffff800000106b3c:	8b 4d cc             	mov    -0x34(%rbp),%ecx
ffff800000106b3f:	ba 67 66 66 66       	mov    $0x66666667,%edx
ffff800000106b44:	89 c8                	mov    %ecx,%eax
ffff800000106b46:	f7 ea                	imul   %edx
ffff800000106b48:	c1 fa 02             	sar    $0x2,%edx
ffff800000106b4b:	89 c8                	mov    %ecx,%eax
ffff800000106b4d:	c1 f8 1f             	sar    $0x1f,%eax
ffff800000106b50:	29 c2                	sub    %eax,%edx
ffff800000106b52:	89 d0                	mov    %edx,%eax
ffff800000106b54:	89 45 cc             	mov    %eax,-0x34(%rbp)
ffff800000106b57:	8b 45 cc             	mov    -0x34(%rbp),%eax
ffff800000106b5a:	83 c0 09             	add    $0x9,%eax
ffff800000106b5d:	83 f8 12             	cmp    $0x12,%eax
ffff800000106b60:	77 a0                	ja     ffff800000106b02 <puti_color+0x47>
ffff800000106b62:	8b 75 fc             	mov    -0x4(%rbp),%esi
ffff800000106b65:	8d 46 01             	lea    0x1(%rsi),%eax
ffff800000106b68:	89 45 fc             	mov    %eax,-0x4(%rbp)
ffff800000106b6b:	8b 4d cc             	mov    -0x34(%rbp),%ecx
ffff800000106b6e:	ba 67 66 66 66       	mov    $0x66666667,%edx
ffff800000106b73:	89 c8                	mov    %ecx,%eax
ffff800000106b75:	f7 ea                	imul   %edx
ffff800000106b77:	c1 fa 02             	sar    $0x2,%edx
ffff800000106b7a:	89 c8                	mov    %ecx,%eax
ffff800000106b7c:	c1 f8 1f             	sar    $0x1f,%eax
ffff800000106b7f:	29 c2                	sub    %eax,%edx
ffff800000106b81:	89 d0                	mov    %edx,%eax
ffff800000106b83:	c1 e0 02             	shl    $0x2,%eax
ffff800000106b86:	01 d0                	add    %edx,%eax
ffff800000106b88:	01 c0                	add    %eax,%eax
ffff800000106b8a:	29 c1                	sub    %eax,%ecx
ffff800000106b8c:	89 ca                	mov    %ecx,%edx
ffff800000106b8e:	89 d0                	mov    %edx,%eax
ffff800000106b90:	83 c0 30             	add    $0x30,%eax
ffff800000106b93:	89 c2                	mov    %eax,%edx
ffff800000106b95:	48 63 c6             	movslq %esi,%rax
ffff800000106b98:	88 54 05 d0          	mov    %dl,-0x30(%rbp,%rax,1)
ffff800000106b9c:	eb 28                	jmp    ffff800000106bc6 <puti_color+0x10b>
ffff800000106b9e:	83 7d bc 00          	cmpl   $0x0,-0x44(%rbp)
ffff800000106ba2:	74 12                	je     ffff800000106bb6 <puti_color+0xfb>
ffff800000106ba4:	8b 45 fc             	mov    -0x4(%rbp),%eax
ffff800000106ba7:	8d 50 01             	lea    0x1(%rax),%edx
ffff800000106baa:	89 55 fc             	mov    %edx,-0x4(%rbp)
ffff800000106bad:	48 98                	cltq   
ffff800000106baf:	c6 44 05 d0 30       	movb   $0x30,-0x30(%rbp,%rax,1)
ffff800000106bb4:	eb 10                	jmp    ffff800000106bc6 <puti_color+0x10b>
ffff800000106bb6:	8b 45 fc             	mov    -0x4(%rbp),%eax
ffff800000106bb9:	8d 50 01             	lea    0x1(%rax),%edx
ffff800000106bbc:	89 55 fc             	mov    %edx,-0x4(%rbp)
ffff800000106bbf:	48 98                	cltq   
ffff800000106bc1:	c6 44 05 d0 20       	movb   $0x20,-0x30(%rbp,%rax,1)
ffff800000106bc6:	8b 45 c0             	mov    -0x40(%rbp),%eax
ffff800000106bc9:	3b 45 fc             	cmp    -0x4(%rbp),%eax
ffff800000106bcc:	7f d0                	jg     ffff800000106b9e <puti_color+0xe3>
ffff800000106bce:	83 7d f0 00          	cmpl   $0x0,-0x10(%rbp)
ffff800000106bd2:	79 10                	jns    ffff800000106be4 <puti_color+0x129>
ffff800000106bd4:	8b 45 fc             	mov    -0x4(%rbp),%eax
ffff800000106bd7:	8d 50 01             	lea    0x1(%rax),%edx
ffff800000106bda:	89 55 fc             	mov    %edx,-0x4(%rbp)
ffff800000106bdd:	48 98                	cltq   
ffff800000106bdf:	c6 44 05 d0 2d       	movb   $0x2d,-0x30(%rbp,%rax,1)
ffff800000106be4:	8b 45 fc             	mov    -0x4(%rbp),%eax
ffff800000106be7:	83 e8 01             	sub    $0x1,%eax
ffff800000106bea:	89 45 f4             	mov    %eax,-0xc(%rbp)
ffff800000106bed:	c7 45 f8 00 00 00 00 	movl   $0x0,-0x8(%rbp)
ffff800000106bf4:	eb 3d                	jmp    ffff800000106c33 <puti_color+0x178>
ffff800000106bf6:	8b 45 fc             	mov    -0x4(%rbp),%eax
ffff800000106bf9:	2b 45 f8             	sub    -0x8(%rbp),%eax
ffff800000106bfc:	83 e8 01             	sub    $0x1,%eax
ffff800000106bff:	89 45 f4             	mov    %eax,-0xc(%rbp)
ffff800000106c02:	8b 45 f8             	mov    -0x8(%rbp),%eax
ffff800000106c05:	48 98                	cltq   
ffff800000106c07:	0f b6 44 05 d0       	movzbl -0x30(%rbp,%rax,1),%eax
ffff800000106c0c:	88 45 ef             	mov    %al,-0x11(%rbp)
ffff800000106c0f:	8b 45 f4             	mov    -0xc(%rbp),%eax
ffff800000106c12:	48 98                	cltq   
ffff800000106c14:	0f b6 54 05 d0       	movzbl -0x30(%rbp,%rax,1),%edx
ffff800000106c19:	8b 45 f8             	mov    -0x8(%rbp),%eax
ffff800000106c1c:	48 98                	cltq   
ffff800000106c1e:	88 54 05 d0          	mov    %dl,-0x30(%rbp,%rax,1)
ffff800000106c22:	8b 45 f4             	mov    -0xc(%rbp),%eax
ffff800000106c25:	48 98                	cltq   
ffff800000106c27:	0f b6 55 ef          	movzbl -0x11(%rbp),%edx
ffff800000106c2b:	88 54 05 d0          	mov    %dl,-0x30(%rbp,%rax,1)
ffff800000106c2f:	83 45 f8 01          	addl   $0x1,-0x8(%rbp)
ffff800000106c33:	8b 45 f8             	mov    -0x8(%rbp),%eax
ffff800000106c36:	3b 45 f4             	cmp    -0xc(%rbp),%eax
ffff800000106c39:	7c bb                	jl     ffff800000106bf6 <puti_color+0x13b>
ffff800000106c3b:	8b 45 fc             	mov    -0x4(%rbp),%eax
ffff800000106c3e:	48 98                	cltq   
ffff800000106c40:	c6 44 05 d0 00       	movb   $0x0,-0x30(%rbp,%rax,1)
ffff800000106c45:	8b 55 c4             	mov    -0x3c(%rbp),%edx
ffff800000106c48:	8b 4d c8             	mov    -0x38(%rbp),%ecx
ffff800000106c4b:	48 8d 45 d0          	lea    -0x30(%rbp),%rax
ffff800000106c4f:	89 ce                	mov    %ecx,%esi
ffff800000106c51:	48 89 c7             	mov    %rax,%rdi
ffff800000106c54:	48 b8 68 82 ff ff ff 	movabs $0xffffffffffff8268,%rax
ffff800000106c5b:	ff ff ff 
ffff800000106c5e:	49 8d 04 01          	lea    (%r9,%rax,1),%rax
ffff800000106c62:	ff d0                	callq  *%rax
ffff800000106c64:	90                   	nop
ffff800000106c65:	c9                   	leaveq 
ffff800000106c66:	c3                   	retq   

ffff800000106c67 <puti>:
ffff800000106c67:	55                   	push   %rbp
ffff800000106c68:	48 89 e5             	mov    %rsp,%rbp
ffff800000106c6b:	48 83 ec 10          	sub    $0x10,%rsp
ffff800000106c6f:	48 8d 05 f9 ff ff ff 	lea    -0x7(%rip),%rax        # ffff800000106c6f <puti+0x8>
ffff800000106c76:	49 bb 49 6a 00 00 00 	movabs $0x6a49,%r11
ffff800000106c7d:	00 00 00 
ffff800000106c80:	4c 01 d8             	add    %r11,%rax
ffff800000106c83:	89 7d fc             	mov    %edi,-0x4(%rbp)
ffff800000106c86:	89 75 f8             	mov    %esi,-0x8(%rbp)
ffff800000106c89:	89 55 f4             	mov    %edx,-0xc(%rbp)
ffff800000106c8c:	8b 4d f4             	mov    -0xc(%rbp),%ecx
ffff800000106c8f:	8b 55 f8             	mov    -0x8(%rbp),%edx
ffff800000106c92:	8b 7d fc             	mov    -0x4(%rbp),%edi
ffff800000106c95:	41 89 c8             	mov    %ecx,%r8d
ffff800000106c98:	89 d1                	mov    %edx,%ecx
ffff800000106c9a:	ba ff ff ff 00       	mov    $0xffffff,%edx
ffff800000106c9f:	be 00 00 00 00       	mov    $0x0,%esi
ffff800000106ca4:	49 b9 03 94 ff ff ff 	movabs $0xffffffffffff9403,%r9
ffff800000106cab:	ff ff ff 
ffff800000106cae:	4a 8d 04 08          	lea    (%rax,%r9,1),%rax
ffff800000106cb2:	ff d0                	callq  *%rax
ffff800000106cb4:	90                   	nop
ffff800000106cb5:	c9                   	leaveq 
ffff800000106cb6:	c3                   	retq   

ffff800000106cb7 <putl_color>:
ffff800000106cb7:	55                   	push   %rbp
ffff800000106cb8:	48 89 e5             	mov    %rsp,%rbp
ffff800000106cbb:	48 83 ec 60          	sub    $0x60,%rsp
ffff800000106cbf:	4c 8d 0d f9 ff ff ff 	lea    -0x7(%rip),%r9        # ffff800000106cbf <putl_color+0x8>
ffff800000106cc6:	49 bb f9 69 00 00 00 	movabs $0x69f9,%r11
ffff800000106ccd:	00 00 00 
ffff800000106cd0:	4d 01 d9             	add    %r11,%r9
ffff800000106cd3:	48 89 7d b8          	mov    %rdi,-0x48(%rbp)
ffff800000106cd7:	89 75 b4             	mov    %esi,-0x4c(%rbp)
ffff800000106cda:	89 55 b0             	mov    %edx,-0x50(%rbp)
ffff800000106cdd:	89 4d ac             	mov    %ecx,-0x54(%rbp)
ffff800000106ce0:	44 89 45 a8          	mov    %r8d,-0x58(%rbp)
ffff800000106ce4:	c7 45 fc 00 00 00 00 	movl   $0x0,-0x4(%rbp)
ffff800000106ceb:	48 8b 45 b8          	mov    -0x48(%rbp),%rax
ffff800000106cef:	48 89 45 e8          	mov    %rax,-0x18(%rbp)
ffff800000106cf3:	48 8b 45 b8          	mov    -0x48(%rbp),%rax
ffff800000106cf7:	48 c1 f8 3f          	sar    $0x3f,%rax
ffff800000106cfb:	48 31 45 b8          	xor    %rax,-0x48(%rbp)
ffff800000106cff:	48 29 45 b8          	sub    %rax,-0x48(%rbp)
ffff800000106d03:	eb 75                	jmp    ffff800000106d7a <putl_color+0xc3>
ffff800000106d05:	8b 75 fc             	mov    -0x4(%rbp),%esi
ffff800000106d08:	8d 46 01             	lea    0x1(%rsi),%eax
ffff800000106d0b:	89 45 fc             	mov    %eax,-0x4(%rbp)
ffff800000106d0e:	48 8b 4d b8          	mov    -0x48(%rbp),%rcx
ffff800000106d12:	48 ba 67 66 66 66 66 	movabs $0x6666666666666667,%rdx
ffff800000106d19:	66 66 66 
ffff800000106d1c:	48 89 c8             	mov    %rcx,%rax
ffff800000106d1f:	48 f7 ea             	imul   %rdx
ffff800000106d22:	48 c1 fa 02          	sar    $0x2,%rdx
ffff800000106d26:	48 89 c8             	mov    %rcx,%rax
ffff800000106d29:	48 c1 f8 3f          	sar    $0x3f,%rax
ffff800000106d2d:	48 29 c2             	sub    %rax,%rdx
ffff800000106d30:	48 89 d0             	mov    %rdx,%rax
ffff800000106d33:	48 c1 e0 02          	shl    $0x2,%rax
ffff800000106d37:	48 01 d0             	add    %rdx,%rax
ffff800000106d3a:	48 01 c0             	add    %rax,%rax
ffff800000106d3d:	48 29 c1             	sub    %rax,%rcx
ffff800000106d40:	48 89 ca             	mov    %rcx,%rdx
ffff800000106d43:	89 d0                	mov    %edx,%eax
ffff800000106d45:	83 c0 30             	add    $0x30,%eax
ffff800000106d48:	89 c2                	mov    %eax,%edx
ffff800000106d4a:	48 63 c6             	movslq %esi,%rax
ffff800000106d4d:	88 54 05 c0          	mov    %dl,-0x40(%rbp,%rax,1)
ffff800000106d51:	48 8b 4d b8          	mov    -0x48(%rbp),%rcx
ffff800000106d55:	48 ba 67 66 66 66 66 	movabs $0x6666666666666667,%rdx
ffff800000106d5c:	66 66 66 
ffff800000106d5f:	48 89 c8             	mov    %rcx,%rax
ffff800000106d62:	48 f7 ea             	imul   %rdx
ffff800000106d65:	48 c1 fa 02          	sar    $0x2,%rdx
ffff800000106d69:	48 89 c8             	mov    %rcx,%rax
ffff800000106d6c:	48 c1 f8 3f          	sar    $0x3f,%rax
ffff800000106d70:	48 29 c2             	sub    %rax,%rdx
ffff800000106d73:	48 89 d0             	mov    %rdx,%rax
ffff800000106d76:	48 89 45 b8          	mov    %rax,-0x48(%rbp)
ffff800000106d7a:	48 8b 45 b8          	mov    -0x48(%rbp),%rax
ffff800000106d7e:	48 83 c0 09          	add    $0x9,%rax
ffff800000106d82:	48 83 f8 12          	cmp    $0x12,%rax
ffff800000106d86:	0f 87 79 ff ff ff    	ja     ffff800000106d05 <putl_color+0x4e>
ffff800000106d8c:	8b 75 fc             	mov    -0x4(%rbp),%esi
ffff800000106d8f:	8d 46 01             	lea    0x1(%rsi),%eax
ffff800000106d92:	89 45 fc             	mov    %eax,-0x4(%rbp)
ffff800000106d95:	48 8b 4d b8          	mov    -0x48(%rbp),%rcx
ffff800000106d99:	48 ba 67 66 66 66 66 	movabs $0x6666666666666667,%rdx
ffff800000106da0:	66 66 66 
ffff800000106da3:	48 89 c8             	mov    %rcx,%rax
ffff800000106da6:	48 f7 ea             	imul   %rdx
ffff800000106da9:	48 c1 fa 02          	sar    $0x2,%rdx
ffff800000106dad:	48 89 c8             	mov    %rcx,%rax
ffff800000106db0:	48 c1 f8 3f          	sar    $0x3f,%rax
ffff800000106db4:	48 29 c2             	sub    %rax,%rdx
ffff800000106db7:	48 89 d0             	mov    %rdx,%rax
ffff800000106dba:	48 c1 e0 02          	shl    $0x2,%rax
ffff800000106dbe:	48 01 d0             	add    %rdx,%rax
ffff800000106dc1:	48 01 c0             	add    %rax,%rax
ffff800000106dc4:	48 29 c1             	sub    %rax,%rcx
ffff800000106dc7:	48 89 ca             	mov    %rcx,%rdx
ffff800000106dca:	89 d0                	mov    %edx,%eax
ffff800000106dcc:	83 c0 30             	add    $0x30,%eax
ffff800000106dcf:	89 c2                	mov    %eax,%edx
ffff800000106dd1:	48 63 c6             	movslq %esi,%rax
ffff800000106dd4:	88 54 05 c0          	mov    %dl,-0x40(%rbp,%rax,1)
ffff800000106dd8:	eb 28                	jmp    ffff800000106e02 <putl_color+0x14b>
ffff800000106dda:	83 7d a8 00          	cmpl   $0x0,-0x58(%rbp)
ffff800000106dde:	74 12                	je     ffff800000106df2 <putl_color+0x13b>
ffff800000106de0:	8b 45 fc             	mov    -0x4(%rbp),%eax
ffff800000106de3:	8d 50 01             	lea    0x1(%rax),%edx
ffff800000106de6:	89 55 fc             	mov    %edx,-0x4(%rbp)
ffff800000106de9:	48 98                	cltq   
ffff800000106deb:	c6 44 05 c0 30       	movb   $0x30,-0x40(%rbp,%rax,1)
ffff800000106df0:	eb 10                	jmp    ffff800000106e02 <putl_color+0x14b>
ffff800000106df2:	8b 45 fc             	mov    -0x4(%rbp),%eax
ffff800000106df5:	8d 50 01             	lea    0x1(%rax),%edx
ffff800000106df8:	89 55 fc             	mov    %edx,-0x4(%rbp)
ffff800000106dfb:	48 98                	cltq   
ffff800000106dfd:	c6 44 05 c0 20       	movb   $0x20,-0x40(%rbp,%rax,1)
ffff800000106e02:	8b 45 ac             	mov    -0x54(%rbp),%eax
ffff800000106e05:	3b 45 fc             	cmp    -0x4(%rbp),%eax
ffff800000106e08:	7f d0                	jg     ffff800000106dda <putl_color+0x123>
ffff800000106e0a:	48 83 7d e8 00       	cmpq   $0x0,-0x18(%rbp)
ffff800000106e0f:	79 10                	jns    ffff800000106e21 <putl_color+0x16a>
ffff800000106e11:	8b 45 fc             	mov    -0x4(%rbp),%eax
ffff800000106e14:	8d 50 01             	lea    0x1(%rax),%edx
ffff800000106e17:	89 55 fc             	mov    %edx,-0x4(%rbp)
ffff800000106e1a:	48 98                	cltq   
ffff800000106e1c:	c6 44 05 c0 2d       	movb   $0x2d,-0x40(%rbp,%rax,1)
ffff800000106e21:	8b 45 fc             	mov    -0x4(%rbp),%eax
ffff800000106e24:	83 e8 01             	sub    $0x1,%eax
ffff800000106e27:	89 45 f4             	mov    %eax,-0xc(%rbp)
ffff800000106e2a:	c7 45 f8 00 00 00 00 	movl   $0x0,-0x8(%rbp)
ffff800000106e31:	eb 3d                	jmp    ffff800000106e70 <putl_color+0x1b9>
ffff800000106e33:	8b 45 fc             	mov    -0x4(%rbp),%eax
ffff800000106e36:	2b 45 f8             	sub    -0x8(%rbp),%eax
ffff800000106e39:	83 e8 01             	sub    $0x1,%eax
ffff800000106e3c:	89 45 f4             	mov    %eax,-0xc(%rbp)
ffff800000106e3f:	8b 45 f8             	mov    -0x8(%rbp),%eax
ffff800000106e42:	48 98                	cltq   
ffff800000106e44:	0f b6 44 05 c0       	movzbl -0x40(%rbp,%rax,1),%eax
ffff800000106e49:	88 45 e7             	mov    %al,-0x19(%rbp)
ffff800000106e4c:	8b 45 f4             	mov    -0xc(%rbp),%eax
ffff800000106e4f:	48 98                	cltq   
ffff800000106e51:	0f b6 54 05 c0       	movzbl -0x40(%rbp,%rax,1),%edx
ffff800000106e56:	8b 45 f8             	mov    -0x8(%rbp),%eax
ffff800000106e59:	48 98                	cltq   
ffff800000106e5b:	88 54 05 c0          	mov    %dl,-0x40(%rbp,%rax,1)
ffff800000106e5f:	8b 45 f4             	mov    -0xc(%rbp),%eax
ffff800000106e62:	48 98                	cltq   
ffff800000106e64:	0f b6 55 e7          	movzbl -0x19(%rbp),%edx
ffff800000106e68:	88 54 05 c0          	mov    %dl,-0x40(%rbp,%rax,1)
ffff800000106e6c:	83 45 f8 01          	addl   $0x1,-0x8(%rbp)
ffff800000106e70:	8b 45 f8             	mov    -0x8(%rbp),%eax
ffff800000106e73:	3b 45 f4             	cmp    -0xc(%rbp),%eax
ffff800000106e76:	7c bb                	jl     ffff800000106e33 <putl_color+0x17c>
ffff800000106e78:	8b 45 fc             	mov    -0x4(%rbp),%eax
ffff800000106e7b:	48 98                	cltq   
ffff800000106e7d:	c6 44 05 c0 00       	movb   $0x0,-0x40(%rbp,%rax,1)
ffff800000106e82:	8b 55 b0             	mov    -0x50(%rbp),%edx
ffff800000106e85:	8b 4d b4             	mov    -0x4c(%rbp),%ecx
ffff800000106e88:	48 8d 45 c0          	lea    -0x40(%rbp),%rax
ffff800000106e8c:	89 ce                	mov    %ecx,%esi
ffff800000106e8e:	48 89 c7             	mov    %rax,%rdi
ffff800000106e91:	48 b8 68 82 ff ff ff 	movabs $0xffffffffffff8268,%rax
ffff800000106e98:	ff ff ff 
ffff800000106e9b:	49 8d 04 01          	lea    (%r9,%rax,1),%rax
ffff800000106e9f:	ff d0                	callq  *%rax
ffff800000106ea1:	90                   	nop
ffff800000106ea2:	c9                   	leaveq 
ffff800000106ea3:	c3                   	retq   

ffff800000106ea4 <putl>:
ffff800000106ea4:	55                   	push   %rbp
ffff800000106ea5:	48 89 e5             	mov    %rsp,%rbp
ffff800000106ea8:	48 83 ec 10          	sub    $0x10,%rsp
ffff800000106eac:	48 8d 05 f9 ff ff ff 	lea    -0x7(%rip),%rax        # ffff800000106eac <putl+0x8>
ffff800000106eb3:	49 bb 0c 68 00 00 00 	movabs $0x680c,%r11
ffff800000106eba:	00 00 00 
ffff800000106ebd:	4c 01 d8             	add    %r11,%rax
ffff800000106ec0:	48 89 7d f8          	mov    %rdi,-0x8(%rbp)
ffff800000106ec4:	89 75 f4             	mov    %esi,-0xc(%rbp)
ffff800000106ec7:	89 55 f0             	mov    %edx,-0x10(%rbp)
ffff800000106eca:	8b 4d f0             	mov    -0x10(%rbp),%ecx
ffff800000106ecd:	8b 55 f4             	mov    -0xc(%rbp),%edx
ffff800000106ed0:	48 8b 7d f8          	mov    -0x8(%rbp),%rdi
ffff800000106ed4:	41 89 c8             	mov    %ecx,%r8d
ffff800000106ed7:	89 d1                	mov    %edx,%ecx
ffff800000106ed9:	ba ff ff ff 00       	mov    $0xffffff,%edx
ffff800000106ede:	be 00 00 00 00       	mov    $0x0,%esi
ffff800000106ee3:	49 b9 ff 95 ff ff ff 	movabs $0xffffffffffff95ff,%r9
ffff800000106eea:	ff ff ff 
ffff800000106eed:	4a 8d 04 08          	lea    (%rax,%r9,1),%rax
ffff800000106ef1:	ff d0                	callq  *%rax
ffff800000106ef3:	90                   	nop
ffff800000106ef4:	c9                   	leaveq 
ffff800000106ef5:	c3                   	retq   

ffff800000106ef6 <putx_color>:
ffff800000106ef6:	55                   	push   %rbp
ffff800000106ef7:	48 89 e5             	mov    %rsp,%rbp
ffff800000106efa:	48 83 ec 50          	sub    $0x50,%rsp
ffff800000106efe:	4c 8d 15 f9 ff ff ff 	lea    -0x7(%rip),%r10        # ffff800000106efe <putx_color+0x8>
ffff800000106f05:	49 bb ba 67 00 00 00 	movabs $0x67ba,%r11
ffff800000106f0c:	00 00 00 
ffff800000106f0f:	4d 01 da             	add    %r11,%r10
ffff800000106f12:	48 89 7d c8          	mov    %rdi,-0x38(%rbp)
ffff800000106f16:	89 75 c4             	mov    %esi,-0x3c(%rbp)
ffff800000106f19:	89 55 c0             	mov    %edx,-0x40(%rbp)
ffff800000106f1c:	89 4d bc             	mov    %ecx,-0x44(%rbp)
ffff800000106f1f:	44 89 45 b8          	mov    %r8d,-0x48(%rbp)
ffff800000106f23:	44 89 4d b4          	mov    %r9d,-0x4c(%rbp)
ffff800000106f27:	c7 45 fc 00 00 00 00 	movl   $0x0,-0x4(%rbp)
ffff800000106f2e:	48 8b 45 c8          	mov    -0x38(%rbp),%rax
ffff800000106f32:	89 45 f0             	mov    %eax,-0x10(%rbp)
ffff800000106f35:	48 8b 45 c8          	mov    -0x38(%rbp),%rax
ffff800000106f39:	48 c1 f8 3f          	sar    $0x3f,%rax
ffff800000106f3d:	48 31 45 c8          	xor    %rax,-0x38(%rbp)
ffff800000106f41:	48 29 45 c8          	sub    %rax,-0x38(%rbp)
ffff800000106f45:	e9 b8 00 00 00       	jmpq   ffff800000107002 <putx_color+0x10c>
ffff800000106f4a:	48 8b 45 c8          	mov    -0x38(%rbp),%rax
ffff800000106f4e:	48 99                	cqto   
ffff800000106f50:	48 c1 ea 3c          	shr    $0x3c,%rdx
ffff800000106f54:	48 01 d0             	add    %rdx,%rax
ffff800000106f57:	83 e0 0f             	and    $0xf,%eax
ffff800000106f5a:	48 29 d0             	sub    %rdx,%rax
ffff800000106f5d:	48 83 f8 09          	cmp    $0x9,%rax
ffff800000106f61:	7f 2c                	jg     ffff800000106f8f <putx_color+0x99>
ffff800000106f63:	8b 45 fc             	mov    -0x4(%rbp),%eax
ffff800000106f66:	8d 50 01             	lea    0x1(%rax),%edx
ffff800000106f69:	89 55 fc             	mov    %edx,-0x4(%rbp)
ffff800000106f6c:	48 8b 55 c8          	mov    -0x38(%rbp),%rdx
ffff800000106f70:	48 89 d1             	mov    %rdx,%rcx
ffff800000106f73:	48 c1 f9 3f          	sar    $0x3f,%rcx
ffff800000106f77:	48 c1 e9 3c          	shr    $0x3c,%rcx
ffff800000106f7b:	48 01 ca             	add    %rcx,%rdx
ffff800000106f7e:	83 e2 0f             	and    $0xf,%edx
ffff800000106f81:	48 29 ca             	sub    %rcx,%rdx
ffff800000106f84:	83 c2 30             	add    $0x30,%edx
ffff800000106f87:	48 98                	cltq   
ffff800000106f89:	88 54 05 d0          	mov    %dl,-0x30(%rbp,%rax,1)
ffff800000106f8d:	eb 5c                	jmp    ffff800000106feb <putx_color+0xf5>
ffff800000106f8f:	83 7d bc 00          	cmpl   $0x0,-0x44(%rbp)
ffff800000106f93:	74 2c                	je     ffff800000106fc1 <putx_color+0xcb>
ffff800000106f95:	8b 45 fc             	mov    -0x4(%rbp),%eax
ffff800000106f98:	8d 50 01             	lea    0x1(%rax),%edx
ffff800000106f9b:	89 55 fc             	mov    %edx,-0x4(%rbp)
ffff800000106f9e:	48 8b 55 c8          	mov    -0x38(%rbp),%rdx
ffff800000106fa2:	48 89 d1             	mov    %rdx,%rcx
ffff800000106fa5:	48 c1 f9 3f          	sar    $0x3f,%rcx
ffff800000106fa9:	48 c1 e9 3c          	shr    $0x3c,%rcx
ffff800000106fad:	48 01 ca             	add    %rcx,%rdx
ffff800000106fb0:	83 e2 0f             	and    $0xf,%edx
ffff800000106fb3:	48 29 ca             	sub    %rcx,%rdx
ffff800000106fb6:	83 c2 37             	add    $0x37,%edx
ffff800000106fb9:	48 98                	cltq   
ffff800000106fbb:	88 54 05 d0          	mov    %dl,-0x30(%rbp,%rax,1)
ffff800000106fbf:	eb 2a                	jmp    ffff800000106feb <putx_color+0xf5>
ffff800000106fc1:	8b 45 fc             	mov    -0x4(%rbp),%eax
ffff800000106fc4:	8d 50 01             	lea    0x1(%rax),%edx
ffff800000106fc7:	89 55 fc             	mov    %edx,-0x4(%rbp)
ffff800000106fca:	48 8b 55 c8          	mov    -0x38(%rbp),%rdx
ffff800000106fce:	48 89 d1             	mov    %rdx,%rcx
ffff800000106fd1:	48 c1 f9 3f          	sar    $0x3f,%rcx
ffff800000106fd5:	48 c1 e9 3c          	shr    $0x3c,%rcx
ffff800000106fd9:	48 01 ca             	add    %rcx,%rdx
ffff800000106fdc:	83 e2 0f             	and    $0xf,%edx
ffff800000106fdf:	48 29 ca             	sub    %rcx,%rdx
ffff800000106fe2:	83 c2 57             	add    $0x57,%edx
ffff800000106fe5:	48 98                	cltq   
ffff800000106fe7:	88 54 05 d0          	mov    %dl,-0x30(%rbp,%rax,1)
ffff800000106feb:	48 8b 45 c8          	mov    -0x38(%rbp),%rax
ffff800000106fef:	48 8d 50 0f          	lea    0xf(%rax),%rdx
ffff800000106ff3:	48 85 c0             	test   %rax,%rax
ffff800000106ff6:	48 0f 48 c2          	cmovs  %rdx,%rax
ffff800000106ffa:	48 c1 f8 04          	sar    $0x4,%rax
ffff800000106ffe:	48 89 45 c8          	mov    %rax,-0x38(%rbp)
ffff800000107002:	48 8b 45 c8          	mov    -0x38(%rbp),%rax
ffff800000107006:	48 83 c0 0f          	add    $0xf,%rax
ffff80000010700a:	48 83 f8 1e          	cmp    $0x1e,%rax
ffff80000010700e:	0f 87 36 ff ff ff    	ja     ffff800000106f4a <putx_color+0x54>
ffff800000107014:	48 8b 45 c8          	mov    -0x38(%rbp),%rax
ffff800000107018:	48 99                	cqto   
ffff80000010701a:	48 c1 ea 3c          	shr    $0x3c,%rdx
ffff80000010701e:	48 01 d0             	add    %rdx,%rax
ffff800000107021:	83 e0 0f             	and    $0xf,%eax
ffff800000107024:	48 29 d0             	sub    %rdx,%rax
ffff800000107027:	48 83 f8 09          	cmp    $0x9,%rax
ffff80000010702b:	7f 2f                	jg     ffff80000010705c <putx_color+0x166>
ffff80000010702d:	8b 45 fc             	mov    -0x4(%rbp),%eax
ffff800000107030:	8d 50 01             	lea    0x1(%rax),%edx
ffff800000107033:	89 55 fc             	mov    %edx,-0x4(%rbp)
ffff800000107036:	48 8b 55 c8          	mov    -0x38(%rbp),%rdx
ffff80000010703a:	48 89 d1             	mov    %rdx,%rcx
ffff80000010703d:	48 c1 f9 3f          	sar    $0x3f,%rcx
ffff800000107041:	48 c1 e9 3c          	shr    $0x3c,%rcx
ffff800000107045:	48 01 ca             	add    %rcx,%rdx
ffff800000107048:	83 e2 0f             	and    $0xf,%edx
ffff80000010704b:	48 29 ca             	sub    %rcx,%rdx
ffff80000010704e:	83 c2 30             	add    $0x30,%edx
ffff800000107051:	48 98                	cltq   
ffff800000107053:	88 54 05 d0          	mov    %dl,-0x30(%rbp,%rax,1)
ffff800000107057:	e9 86 00 00 00       	jmpq   ffff8000001070e2 <putx_color+0x1ec>
ffff80000010705c:	83 7d bc 00          	cmpl   $0x0,-0x44(%rbp)
ffff800000107060:	74 2c                	je     ffff80000010708e <putx_color+0x198>
ffff800000107062:	8b 45 fc             	mov    -0x4(%rbp),%eax
ffff800000107065:	8d 50 01             	lea    0x1(%rax),%edx
ffff800000107068:	89 55 fc             	mov    %edx,-0x4(%rbp)
ffff80000010706b:	48 8b 55 c8          	mov    -0x38(%rbp),%rdx
ffff80000010706f:	48 89 d1             	mov    %rdx,%rcx
ffff800000107072:	48 c1 f9 3f          	sar    $0x3f,%rcx
ffff800000107076:	48 c1 e9 3c          	shr    $0x3c,%rcx
ffff80000010707a:	48 01 ca             	add    %rcx,%rdx
ffff80000010707d:	83 e2 0f             	and    $0xf,%edx
ffff800000107080:	48 29 ca             	sub    %rcx,%rdx
ffff800000107083:	83 c2 37             	add    $0x37,%edx
ffff800000107086:	48 98                	cltq   
ffff800000107088:	88 54 05 d0          	mov    %dl,-0x30(%rbp,%rax,1)
ffff80000010708c:	eb 54                	jmp    ffff8000001070e2 <putx_color+0x1ec>
ffff80000010708e:	8b 45 fc             	mov    -0x4(%rbp),%eax
ffff800000107091:	8d 50 01             	lea    0x1(%rax),%edx
ffff800000107094:	89 55 fc             	mov    %edx,-0x4(%rbp)
ffff800000107097:	48 8b 55 c8          	mov    -0x38(%rbp),%rdx
ffff80000010709b:	48 89 d1             	mov    %rdx,%rcx
ffff80000010709e:	48 c1 f9 3f          	sar    $0x3f,%rcx
ffff8000001070a2:	48 c1 e9 3c          	shr    $0x3c,%rcx
ffff8000001070a6:	48 01 ca             	add    %rcx,%rdx
ffff8000001070a9:	83 e2 0f             	and    $0xf,%edx
ffff8000001070ac:	48 29 ca             	sub    %rcx,%rdx
ffff8000001070af:	83 c2 57             	add    $0x57,%edx
ffff8000001070b2:	48 98                	cltq   
ffff8000001070b4:	88 54 05 d0          	mov    %dl,-0x30(%rbp,%rax,1)
ffff8000001070b8:	eb 28                	jmp    ffff8000001070e2 <putx_color+0x1ec>
ffff8000001070ba:	83 7d b4 00          	cmpl   $0x0,-0x4c(%rbp)
ffff8000001070be:	74 12                	je     ffff8000001070d2 <putx_color+0x1dc>
ffff8000001070c0:	8b 45 fc             	mov    -0x4(%rbp),%eax
ffff8000001070c3:	8d 50 01             	lea    0x1(%rax),%edx
ffff8000001070c6:	89 55 fc             	mov    %edx,-0x4(%rbp)
ffff8000001070c9:	48 98                	cltq   
ffff8000001070cb:	c6 44 05 d0 30       	movb   $0x30,-0x30(%rbp,%rax,1)
ffff8000001070d0:	eb 10                	jmp    ffff8000001070e2 <putx_color+0x1ec>
ffff8000001070d2:	8b 45 fc             	mov    -0x4(%rbp),%eax
ffff8000001070d5:	8d 50 01             	lea    0x1(%rax),%edx
ffff8000001070d8:	89 55 fc             	mov    %edx,-0x4(%rbp)
ffff8000001070db:	48 98                	cltq   
ffff8000001070dd:	c6 44 05 d0 20       	movb   $0x20,-0x30(%rbp,%rax,1)
ffff8000001070e2:	8b 45 b8             	mov    -0x48(%rbp),%eax
ffff8000001070e5:	3b 45 fc             	cmp    -0x4(%rbp),%eax
ffff8000001070e8:	7f d0                	jg     ffff8000001070ba <putx_color+0x1c4>
ffff8000001070ea:	83 7d f0 00          	cmpl   $0x0,-0x10(%rbp)
ffff8000001070ee:	79 10                	jns    ffff800000107100 <putx_color+0x20a>
ffff8000001070f0:	8b 45 fc             	mov    -0x4(%rbp),%eax
ffff8000001070f3:	8d 50 01             	lea    0x1(%rax),%edx
ffff8000001070f6:	89 55 fc             	mov    %edx,-0x4(%rbp)
ffff8000001070f9:	48 98                	cltq   
ffff8000001070fb:	c6 44 05 d0 2d       	movb   $0x2d,-0x30(%rbp,%rax,1)
ffff800000107100:	8b 45 fc             	mov    -0x4(%rbp),%eax
ffff800000107103:	83 e8 01             	sub    $0x1,%eax
ffff800000107106:	89 45 f4             	mov    %eax,-0xc(%rbp)
ffff800000107109:	c7 45 f8 00 00 00 00 	movl   $0x0,-0x8(%rbp)
ffff800000107110:	eb 3d                	jmp    ffff80000010714f <putx_color+0x259>
ffff800000107112:	8b 45 fc             	mov    -0x4(%rbp),%eax
ffff800000107115:	2b 45 f8             	sub    -0x8(%rbp),%eax
ffff800000107118:	83 e8 01             	sub    $0x1,%eax
ffff80000010711b:	89 45 f4             	mov    %eax,-0xc(%rbp)
ffff80000010711e:	8b 45 f8             	mov    -0x8(%rbp),%eax
ffff800000107121:	48 98                	cltq   
ffff800000107123:	0f b6 44 05 d0       	movzbl -0x30(%rbp,%rax,1),%eax
ffff800000107128:	88 45 ef             	mov    %al,-0x11(%rbp)
ffff80000010712b:	8b 45 f4             	mov    -0xc(%rbp),%eax
ffff80000010712e:	48 98                	cltq   
ffff800000107130:	0f b6 54 05 d0       	movzbl -0x30(%rbp,%rax,1),%edx
ffff800000107135:	8b 45 f8             	mov    -0x8(%rbp),%eax
ffff800000107138:	48 98                	cltq   
ffff80000010713a:	88 54 05 d0          	mov    %dl,-0x30(%rbp,%rax,1)
ffff80000010713e:	8b 45 f4             	mov    -0xc(%rbp),%eax
ffff800000107141:	48 98                	cltq   
ffff800000107143:	0f b6 55 ef          	movzbl -0x11(%rbp),%edx
ffff800000107147:	88 54 05 d0          	mov    %dl,-0x30(%rbp,%rax,1)
ffff80000010714b:	83 45 f8 01          	addl   $0x1,-0x8(%rbp)
ffff80000010714f:	8b 45 f8             	mov    -0x8(%rbp),%eax
ffff800000107152:	3b 45 f4             	cmp    -0xc(%rbp),%eax
ffff800000107155:	7c bb                	jl     ffff800000107112 <putx_color+0x21c>
ffff800000107157:	8b 45 fc             	mov    -0x4(%rbp),%eax
ffff80000010715a:	48 98                	cltq   
ffff80000010715c:	c6 44 05 d0 00       	movb   $0x0,-0x30(%rbp,%rax,1)
ffff800000107161:	8b 55 c0             	mov    -0x40(%rbp),%edx
ffff800000107164:	8b 4d c4             	mov    -0x3c(%rbp),%ecx
ffff800000107167:	48 8d 45 d0          	lea    -0x30(%rbp),%rax
ffff80000010716b:	89 ce                	mov    %ecx,%esi
ffff80000010716d:	48 89 c7             	mov    %rax,%rdi
ffff800000107170:	48 b8 68 82 ff ff ff 	movabs $0xffffffffffff8268,%rax
ffff800000107177:	ff ff ff 
ffff80000010717a:	49 8d 04 02          	lea    (%r10,%rax,1),%rax
ffff80000010717e:	ff d0                	callq  *%rax
ffff800000107180:	90                   	nop
ffff800000107181:	c9                   	leaveq 
ffff800000107182:	c3                   	retq   

ffff800000107183 <putx>:
ffff800000107183:	55                   	push   %rbp
ffff800000107184:	48 89 e5             	mov    %rsp,%rbp
ffff800000107187:	48 83 ec 20          	sub    $0x20,%rsp
ffff80000010718b:	48 8d 05 f9 ff ff ff 	lea    -0x7(%rip),%rax        # ffff80000010718b <putx+0x8>
ffff800000107192:	49 bb 2d 65 00 00 00 	movabs $0x652d,%r11
ffff800000107199:	00 00 00 
ffff80000010719c:	4c 01 d8             	add    %r11,%rax
ffff80000010719f:	48 89 7d f8          	mov    %rdi,-0x8(%rbp)
ffff8000001071a3:	89 75 f4             	mov    %esi,-0xc(%rbp)
ffff8000001071a6:	89 55 f0             	mov    %edx,-0x10(%rbp)
ffff8000001071a9:	89 4d ec             	mov    %ecx,-0x14(%rbp)
ffff8000001071ac:	8b 75 ec             	mov    -0x14(%rbp),%esi
ffff8000001071af:	8b 4d f0             	mov    -0x10(%rbp),%ecx
ffff8000001071b2:	8b 55 f4             	mov    -0xc(%rbp),%edx
ffff8000001071b5:	48 8b 7d f8          	mov    -0x8(%rbp),%rdi
ffff8000001071b9:	41 89 f1             	mov    %esi,%r9d
ffff8000001071bc:	41 89 c8             	mov    %ecx,%r8d
ffff8000001071bf:	89 d1                	mov    %edx,%ecx
ffff8000001071c1:	ba ff ff ff 00       	mov    $0xffffff,%edx
ffff8000001071c6:	be 00 00 00 00       	mov    $0x0,%esi
ffff8000001071cb:	49 ba 3e 98 ff ff ff 	movabs $0xffffffffffff983e,%r10
ffff8000001071d2:	ff ff ff 
ffff8000001071d5:	4a 8d 04 10          	lea    (%rax,%r10,1),%rax
ffff8000001071d9:	ff d0                	callq  *%rax
ffff8000001071db:	90                   	nop
ffff8000001071dc:	c9                   	leaveq 
ffff8000001071dd:	c3                   	retq   

ffff8000001071de <putui_color>:
ffff8000001071de:	55                   	push   %rbp
ffff8000001071df:	48 89 e5             	mov    %rsp,%rbp
ffff8000001071e2:	48 83 ec 50          	sub    $0x50,%rsp
ffff8000001071e6:	4c 8d 0d f9 ff ff ff 	lea    -0x7(%rip),%r9        # ffff8000001071e6 <putui_color+0x8>
ffff8000001071ed:	49 bb d2 64 00 00 00 	movabs $0x64d2,%r11
ffff8000001071f4:	00 00 00 
ffff8000001071f7:	4d 01 d9             	add    %r11,%r9
ffff8000001071fa:	89 7d cc             	mov    %edi,-0x34(%rbp)
ffff8000001071fd:	89 75 c8             	mov    %esi,-0x38(%rbp)
ffff800000107200:	89 55 c4             	mov    %edx,-0x3c(%rbp)
ffff800000107203:	89 4d c0             	mov    %ecx,-0x40(%rbp)
ffff800000107206:	44 89 45 bc          	mov    %r8d,-0x44(%rbp)
ffff80000010720a:	c7 45 fc 00 00 00 00 	movl   $0x0,-0x4(%rbp)
ffff800000107211:	eb 44                	jmp    ffff800000107257 <putui_color+0x79>
ffff800000107213:	8b 75 fc             	mov    -0x4(%rbp),%esi
ffff800000107216:	8d 46 01             	lea    0x1(%rsi),%eax
ffff800000107219:	89 45 fc             	mov    %eax,-0x4(%rbp)
ffff80000010721c:	8b 4d cc             	mov    -0x34(%rbp),%ecx
ffff80000010721f:	ba cd cc cc cc       	mov    $0xcccccccd,%edx
ffff800000107224:	89 c8                	mov    %ecx,%eax
ffff800000107226:	f7 e2                	mul    %edx
ffff800000107228:	c1 ea 03             	shr    $0x3,%edx
ffff80000010722b:	89 d0                	mov    %edx,%eax
ffff80000010722d:	c1 e0 02             	shl    $0x2,%eax
ffff800000107230:	01 d0                	add    %edx,%eax
ffff800000107232:	01 c0                	add    %eax,%eax
ffff800000107234:	29 c1                	sub    %eax,%ecx
ffff800000107236:	89 ca                	mov    %ecx,%edx
ffff800000107238:	89 d0                	mov    %edx,%eax
ffff80000010723a:	83 c0 30             	add    $0x30,%eax
ffff80000010723d:	89 c2                	mov    %eax,%edx
ffff80000010723f:	89 f0                	mov    %esi,%eax
ffff800000107241:	88 54 05 d0          	mov    %dl,-0x30(%rbp,%rax,1)
ffff800000107245:	8b 45 cc             	mov    -0x34(%rbp),%eax
ffff800000107248:	ba cd cc cc cc       	mov    $0xcccccccd,%edx
ffff80000010724d:	f7 e2                	mul    %edx
ffff80000010724f:	89 d0                	mov    %edx,%eax
ffff800000107251:	c1 e8 03             	shr    $0x3,%eax
ffff800000107254:	89 45 cc             	mov    %eax,-0x34(%rbp)
ffff800000107257:	83 7d cc 09          	cmpl   $0x9,-0x34(%rbp)
ffff80000010725b:	77 b6                	ja     ffff800000107213 <putui_color+0x35>
ffff80000010725d:	8b 75 fc             	mov    -0x4(%rbp),%esi
ffff800000107260:	8d 46 01             	lea    0x1(%rsi),%eax
ffff800000107263:	89 45 fc             	mov    %eax,-0x4(%rbp)
ffff800000107266:	8b 4d cc             	mov    -0x34(%rbp),%ecx
ffff800000107269:	ba cd cc cc cc       	mov    $0xcccccccd,%edx
ffff80000010726e:	89 c8                	mov    %ecx,%eax
ffff800000107270:	f7 e2                	mul    %edx
ffff800000107272:	c1 ea 03             	shr    $0x3,%edx
ffff800000107275:	89 d0                	mov    %edx,%eax
ffff800000107277:	c1 e0 02             	shl    $0x2,%eax
ffff80000010727a:	01 d0                	add    %edx,%eax
ffff80000010727c:	01 c0                	add    %eax,%eax
ffff80000010727e:	29 c1                	sub    %eax,%ecx
ffff800000107280:	89 ca                	mov    %ecx,%edx
ffff800000107282:	89 d0                	mov    %edx,%eax
ffff800000107284:	83 c0 30             	add    $0x30,%eax
ffff800000107287:	89 c2                	mov    %eax,%edx
ffff800000107289:	89 f0                	mov    %esi,%eax
ffff80000010728b:	88 54 05 d0          	mov    %dl,-0x30(%rbp,%rax,1)
ffff80000010728f:	eb 28                	jmp    ffff8000001072b9 <putui_color+0xdb>
ffff800000107291:	83 7d bc 00          	cmpl   $0x0,-0x44(%rbp)
ffff800000107295:	74 12                	je     ffff8000001072a9 <putui_color+0xcb>
ffff800000107297:	8b 45 fc             	mov    -0x4(%rbp),%eax
ffff80000010729a:	8d 50 01             	lea    0x1(%rax),%edx
ffff80000010729d:	89 55 fc             	mov    %edx,-0x4(%rbp)
ffff8000001072a0:	89 c0                	mov    %eax,%eax
ffff8000001072a2:	c6 44 05 d0 30       	movb   $0x30,-0x30(%rbp,%rax,1)
ffff8000001072a7:	eb 10                	jmp    ffff8000001072b9 <putui_color+0xdb>
ffff8000001072a9:	8b 45 fc             	mov    -0x4(%rbp),%eax
ffff8000001072ac:	8d 50 01             	lea    0x1(%rax),%edx
ffff8000001072af:	89 55 fc             	mov    %edx,-0x4(%rbp)
ffff8000001072b2:	89 c0                	mov    %eax,%eax
ffff8000001072b4:	c6 44 05 d0 20       	movb   $0x20,-0x30(%rbp,%rax,1)
ffff8000001072b9:	8b 45 c0             	mov    -0x40(%rbp),%eax
ffff8000001072bc:	3b 45 fc             	cmp    -0x4(%rbp),%eax
ffff8000001072bf:	77 d0                	ja     ffff800000107291 <putui_color+0xb3>
ffff8000001072c1:	8b 45 fc             	mov    -0x4(%rbp),%eax
ffff8000001072c4:	83 e8 01             	sub    $0x1,%eax
ffff8000001072c7:	89 45 f4             	mov    %eax,-0xc(%rbp)
ffff8000001072ca:	c7 45 f8 00 00 00 00 	movl   $0x0,-0x8(%rbp)
ffff8000001072d1:	eb 39                	jmp    ffff80000010730c <putui_color+0x12e>
ffff8000001072d3:	8b 45 fc             	mov    -0x4(%rbp),%eax
ffff8000001072d6:	2b 45 f8             	sub    -0x8(%rbp),%eax
ffff8000001072d9:	83 e8 01             	sub    $0x1,%eax
ffff8000001072dc:	89 45 f4             	mov    %eax,-0xc(%rbp)
ffff8000001072df:	8b 45 f8             	mov    -0x8(%rbp),%eax
ffff8000001072e2:	0f b6 44 05 d0       	movzbl -0x30(%rbp,%rax,1),%eax
ffff8000001072e7:	88 45 f3             	mov    %al,-0xd(%rbp)
ffff8000001072ea:	8b 45 f4             	mov    -0xc(%rbp),%eax
ffff8000001072ed:	48 98                	cltq   
ffff8000001072ef:	0f b6 54 05 d0       	movzbl -0x30(%rbp,%rax,1),%edx
ffff8000001072f4:	8b 45 f8             	mov    -0x8(%rbp),%eax
ffff8000001072f7:	88 54 05 d0          	mov    %dl,-0x30(%rbp,%rax,1)
ffff8000001072fb:	8b 45 f4             	mov    -0xc(%rbp),%eax
ffff8000001072fe:	48 98                	cltq   
ffff800000107300:	0f b6 55 f3          	movzbl -0xd(%rbp),%edx
ffff800000107304:	88 54 05 d0          	mov    %dl,-0x30(%rbp,%rax,1)
ffff800000107308:	83 45 f8 01          	addl   $0x1,-0x8(%rbp)
ffff80000010730c:	8b 45 f4             	mov    -0xc(%rbp),%eax
ffff80000010730f:	39 45 f8             	cmp    %eax,-0x8(%rbp)
ffff800000107312:	72 bf                	jb     ffff8000001072d3 <putui_color+0xf5>
ffff800000107314:	8b 45 fc             	mov    -0x4(%rbp),%eax
ffff800000107317:	c6 44 05 d0 00       	movb   $0x0,-0x30(%rbp,%rax,1)
ffff80000010731c:	8b 55 c4             	mov    -0x3c(%rbp),%edx
ffff80000010731f:	8b 4d c8             	mov    -0x38(%rbp),%ecx
ffff800000107322:	48 8d 45 d0          	lea    -0x30(%rbp),%rax
ffff800000107326:	89 ce                	mov    %ecx,%esi
ffff800000107328:	48 89 c7             	mov    %rax,%rdi
ffff80000010732b:	48 b8 68 82 ff ff ff 	movabs $0xffffffffffff8268,%rax
ffff800000107332:	ff ff ff 
ffff800000107335:	49 8d 04 01          	lea    (%r9,%rax,1),%rax
ffff800000107339:	ff d0                	callq  *%rax
ffff80000010733b:	90                   	nop
ffff80000010733c:	c9                   	leaveq 
ffff80000010733d:	c3                   	retq   

ffff80000010733e <putui>:
ffff80000010733e:	55                   	push   %rbp
ffff80000010733f:	48 89 e5             	mov    %rsp,%rbp
ffff800000107342:	48 83 ec 10          	sub    $0x10,%rsp
ffff800000107346:	48 8d 05 f9 ff ff ff 	lea    -0x7(%rip),%rax        # ffff800000107346 <putui+0x8>
ffff80000010734d:	49 bb 72 63 00 00 00 	movabs $0x6372,%r11
ffff800000107354:	00 00 00 
ffff800000107357:	4c 01 d8             	add    %r11,%rax
ffff80000010735a:	89 7d fc             	mov    %edi,-0x4(%rbp)
ffff80000010735d:	89 75 f8             	mov    %esi,-0x8(%rbp)
ffff800000107360:	89 55 f4             	mov    %edx,-0xc(%rbp)
ffff800000107363:	8b 4d f4             	mov    -0xc(%rbp),%ecx
ffff800000107366:	8b 55 f8             	mov    -0x8(%rbp),%edx
ffff800000107369:	8b 7d fc             	mov    -0x4(%rbp),%edi
ffff80000010736c:	41 89 c8             	mov    %ecx,%r8d
ffff80000010736f:	89 d1                	mov    %edx,%ecx
ffff800000107371:	ba ff ff ff 00       	mov    $0xffffff,%edx
ffff800000107376:	be 00 00 00 00       	mov    $0x0,%esi
ffff80000010737b:	49 b9 26 9b ff ff ff 	movabs $0xffffffffffff9b26,%r9
ffff800000107382:	ff ff ff 
ffff800000107385:	4a 8d 04 08          	lea    (%rax,%r9,1),%rax
ffff800000107389:	ff d0                	callq  *%rax
ffff80000010738b:	90                   	nop
ffff80000010738c:	c9                   	leaveq 
ffff80000010738d:	c3                   	retq   

ffff80000010738e <putul_color>:
ffff80000010738e:	55                   	push   %rbp
ffff80000010738f:	48 89 e5             	mov    %rsp,%rbp
ffff800000107392:	48 83 ec 50          	sub    $0x50,%rsp
ffff800000107396:	4c 8d 0d f9 ff ff ff 	lea    -0x7(%rip),%r9        # ffff800000107396 <putul_color+0x8>
ffff80000010739d:	49 bb 22 63 00 00 00 	movabs $0x6322,%r11
ffff8000001073a4:	00 00 00 
ffff8000001073a7:	4d 01 d9             	add    %r11,%r9
ffff8000001073aa:	48 89 7d c8          	mov    %rdi,-0x38(%rbp)
ffff8000001073ae:	89 75 c4             	mov    %esi,-0x3c(%rbp)
ffff8000001073b1:	89 55 c0             	mov    %edx,-0x40(%rbp)
ffff8000001073b4:	89 4d bc             	mov    %ecx,-0x44(%rbp)
ffff8000001073b7:	44 89 45 b8          	mov    %r8d,-0x48(%rbp)
ffff8000001073bb:	c7 45 fc 00 00 00 00 	movl   $0x0,-0x4(%rbp)
ffff8000001073c2:	eb 5d                	jmp    ffff800000107421 <putul_color+0x93>
ffff8000001073c4:	8b 75 fc             	mov    -0x4(%rbp),%esi
ffff8000001073c7:	8d 46 01             	lea    0x1(%rsi),%eax
ffff8000001073ca:	89 45 fc             	mov    %eax,-0x4(%rbp)
ffff8000001073cd:	48 8b 4d c8          	mov    -0x38(%rbp),%rcx
ffff8000001073d1:	48 ba cd cc cc cc cc 	movabs $0xcccccccccccccccd,%rdx
ffff8000001073d8:	cc cc cc 
ffff8000001073db:	48 89 c8             	mov    %rcx,%rax
ffff8000001073de:	48 f7 e2             	mul    %rdx
ffff8000001073e1:	48 c1 ea 03          	shr    $0x3,%rdx
ffff8000001073e5:	48 89 d0             	mov    %rdx,%rax
ffff8000001073e8:	48 c1 e0 02          	shl    $0x2,%rax
ffff8000001073ec:	48 01 d0             	add    %rdx,%rax
ffff8000001073ef:	48 01 c0             	add    %rax,%rax
ffff8000001073f2:	48 29 c1             	sub    %rax,%rcx
ffff8000001073f5:	48 89 ca             	mov    %rcx,%rdx
ffff8000001073f8:	89 d0                	mov    %edx,%eax
ffff8000001073fa:	83 c0 30             	add    $0x30,%eax
ffff8000001073fd:	89 c2                	mov    %eax,%edx
ffff8000001073ff:	89 f0                	mov    %esi,%eax
ffff800000107401:	88 54 05 d0          	mov    %dl,-0x30(%rbp,%rax,1)
ffff800000107405:	48 8b 45 c8          	mov    -0x38(%rbp),%rax
ffff800000107409:	48 ba cd cc cc cc cc 	movabs $0xcccccccccccccccd,%rdx
ffff800000107410:	cc cc cc 
ffff800000107413:	48 f7 e2             	mul    %rdx
ffff800000107416:	48 89 d0             	mov    %rdx,%rax
ffff800000107419:	48 c1 e8 03          	shr    $0x3,%rax
ffff80000010741d:	48 89 45 c8          	mov    %rax,-0x38(%rbp)
ffff800000107421:	48 83 7d c8 09       	cmpq   $0x9,-0x38(%rbp)
ffff800000107426:	77 9c                	ja     ffff8000001073c4 <putul_color+0x36>
ffff800000107428:	8b 75 fc             	mov    -0x4(%rbp),%esi
ffff80000010742b:	8d 46 01             	lea    0x1(%rsi),%eax
ffff80000010742e:	89 45 fc             	mov    %eax,-0x4(%rbp)
ffff800000107431:	48 8b 4d c8          	mov    -0x38(%rbp),%rcx
ffff800000107435:	48 ba cd cc cc cc cc 	movabs $0xcccccccccccccccd,%rdx
ffff80000010743c:	cc cc cc 
ffff80000010743f:	48 89 c8             	mov    %rcx,%rax
ffff800000107442:	48 f7 e2             	mul    %rdx
ffff800000107445:	48 c1 ea 03          	shr    $0x3,%rdx
ffff800000107449:	48 89 d0             	mov    %rdx,%rax
ffff80000010744c:	48 c1 e0 02          	shl    $0x2,%rax
ffff800000107450:	48 01 d0             	add    %rdx,%rax
ffff800000107453:	48 01 c0             	add    %rax,%rax
ffff800000107456:	48 29 c1             	sub    %rax,%rcx
ffff800000107459:	48 89 ca             	mov    %rcx,%rdx
ffff80000010745c:	89 d0                	mov    %edx,%eax
ffff80000010745e:	83 c0 30             	add    $0x30,%eax
ffff800000107461:	89 c2                	mov    %eax,%edx
ffff800000107463:	89 f0                	mov    %esi,%eax
ffff800000107465:	88 54 05 d0          	mov    %dl,-0x30(%rbp,%rax,1)
ffff800000107469:	eb 28                	jmp    ffff800000107493 <putul_color+0x105>
ffff80000010746b:	83 7d b8 00          	cmpl   $0x0,-0x48(%rbp)
ffff80000010746f:	74 12                	je     ffff800000107483 <putul_color+0xf5>
ffff800000107471:	8b 45 fc             	mov    -0x4(%rbp),%eax
ffff800000107474:	8d 50 01             	lea    0x1(%rax),%edx
ffff800000107477:	89 55 fc             	mov    %edx,-0x4(%rbp)
ffff80000010747a:	89 c0                	mov    %eax,%eax
ffff80000010747c:	c6 44 05 d0 30       	movb   $0x30,-0x30(%rbp,%rax,1)
ffff800000107481:	eb 10                	jmp    ffff800000107493 <putul_color+0x105>
ffff800000107483:	8b 45 fc             	mov    -0x4(%rbp),%eax
ffff800000107486:	8d 50 01             	lea    0x1(%rax),%edx
ffff800000107489:	89 55 fc             	mov    %edx,-0x4(%rbp)
ffff80000010748c:	89 c0                	mov    %eax,%eax
ffff80000010748e:	c6 44 05 d0 20       	movb   $0x20,-0x30(%rbp,%rax,1)
ffff800000107493:	8b 45 bc             	mov    -0x44(%rbp),%eax
ffff800000107496:	3b 45 fc             	cmp    -0x4(%rbp),%eax
ffff800000107499:	77 d0                	ja     ffff80000010746b <putul_color+0xdd>
ffff80000010749b:	8b 45 fc             	mov    -0x4(%rbp),%eax
ffff80000010749e:	83 e8 01             	sub    $0x1,%eax
ffff8000001074a1:	89 45 f4             	mov    %eax,-0xc(%rbp)
ffff8000001074a4:	c7 45 f8 00 00 00 00 	movl   $0x0,-0x8(%rbp)
ffff8000001074ab:	eb 39                	jmp    ffff8000001074e6 <putul_color+0x158>
ffff8000001074ad:	8b 45 fc             	mov    -0x4(%rbp),%eax
ffff8000001074b0:	2b 45 f8             	sub    -0x8(%rbp),%eax
ffff8000001074b3:	83 e8 01             	sub    $0x1,%eax
ffff8000001074b6:	89 45 f4             	mov    %eax,-0xc(%rbp)
ffff8000001074b9:	8b 45 f8             	mov    -0x8(%rbp),%eax
ffff8000001074bc:	0f b6 44 05 d0       	movzbl -0x30(%rbp,%rax,1),%eax
ffff8000001074c1:	88 45 f3             	mov    %al,-0xd(%rbp)
ffff8000001074c4:	8b 45 f4             	mov    -0xc(%rbp),%eax
ffff8000001074c7:	48 98                	cltq   
ffff8000001074c9:	0f b6 54 05 d0       	movzbl -0x30(%rbp,%rax,1),%edx
ffff8000001074ce:	8b 45 f8             	mov    -0x8(%rbp),%eax
ffff8000001074d1:	88 54 05 d0          	mov    %dl,-0x30(%rbp,%rax,1)
ffff8000001074d5:	8b 45 f4             	mov    -0xc(%rbp),%eax
ffff8000001074d8:	48 98                	cltq   
ffff8000001074da:	0f b6 55 f3          	movzbl -0xd(%rbp),%edx
ffff8000001074de:	88 54 05 d0          	mov    %dl,-0x30(%rbp,%rax,1)
ffff8000001074e2:	83 45 f8 01          	addl   $0x1,-0x8(%rbp)
ffff8000001074e6:	8b 45 f4             	mov    -0xc(%rbp),%eax
ffff8000001074e9:	39 45 f8             	cmp    %eax,-0x8(%rbp)
ffff8000001074ec:	72 bf                	jb     ffff8000001074ad <putul_color+0x11f>
ffff8000001074ee:	8b 45 fc             	mov    -0x4(%rbp),%eax
ffff8000001074f1:	c6 44 05 d0 00       	movb   $0x0,-0x30(%rbp,%rax,1)
ffff8000001074f6:	8b 55 c0             	mov    -0x40(%rbp),%edx
ffff8000001074f9:	8b 4d c4             	mov    -0x3c(%rbp),%ecx
ffff8000001074fc:	48 8d 45 d0          	lea    -0x30(%rbp),%rax
ffff800000107500:	89 ce                	mov    %ecx,%esi
ffff800000107502:	48 89 c7             	mov    %rax,%rdi
ffff800000107505:	48 b8 68 82 ff ff ff 	movabs $0xffffffffffff8268,%rax
ffff80000010750c:	ff ff ff 
ffff80000010750f:	49 8d 04 01          	lea    (%r9,%rax,1),%rax
ffff800000107513:	ff d0                	callq  *%rax
ffff800000107515:	90                   	nop
ffff800000107516:	c9                   	leaveq 
ffff800000107517:	c3                   	retq   

ffff800000107518 <putul>:
ffff800000107518:	55                   	push   %rbp
ffff800000107519:	48 89 e5             	mov    %rsp,%rbp
ffff80000010751c:	48 83 ec 10          	sub    $0x10,%rsp
ffff800000107520:	48 8d 05 f9 ff ff ff 	lea    -0x7(%rip),%rax        # ffff800000107520 <putul+0x8>
ffff800000107527:	49 bb 98 61 00 00 00 	movabs $0x6198,%r11
ffff80000010752e:	00 00 00 
ffff800000107531:	4c 01 d8             	add    %r11,%rax
ffff800000107534:	48 89 7d f8          	mov    %rdi,-0x8(%rbp)
ffff800000107538:	89 75 f4             	mov    %esi,-0xc(%rbp)
ffff80000010753b:	89 55 f0             	mov    %edx,-0x10(%rbp)
ffff80000010753e:	8b 4d f0             	mov    -0x10(%rbp),%ecx
ffff800000107541:	8b 55 f4             	mov    -0xc(%rbp),%edx
ffff800000107544:	48 8b 7d f8          	mov    -0x8(%rbp),%rdi
ffff800000107548:	41 89 c8             	mov    %ecx,%r8d
ffff80000010754b:	89 d1                	mov    %edx,%ecx
ffff80000010754d:	ba ff ff ff 00       	mov    $0xffffff,%edx
ffff800000107552:	be 00 00 00 00       	mov    $0x0,%esi
ffff800000107557:	49 b9 d6 9c ff ff ff 	movabs $0xffffffffffff9cd6,%r9
ffff80000010755e:	ff ff ff 
ffff800000107561:	4a 8d 04 08          	lea    (%rax,%r9,1),%rax
ffff800000107565:	ff d0                	callq  *%rax
ffff800000107567:	90                   	nop
ffff800000107568:	c9                   	leaveq 
ffff800000107569:	c3                   	retq   

ffff80000010756a <putux_color>:
ffff80000010756a:	55                   	push   %rbp
ffff80000010756b:	48 89 e5             	mov    %rsp,%rbp
ffff80000010756e:	48 83 ec 50          	sub    $0x50,%rsp
ffff800000107572:	48 8d 05 f9 ff ff ff 	lea    -0x7(%rip),%rax        # ffff800000107572 <putux_color+0x8>
ffff800000107579:	49 bb 46 61 00 00 00 	movabs $0x6146,%r11
ffff800000107580:	00 00 00 
ffff800000107583:	4c 01 d8             	add    %r11,%rax
ffff800000107586:	48 89 7d c8          	mov    %rdi,-0x38(%rbp)
ffff80000010758a:	89 75 c4             	mov    %esi,-0x3c(%rbp)
ffff80000010758d:	89 55 c0             	mov    %edx,-0x40(%rbp)
ffff800000107590:	89 4d bc             	mov    %ecx,-0x44(%rbp)
ffff800000107593:	44 89 45 b8          	mov    %r8d,-0x48(%rbp)
ffff800000107597:	44 89 4d b4          	mov    %r9d,-0x4c(%rbp)
ffff80000010759b:	c7 45 fc 00 00 00 00 	movl   $0x0,-0x4(%rbp)
ffff8000001075a2:	eb 6e                	jmp    ffff800000107612 <putux_color+0xa8>
ffff8000001075a4:	48 8b 55 c8          	mov    -0x38(%rbp),%rdx
ffff8000001075a8:	83 e2 0f             	and    $0xf,%edx
ffff8000001075ab:	48 83 fa 09          	cmp    $0x9,%rdx
ffff8000001075af:	77 1b                	ja     ffff8000001075cc <putux_color+0x62>
ffff8000001075b1:	8b 55 fc             	mov    -0x4(%rbp),%edx
ffff8000001075b4:	8d 4a 01             	lea    0x1(%rdx),%ecx
ffff8000001075b7:	89 4d fc             	mov    %ecx,-0x4(%rbp)
ffff8000001075ba:	48 8b 4d c8          	mov    -0x38(%rbp),%rcx
ffff8000001075be:	83 e1 0f             	and    $0xf,%ecx
ffff8000001075c1:	83 c1 30             	add    $0x30,%ecx
ffff8000001075c4:	89 d2                	mov    %edx,%edx
ffff8000001075c6:	88 4c 15 d0          	mov    %cl,-0x30(%rbp,%rdx,1)
ffff8000001075ca:	eb 3a                	jmp    ffff800000107606 <putux_color+0x9c>
ffff8000001075cc:	83 7d bc 00          	cmpl   $0x0,-0x44(%rbp)
ffff8000001075d0:	74 1b                	je     ffff8000001075ed <putux_color+0x83>
ffff8000001075d2:	8b 55 fc             	mov    -0x4(%rbp),%edx
ffff8000001075d5:	8d 4a 01             	lea    0x1(%rdx),%ecx
ffff8000001075d8:	89 4d fc             	mov    %ecx,-0x4(%rbp)
ffff8000001075db:	48 8b 4d c8          	mov    -0x38(%rbp),%rcx
ffff8000001075df:	83 e1 0f             	and    $0xf,%ecx
ffff8000001075e2:	83 c1 37             	add    $0x37,%ecx
ffff8000001075e5:	89 d2                	mov    %edx,%edx
ffff8000001075e7:	88 4c 15 d0          	mov    %cl,-0x30(%rbp,%rdx,1)
ffff8000001075eb:	eb 19                	jmp    ffff800000107606 <putux_color+0x9c>
ffff8000001075ed:	8b 55 fc             	mov    -0x4(%rbp),%edx
ffff8000001075f0:	8d 4a 01             	lea    0x1(%rdx),%ecx
ffff8000001075f3:	89 4d fc             	mov    %ecx,-0x4(%rbp)
ffff8000001075f6:	48 8b 4d c8          	mov    -0x38(%rbp),%rcx
ffff8000001075fa:	83 e1 0f             	and    $0xf,%ecx
ffff8000001075fd:	83 c1 57             	add    $0x57,%ecx
ffff800000107600:	89 d2                	mov    %edx,%edx
ffff800000107602:	88 4c 15 d0          	mov    %cl,-0x30(%rbp,%rdx,1)
ffff800000107606:	48 8b 55 c8          	mov    -0x38(%rbp),%rdx
ffff80000010760a:	48 c1 ea 04          	shr    $0x4,%rdx
ffff80000010760e:	48 89 55 c8          	mov    %rdx,-0x38(%rbp)
ffff800000107612:	48 83 7d c8 0f       	cmpq   $0xf,-0x38(%rbp)
ffff800000107617:	77 8b                	ja     ffff8000001075a4 <putux_color+0x3a>
ffff800000107619:	48 8b 55 c8          	mov    -0x38(%rbp),%rdx
ffff80000010761d:	83 e2 0f             	and    $0xf,%edx
ffff800000107620:	48 83 fa 09          	cmp    $0x9,%rdx
ffff800000107624:	77 1b                	ja     ffff800000107641 <putux_color+0xd7>
ffff800000107626:	8b 55 fc             	mov    -0x4(%rbp),%edx
ffff800000107629:	8d 4a 01             	lea    0x1(%rdx),%ecx
ffff80000010762c:	89 4d fc             	mov    %ecx,-0x4(%rbp)
ffff80000010762f:	48 8b 4d c8          	mov    -0x38(%rbp),%rcx
ffff800000107633:	83 e1 0f             	and    $0xf,%ecx
ffff800000107636:	83 c1 30             	add    $0x30,%ecx
ffff800000107639:	89 d2                	mov    %edx,%edx
ffff80000010763b:	88 4c 15 d0          	mov    %cl,-0x30(%rbp,%rdx,1)
ffff80000010763f:	eb 64                	jmp    ffff8000001076a5 <putux_color+0x13b>
ffff800000107641:	83 7d bc 00          	cmpl   $0x0,-0x44(%rbp)
ffff800000107645:	74 1b                	je     ffff800000107662 <putux_color+0xf8>
ffff800000107647:	8b 55 fc             	mov    -0x4(%rbp),%edx
ffff80000010764a:	8d 4a 01             	lea    0x1(%rdx),%ecx
ffff80000010764d:	89 4d fc             	mov    %ecx,-0x4(%rbp)
ffff800000107650:	48 8b 4d c8          	mov    -0x38(%rbp),%rcx
ffff800000107654:	83 e1 0f             	and    $0xf,%ecx
ffff800000107657:	83 c1 37             	add    $0x37,%ecx
ffff80000010765a:	89 d2                	mov    %edx,%edx
ffff80000010765c:	88 4c 15 d0          	mov    %cl,-0x30(%rbp,%rdx,1)
ffff800000107660:	eb 43                	jmp    ffff8000001076a5 <putux_color+0x13b>
ffff800000107662:	8b 55 fc             	mov    -0x4(%rbp),%edx
ffff800000107665:	8d 4a 01             	lea    0x1(%rdx),%ecx
ffff800000107668:	89 4d fc             	mov    %ecx,-0x4(%rbp)
ffff80000010766b:	48 8b 4d c8          	mov    -0x38(%rbp),%rcx
ffff80000010766f:	83 e1 0f             	and    $0xf,%ecx
ffff800000107672:	83 c1 57             	add    $0x57,%ecx
ffff800000107675:	89 d2                	mov    %edx,%edx
ffff800000107677:	88 4c 15 d0          	mov    %cl,-0x30(%rbp,%rdx,1)
ffff80000010767b:	eb 28                	jmp    ffff8000001076a5 <putux_color+0x13b>
ffff80000010767d:	83 7d b4 00          	cmpl   $0x0,-0x4c(%rbp)
ffff800000107681:	74 12                	je     ffff800000107695 <putux_color+0x12b>
ffff800000107683:	8b 55 fc             	mov    -0x4(%rbp),%edx
ffff800000107686:	8d 4a 01             	lea    0x1(%rdx),%ecx
ffff800000107689:	89 4d fc             	mov    %ecx,-0x4(%rbp)
ffff80000010768c:	89 d2                	mov    %edx,%edx
ffff80000010768e:	c6 44 15 d0 30       	movb   $0x30,-0x30(%rbp,%rdx,1)
ffff800000107693:	eb 10                	jmp    ffff8000001076a5 <putux_color+0x13b>
ffff800000107695:	8b 55 fc             	mov    -0x4(%rbp),%edx
ffff800000107698:	8d 4a 01             	lea    0x1(%rdx),%ecx
ffff80000010769b:	89 4d fc             	mov    %ecx,-0x4(%rbp)
ffff80000010769e:	89 d2                	mov    %edx,%edx
ffff8000001076a0:	c6 44 15 d0 20       	movb   $0x20,-0x30(%rbp,%rdx,1)
ffff8000001076a5:	8b 55 b8             	mov    -0x48(%rbp),%edx
ffff8000001076a8:	3b 55 fc             	cmp    -0x4(%rbp),%edx
ffff8000001076ab:	77 d0                	ja     ffff80000010767d <putux_color+0x113>
ffff8000001076ad:	8b 55 fc             	mov    -0x4(%rbp),%edx
ffff8000001076b0:	83 ea 01             	sub    $0x1,%edx
ffff8000001076b3:	89 55 f4             	mov    %edx,-0xc(%rbp)
ffff8000001076b6:	c7 45 f8 00 00 00 00 	movl   $0x0,-0x8(%rbp)
ffff8000001076bd:	eb 3b                	jmp    ffff8000001076fa <putux_color+0x190>
ffff8000001076bf:	8b 55 fc             	mov    -0x4(%rbp),%edx
ffff8000001076c2:	2b 55 f8             	sub    -0x8(%rbp),%edx
ffff8000001076c5:	83 ea 01             	sub    $0x1,%edx
ffff8000001076c8:	89 55 f4             	mov    %edx,-0xc(%rbp)
ffff8000001076cb:	8b 55 f8             	mov    -0x8(%rbp),%edx
ffff8000001076ce:	0f b6 54 15 d0       	movzbl -0x30(%rbp,%rdx,1),%edx
ffff8000001076d3:	88 55 f3             	mov    %dl,-0xd(%rbp)
ffff8000001076d6:	8b 55 f4             	mov    -0xc(%rbp),%edx
ffff8000001076d9:	48 63 d2             	movslq %edx,%rdx
ffff8000001076dc:	0f b6 4c 15 d0       	movzbl -0x30(%rbp,%rdx,1),%ecx
ffff8000001076e1:	8b 55 f8             	mov    -0x8(%rbp),%edx
ffff8000001076e4:	88 4c 15 d0          	mov    %cl,-0x30(%rbp,%rdx,1)
ffff8000001076e8:	8b 55 f4             	mov    -0xc(%rbp),%edx
ffff8000001076eb:	48 63 d2             	movslq %edx,%rdx
ffff8000001076ee:	0f b6 4d f3          	movzbl -0xd(%rbp),%ecx
ffff8000001076f2:	88 4c 15 d0          	mov    %cl,-0x30(%rbp,%rdx,1)
ffff8000001076f6:	83 45 f8 01          	addl   $0x1,-0x8(%rbp)
ffff8000001076fa:	8b 55 f4             	mov    -0xc(%rbp),%edx
ffff8000001076fd:	39 55 f8             	cmp    %edx,-0x8(%rbp)
ffff800000107700:	72 bd                	jb     ffff8000001076bf <putux_color+0x155>
ffff800000107702:	8b 55 fc             	mov    -0x4(%rbp),%edx
ffff800000107705:	c6 44 15 d0 00       	movb   $0x0,-0x30(%rbp,%rdx,1)
ffff80000010770a:	8b 55 c0             	mov    -0x40(%rbp),%edx
ffff80000010770d:	8b 75 c4             	mov    -0x3c(%rbp),%esi
ffff800000107710:	48 8d 4d d0          	lea    -0x30(%rbp),%rcx
ffff800000107714:	48 89 cf             	mov    %rcx,%rdi
ffff800000107717:	48 b9 68 82 ff ff ff 	movabs $0xffffffffffff8268,%rcx
ffff80000010771e:	ff ff ff 
ffff800000107721:	48 8d 04 08          	lea    (%rax,%rcx,1),%rax
ffff800000107725:	ff d0                	callq  *%rax
ffff800000107727:	90                   	nop
ffff800000107728:	c9                   	leaveq 
ffff800000107729:	c3                   	retq   

ffff80000010772a <putux>:
ffff80000010772a:	55                   	push   %rbp
ffff80000010772b:	48 89 e5             	mov    %rsp,%rbp
ffff80000010772e:	48 83 ec 20          	sub    $0x20,%rsp
ffff800000107732:	48 8d 05 f9 ff ff ff 	lea    -0x7(%rip),%rax        # ffff800000107732 <putux+0x8>
ffff800000107739:	49 bb 86 5f 00 00 00 	movabs $0x5f86,%r11
ffff800000107740:	00 00 00 
ffff800000107743:	4c 01 d8             	add    %r11,%rax
ffff800000107746:	48 89 7d f8          	mov    %rdi,-0x8(%rbp)
ffff80000010774a:	89 75 f4             	mov    %esi,-0xc(%rbp)
ffff80000010774d:	89 55 f0             	mov    %edx,-0x10(%rbp)
ffff800000107750:	89 4d ec             	mov    %ecx,-0x14(%rbp)
ffff800000107753:	8b 75 ec             	mov    -0x14(%rbp),%esi
ffff800000107756:	8b 4d f0             	mov    -0x10(%rbp),%ecx
ffff800000107759:	8b 55 f4             	mov    -0xc(%rbp),%edx
ffff80000010775c:	48 8b 7d f8          	mov    -0x8(%rbp),%rdi
ffff800000107760:	41 89 f1             	mov    %esi,%r9d
ffff800000107763:	41 89 c8             	mov    %ecx,%r8d
ffff800000107766:	89 d1                	mov    %edx,%ecx
ffff800000107768:	ba ff ff ff 00       	mov    $0xffffff,%edx
ffff80000010776d:	be 00 00 00 00       	mov    $0x0,%esi
ffff800000107772:	49 ba b2 9e ff ff ff 	movabs $0xffffffffffff9eb2,%r10
ffff800000107779:	ff ff ff 
ffff80000010777c:	4a 8d 04 10          	lea    (%rax,%r10,1),%rax
ffff800000107780:	ff d0                	callq  *%rax
ffff800000107782:	90                   	nop
ffff800000107783:	c9                   	leaveq 
ffff800000107784:	c3                   	retq   

ffff800000107785 <memset>:
ffff800000107785:	55                   	push   %rbp
ffff800000107786:	48 89 e5             	mov    %rsp,%rbp
ffff800000107789:	48 8d 05 f9 ff ff ff 	lea    -0x7(%rip),%rax        # ffff800000107789 <memset+0x4>
ffff800000107790:	49 bb 2f 5f 00 00 00 	movabs $0x5f2f,%r11
ffff800000107797:	00 00 00 
ffff80000010779a:	4c 01 d8             	add    %r11,%rax
ffff80000010779d:	48 89 7d e8          	mov    %rdi,-0x18(%rbp)
ffff8000001077a1:	89 f0                	mov    %esi,%eax
ffff8000001077a3:	48 89 55 d8          	mov    %rdx,-0x28(%rbp)
ffff8000001077a7:	88 45 e4             	mov    %al,-0x1c(%rbp)
ffff8000001077aa:	48 c7 45 f8 00 00 00 	movq   $0x0,-0x8(%rbp)
ffff8000001077b1:	00 
ffff8000001077b2:	eb 1c                	jmp    ffff8000001077d0 <memset+0x4b>
ffff8000001077b4:	48 8b 45 f8          	mov    -0x8(%rbp),%rax
ffff8000001077b8:	48 8d 50 01          	lea    0x1(%rax),%rdx
ffff8000001077bc:	48 89 55 f8          	mov    %rdx,-0x8(%rbp)
ffff8000001077c0:	48 89 c2             	mov    %rax,%rdx
ffff8000001077c3:	48 8b 45 e8          	mov    -0x18(%rbp),%rax
ffff8000001077c7:	48 01 c2             	add    %rax,%rdx
ffff8000001077ca:	0f b6 45 e4          	movzbl -0x1c(%rbp),%eax
ffff8000001077ce:	88 02                	mov    %al,(%rdx)
ffff8000001077d0:	48 8b 45 f8          	mov    -0x8(%rbp),%rax
ffff8000001077d4:	48 3b 45 d8          	cmp    -0x28(%rbp),%rax
ffff8000001077d8:	7c da                	jl     ffff8000001077b4 <memset+0x2f>
ffff8000001077da:	90                   	nop
ffff8000001077db:	5d                   	pop    %rbp
ffff8000001077dc:	c3                   	retq   

ffff8000001077dd <init_interrupt>:
ffff8000001077dd:	55                   	push   %rbp
ffff8000001077de:	48 89 e5             	mov    %rsp,%rbp
ffff8000001077e1:	41 57                	push   %r15
ffff8000001077e3:	53                   	push   %rbx
ffff8000001077e4:	48 83 ec 10          	sub    $0x10,%rsp
ffff8000001077e8:	48 8d 1d f9 ff ff ff 	lea    -0x7(%rip),%rbx        # ffff8000001077e8 <init_interrupt+0xb>
ffff8000001077ef:	49 bb d0 5e 00 00 00 	movabs $0x5ed0,%r11
ffff8000001077f6:	00 00 00 
ffff8000001077f9:	4c 01 db             	add    %r11,%rbx
ffff8000001077fc:	48 b8 28 00 00 00 00 	movabs $0x28,%rax
ffff800000107803:	00 00 00 
ffff800000107806:	48 ba 81 a6 ff ff ff 	movabs $0xffffffffffffa681,%rdx
ffff80000010780d:	ff ff ff 
ffff800000107810:	48 8d 14 13          	lea    (%rbx,%rdx,1),%rdx
ffff800000107814:	48 89 14 03          	mov    %rdx,(%rbx,%rax,1)
ffff800000107818:	48 b8 28 00 00 00 00 	movabs $0x28,%rax
ffff80000010781f:	00 00 00 
ffff800000107822:	48 ba e6 a6 ff ff ff 	movabs $0xffffffffffffa6e6,%rdx
ffff800000107829:	ff ff ff 
ffff80000010782c:	48 8d 14 13          	lea    (%rbx,%rdx,1),%rdx
ffff800000107830:	48 89 54 03 08       	mov    %rdx,0x8(%rbx,%rax,1)
ffff800000107835:	48 b8 28 00 00 00 00 	movabs $0x28,%rax
ffff80000010783c:	00 00 00 
ffff80000010783f:	48 ba 4b a7 ff ff ff 	movabs $0xffffffffffffa74b,%rdx
ffff800000107846:	ff ff ff 
ffff800000107849:	48 8d 14 13          	lea    (%rbx,%rdx,1),%rdx
ffff80000010784d:	48 89 54 03 10       	mov    %rdx,0x10(%rbx,%rax,1)
ffff800000107852:	48 b8 28 00 00 00 00 	movabs $0x28,%rax
ffff800000107859:	00 00 00 
ffff80000010785c:	48 ba b0 a7 ff ff ff 	movabs $0xffffffffffffa7b0,%rdx
ffff800000107863:	ff ff ff 
ffff800000107866:	48 8d 14 13          	lea    (%rbx,%rdx,1),%rdx
ffff80000010786a:	48 89 54 03 18       	mov    %rdx,0x18(%rbx,%rax,1)
ffff80000010786f:	48 b8 28 00 00 00 00 	movabs $0x28,%rax
ffff800000107876:	00 00 00 
ffff800000107879:	48 ba 15 a8 ff ff ff 	movabs $0xffffffffffffa815,%rdx
ffff800000107880:	ff ff ff 
ffff800000107883:	48 8d 14 13          	lea    (%rbx,%rdx,1),%rdx
ffff800000107887:	48 89 54 03 20       	mov    %rdx,0x20(%rbx,%rax,1)
ffff80000010788c:	48 b8 28 00 00 00 00 	movabs $0x28,%rax
ffff800000107893:	00 00 00 
ffff800000107896:	48 ba 7a a8 ff ff ff 	movabs $0xffffffffffffa87a,%rdx
ffff80000010789d:	ff ff ff 
ffff8000001078a0:	48 8d 14 13          	lea    (%rbx,%rdx,1),%rdx
ffff8000001078a4:	48 89 54 03 28       	mov    %rdx,0x28(%rbx,%rax,1)
ffff8000001078a9:	48 b8 28 00 00 00 00 	movabs $0x28,%rax
ffff8000001078b0:	00 00 00 
ffff8000001078b3:	48 ba df a8 ff ff ff 	movabs $0xffffffffffffa8df,%rdx
ffff8000001078ba:	ff ff ff 
ffff8000001078bd:	48 8d 14 13          	lea    (%rbx,%rdx,1),%rdx
ffff8000001078c1:	48 89 54 03 30       	mov    %rdx,0x30(%rbx,%rax,1)
ffff8000001078c6:	48 b8 28 00 00 00 00 	movabs $0x28,%rax
ffff8000001078cd:	00 00 00 
ffff8000001078d0:	48 ba 44 a9 ff ff ff 	movabs $0xffffffffffffa944,%rdx
ffff8000001078d7:	ff ff ff 
ffff8000001078da:	48 8d 14 13          	lea    (%rbx,%rdx,1),%rdx
ffff8000001078de:	48 89 54 03 38       	mov    %rdx,0x38(%rbx,%rax,1)
ffff8000001078e3:	48 b8 28 00 00 00 00 	movabs $0x28,%rax
ffff8000001078ea:	00 00 00 
ffff8000001078ed:	48 ba a9 a9 ff ff ff 	movabs $0xffffffffffffa9a9,%rdx
ffff8000001078f4:	ff ff ff 
ffff8000001078f7:	48 8d 14 13          	lea    (%rbx,%rdx,1),%rdx
ffff8000001078fb:	48 89 54 03 40       	mov    %rdx,0x40(%rbx,%rax,1)
ffff800000107900:	48 b8 28 00 00 00 00 	movabs $0x28,%rax
ffff800000107907:	00 00 00 
ffff80000010790a:	48 ba 0e aa ff ff ff 	movabs $0xffffffffffffaa0e,%rdx
ffff800000107911:	ff ff ff 
ffff800000107914:	48 8d 14 13          	lea    (%rbx,%rdx,1),%rdx
ffff800000107918:	48 89 54 03 48       	mov    %rdx,0x48(%rbx,%rax,1)
ffff80000010791d:	48 b8 28 00 00 00 00 	movabs $0x28,%rax
ffff800000107924:	00 00 00 
ffff800000107927:	48 ba 73 aa ff ff ff 	movabs $0xffffffffffffaa73,%rdx
ffff80000010792e:	ff ff ff 
ffff800000107931:	48 8d 14 13          	lea    (%rbx,%rdx,1),%rdx
ffff800000107935:	48 89 54 03 50       	mov    %rdx,0x50(%rbx,%rax,1)
ffff80000010793a:	48 b8 28 00 00 00 00 	movabs $0x28,%rax
ffff800000107941:	00 00 00 
ffff800000107944:	48 ba d8 aa ff ff ff 	movabs $0xffffffffffffaad8,%rdx
ffff80000010794b:	ff ff ff 
ffff80000010794e:	48 8d 14 13          	lea    (%rbx,%rdx,1),%rdx
ffff800000107952:	48 89 54 03 58       	mov    %rdx,0x58(%rbx,%rax,1)
ffff800000107957:	48 b8 28 00 00 00 00 	movabs $0x28,%rax
ffff80000010795e:	00 00 00 
ffff800000107961:	48 ba 3d ab ff ff ff 	movabs $0xffffffffffffab3d,%rdx
ffff800000107968:	ff ff ff 
ffff80000010796b:	48 8d 14 13          	lea    (%rbx,%rdx,1),%rdx
ffff80000010796f:	48 89 54 03 60       	mov    %rdx,0x60(%rbx,%rax,1)
ffff800000107974:	48 b8 28 00 00 00 00 	movabs $0x28,%rax
ffff80000010797b:	00 00 00 
ffff80000010797e:	48 ba a2 ab ff ff ff 	movabs $0xffffffffffffaba2,%rdx
ffff800000107985:	ff ff ff 
ffff800000107988:	48 8d 14 13          	lea    (%rbx,%rdx,1),%rdx
ffff80000010798c:	48 89 54 03 68       	mov    %rdx,0x68(%rbx,%rax,1)
ffff800000107991:	48 b8 28 00 00 00 00 	movabs $0x28,%rax
ffff800000107998:	00 00 00 
ffff80000010799b:	48 ba 07 ac ff ff ff 	movabs $0xffffffffffffac07,%rdx
ffff8000001079a2:	ff ff ff 
ffff8000001079a5:	48 8d 14 13          	lea    (%rbx,%rdx,1),%rdx
ffff8000001079a9:	48 89 54 03 70       	mov    %rdx,0x70(%rbx,%rax,1)
ffff8000001079ae:	48 b8 28 00 00 00 00 	movabs $0x28,%rax
ffff8000001079b5:	00 00 00 
ffff8000001079b8:	48 ba 6c ac ff ff ff 	movabs $0xffffffffffffac6c,%rdx
ffff8000001079bf:	ff ff ff 
ffff8000001079c2:	48 8d 14 13          	lea    (%rbx,%rdx,1),%rdx
ffff8000001079c6:	48 89 54 03 78       	mov    %rdx,0x78(%rbx,%rax,1)
ffff8000001079cb:	48 b8 28 00 00 00 00 	movabs $0x28,%rax
ffff8000001079d2:	00 00 00 
ffff8000001079d5:	48 ba d1 ac ff ff ff 	movabs $0xffffffffffffacd1,%rdx
ffff8000001079dc:	ff ff ff 
ffff8000001079df:	48 8d 14 13          	lea    (%rbx,%rdx,1),%rdx
ffff8000001079e3:	48 89 94 03 80 00 00 	mov    %rdx,0x80(%rbx,%rax,1)
ffff8000001079ea:	00 
ffff8000001079eb:	48 b8 28 00 00 00 00 	movabs $0x28,%rax
ffff8000001079f2:	00 00 00 
ffff8000001079f5:	48 ba 36 ad ff ff ff 	movabs $0xffffffffffffad36,%rdx
ffff8000001079fc:	ff ff ff 
ffff8000001079ff:	48 8d 14 13          	lea    (%rbx,%rdx,1),%rdx
ffff800000107a03:	48 89 94 03 88 00 00 	mov    %rdx,0x88(%rbx,%rax,1)
ffff800000107a0a:	00 
ffff800000107a0b:	48 b8 28 00 00 00 00 	movabs $0x28,%rax
ffff800000107a12:	00 00 00 
ffff800000107a15:	48 ba 9b ad ff ff ff 	movabs $0xffffffffffffad9b,%rdx
ffff800000107a1c:	ff ff ff 
ffff800000107a1f:	48 8d 14 13          	lea    (%rbx,%rdx,1),%rdx
ffff800000107a23:	48 89 94 03 90 00 00 	mov    %rdx,0x90(%rbx,%rax,1)
ffff800000107a2a:	00 
ffff800000107a2b:	48 b8 28 00 00 00 00 	movabs $0x28,%rax
ffff800000107a32:	00 00 00 
ffff800000107a35:	48 ba 00 ae ff ff ff 	movabs $0xffffffffffffae00,%rdx
ffff800000107a3c:	ff ff ff 
ffff800000107a3f:	48 8d 14 13          	lea    (%rbx,%rdx,1),%rdx
ffff800000107a43:	48 89 94 03 98 00 00 	mov    %rdx,0x98(%rbx,%rax,1)
ffff800000107a4a:	00 
ffff800000107a4b:	48 b8 28 00 00 00 00 	movabs $0x28,%rax
ffff800000107a52:	00 00 00 
ffff800000107a55:	48 ba 65 ae ff ff ff 	movabs $0xffffffffffffae65,%rdx
ffff800000107a5c:	ff ff ff 
ffff800000107a5f:	48 8d 14 13          	lea    (%rbx,%rdx,1),%rdx
ffff800000107a63:	48 89 94 03 a0 00 00 	mov    %rdx,0xa0(%rbx,%rax,1)
ffff800000107a6a:	00 
ffff800000107a6b:	48 b8 28 00 00 00 00 	movabs $0x28,%rax
ffff800000107a72:	00 00 00 
ffff800000107a75:	48 ba ca ae ff ff ff 	movabs $0xffffffffffffaeca,%rdx
ffff800000107a7c:	ff ff ff 
ffff800000107a7f:	48 8d 14 13          	lea    (%rbx,%rdx,1),%rdx
ffff800000107a83:	48 89 94 03 a8 00 00 	mov    %rdx,0xa8(%rbx,%rax,1)
ffff800000107a8a:	00 
ffff800000107a8b:	48 b8 28 00 00 00 00 	movabs $0x28,%rax
ffff800000107a92:	00 00 00 
ffff800000107a95:	48 ba 2f af ff ff ff 	movabs $0xffffffffffffaf2f,%rdx
ffff800000107a9c:	ff ff ff 
ffff800000107a9f:	48 8d 14 13          	lea    (%rbx,%rdx,1),%rdx
ffff800000107aa3:	48 89 94 03 b0 00 00 	mov    %rdx,0xb0(%rbx,%rax,1)
ffff800000107aaa:	00 
ffff800000107aab:	48 b8 28 00 00 00 00 	movabs $0x28,%rax
ffff800000107ab2:	00 00 00 
ffff800000107ab5:	48 ba 94 af ff ff ff 	movabs $0xffffffffffffaf94,%rdx
ffff800000107abc:	ff ff ff 
ffff800000107abf:	48 8d 14 13          	lea    (%rbx,%rdx,1),%rdx
ffff800000107ac3:	48 89 94 03 b8 00 00 	mov    %rdx,0xb8(%rbx,%rax,1)
ffff800000107aca:	00 
ffff800000107acb:	c7 45 ec 20 00 00 00 	movl   $0x20,-0x14(%rbp)
ffff800000107ad2:	eb 3e                	jmp    ffff800000107b12 <init_interrupt+0x335>
ffff800000107ad4:	8b 45 ec             	mov    -0x14(%rbp),%eax
ffff800000107ad7:	83 e8 20             	sub    $0x20,%eax
ffff800000107ada:	48 ba 28 00 00 00 00 	movabs $0x28,%rdx
ffff800000107ae1:	00 00 00 
ffff800000107ae4:	48 98                	cltq   
ffff800000107ae6:	48 01 da             	add    %rbx,%rdx
ffff800000107ae9:	48 8b 14 c2          	mov    (%rdx,%rax,8),%rdx
ffff800000107aed:	8b 45 ec             	mov    -0x14(%rbp),%eax
ffff800000107af0:	be 02 00 00 00       	mov    $0x2,%esi
ffff800000107af5:	89 c7                	mov    %eax,%edi
ffff800000107af7:	49 89 df             	mov    %rbx,%r15
ffff800000107afa:	b8 00 00 00 00       	mov    $0x0,%eax
ffff800000107aff:	48 b9 51 6b ff ff ff 	movabs $0xffffffffffff6b51,%rcx
ffff800000107b06:	ff ff ff 
ffff800000107b09:	48 01 d9             	add    %rbx,%rcx
ffff800000107b0c:	ff d1                	callq  *%rcx
ffff800000107b0e:	83 45 ec 01          	addl   $0x1,-0x14(%rbp)
ffff800000107b12:	83 7d ec 37          	cmpl   $0x37,-0x14(%rbp)
ffff800000107b16:	7e bc                	jle    ffff800000107ad4 <init_interrupt+0x2f7>
ffff800000107b18:	48 b8 bf d1 ff ff ff 	movabs $0xffffffffffffd1bf,%rax
ffff800000107b1f:	ff ff ff 
ffff800000107b22:	48 8d 14 03          	lea    (%rbx,%rax,1),%rdx
ffff800000107b26:	be 00 00 ff 00       	mov    $0xff0000,%esi
ffff800000107b2b:	bf 00 00 00 00       	mov    $0x0,%edi
ffff800000107b30:	49 89 df             	mov    %rbx,%r15
ffff800000107b33:	b8 00 00 00 00       	mov    $0x0,%eax
ffff800000107b38:	48 b9 11 83 ff ff ff 	movabs $0xffffffffffff8311,%rcx
ffff800000107b3f:	ff ff ff 
ffff800000107b42:	48 01 d9             	add    %rbx,%rcx
ffff800000107b45:	ff d1                	callq  *%rcx
ffff800000107b47:	be 11 00 00 00       	mov    $0x11,%esi
ffff800000107b4c:	bf 20 00 00 00       	mov    $0x20,%edi
ffff800000107b51:	48 b8 4f a6 ff ff ff 	movabs $0xffffffffffffa64f,%rax
ffff800000107b58:	ff ff ff 
ffff800000107b5b:	48 8d 04 03          	lea    (%rbx,%rax,1),%rax
ffff800000107b5f:	ff d0                	callq  *%rax
ffff800000107b61:	be 20 00 00 00       	mov    $0x20,%esi
ffff800000107b66:	bf 21 00 00 00       	mov    $0x21,%edi
ffff800000107b6b:	48 b8 4f a6 ff ff ff 	movabs $0xffffffffffffa64f,%rax
ffff800000107b72:	ff ff ff 
ffff800000107b75:	48 8d 04 03          	lea    (%rbx,%rax,1),%rax
ffff800000107b79:	ff d0                	callq  *%rax
ffff800000107b7b:	be 04 00 00 00       	mov    $0x4,%esi
ffff800000107b80:	bf 21 00 00 00       	mov    $0x21,%edi
ffff800000107b85:	48 b8 4f a6 ff ff ff 	movabs $0xffffffffffffa64f,%rax
ffff800000107b8c:	ff ff ff 
ffff800000107b8f:	48 8d 04 03          	lea    (%rbx,%rax,1),%rax
ffff800000107b93:	ff d0                	callq  *%rax
ffff800000107b95:	be 01 00 00 00       	mov    $0x1,%esi
ffff800000107b9a:	bf 21 00 00 00       	mov    $0x21,%edi
ffff800000107b9f:	48 b8 4f a6 ff ff ff 	movabs $0xffffffffffffa64f,%rax
ffff800000107ba6:	ff ff ff 
ffff800000107ba9:	48 8d 04 03          	lea    (%rbx,%rax,1),%rax
ffff800000107bad:	ff d0                	callq  *%rax
ffff800000107baf:	be 11 00 00 00       	mov    $0x11,%esi
ffff800000107bb4:	bf a0 00 00 00       	mov    $0xa0,%edi
ffff800000107bb9:	48 b8 4f a6 ff ff ff 	movabs $0xffffffffffffa64f,%rax
ffff800000107bc0:	ff ff ff 
ffff800000107bc3:	48 8d 04 03          	lea    (%rbx,%rax,1),%rax
ffff800000107bc7:	ff d0                	callq  *%rax
ffff800000107bc9:	be 28 00 00 00       	mov    $0x28,%esi
ffff800000107bce:	bf a1 00 00 00       	mov    $0xa1,%edi
ffff800000107bd3:	48 b8 4f a6 ff ff ff 	movabs $0xffffffffffffa64f,%rax
ffff800000107bda:	ff ff ff 
ffff800000107bdd:	48 8d 04 03          	lea    (%rbx,%rax,1),%rax
ffff800000107be1:	ff d0                	callq  *%rax
ffff800000107be3:	be 02 00 00 00       	mov    $0x2,%esi
ffff800000107be8:	bf a1 00 00 00       	mov    $0xa1,%edi
ffff800000107bed:	48 b8 4f a6 ff ff ff 	movabs $0xffffffffffffa64f,%rax
ffff800000107bf4:	ff ff ff 
ffff800000107bf7:	48 8d 04 03          	lea    (%rbx,%rax,1),%rax
ffff800000107bfb:	ff d0                	callq  *%rax
ffff800000107bfd:	be 01 00 00 00       	mov    $0x1,%esi
ffff800000107c02:	bf a1 00 00 00       	mov    $0xa1,%edi
ffff800000107c07:	48 b8 4f a6 ff ff ff 	movabs $0xffffffffffffa64f,%rax
ffff800000107c0e:	ff ff ff 
ffff800000107c11:	48 8d 04 03          	lea    (%rbx,%rax,1),%rax
ffff800000107c15:	ff d0                	callq  *%rax
ffff800000107c17:	be 00 00 00 00       	mov    $0x0,%esi
ffff800000107c1c:	bf 21 00 00 00       	mov    $0x21,%edi
ffff800000107c21:	48 b8 4f a6 ff ff ff 	movabs $0xffffffffffffa64f,%rax
ffff800000107c28:	ff ff ff 
ffff800000107c2b:	48 8d 04 03          	lea    (%rbx,%rax,1),%rax
ffff800000107c2f:	ff d0                	callq  *%rax
ffff800000107c31:	be 00 00 00 00       	mov    $0x0,%esi
ffff800000107c36:	bf a1 00 00 00       	mov    $0xa1,%edi
ffff800000107c3b:	48 b8 4f a6 ff ff ff 	movabs $0xffffffffffffa64f,%rax
ffff800000107c42:	ff ff ff 
ffff800000107c45:	48 8d 04 03          	lea    (%rbx,%rax,1),%rax
ffff800000107c49:	ff d0                	callq  *%rax
ffff800000107c4b:	fb                   	sti    
ffff800000107c4c:	90                   	nop
ffff800000107c4d:	48 83 c4 10          	add    $0x10,%rsp
ffff800000107c51:	5b                   	pop    %rbx
ffff800000107c52:	41 5f                	pop    %r15
ffff800000107c54:	5d                   	pop    %rbp
ffff800000107c55:	c3                   	retq   

ffff800000107c56 <do_IRQ>:
ffff800000107c56:	55                   	push   %rbp
ffff800000107c57:	48 89 e5             	mov    %rsp,%rbp
ffff800000107c5a:	41 57                	push   %r15
ffff800000107c5c:	53                   	push   %rbx
ffff800000107c5d:	48 83 ec 10          	sub    $0x10,%rsp
ffff800000107c61:	48 8d 1d f9 ff ff ff 	lea    -0x7(%rip),%rbx        # ffff800000107c61 <do_IRQ+0xb>
ffff800000107c68:	49 bb 57 5a 00 00 00 	movabs $0x5a57,%r11
ffff800000107c6f:	00 00 00 
ffff800000107c72:	4c 01 db             	add    %r11,%rbx
ffff800000107c75:	48 89 7d e8          	mov    %rdi,-0x18(%rbp)
ffff800000107c79:	48 89 75 e0          	mov    %rsi,-0x20(%rbp)
ffff800000107c7d:	48 8b 45 e0          	mov    -0x20(%rbp),%rax
ffff800000107c81:	48 89 c1             	mov    %rax,%rcx
ffff800000107c84:	48 b8 cc d1 ff ff ff 	movabs $0xffffffffffffd1cc,%rax
ffff800000107c8b:	ff ff ff 
ffff800000107c8e:	48 8d 14 03          	lea    (%rbx,%rax,1),%rdx
ffff800000107c92:	be 00 00 ff 00       	mov    $0xff0000,%esi
ffff800000107c97:	bf 00 00 00 00       	mov    $0x0,%edi
ffff800000107c9c:	49 89 df             	mov    %rbx,%r15
ffff800000107c9f:	b8 00 00 00 00       	mov    $0x0,%eax
ffff800000107ca4:	49 b8 11 83 ff ff ff 	movabs $0xffffffffffff8311,%r8
ffff800000107cab:	ff ff ff 
ffff800000107cae:	49 01 d8             	add    %rbx,%r8
ffff800000107cb1:	41 ff d0             	callq  *%r8
ffff800000107cb4:	be 20 00 00 00       	mov    $0x20,%esi
ffff800000107cb9:	bf 20 00 00 00       	mov    $0x20,%edi
ffff800000107cbe:	48 b8 4f a6 ff ff ff 	movabs $0xffffffffffffa64f,%rax
ffff800000107cc5:	ff ff ff 
ffff800000107cc8:	48 8d 04 03          	lea    (%rbx,%rax,1),%rax
ffff800000107ccc:	ff d0                	callq  *%rax
ffff800000107cce:	90                   	nop
ffff800000107ccf:	48 83 c4 10          	add    $0x10,%rsp
ffff800000107cd3:	5b                   	pop    %rbx
ffff800000107cd4:	41 5f                	pop    %r15
ffff800000107cd6:	5d                   	pop    %rbp
ffff800000107cd7:	c3                   	retq   

ffff800000107cd8 <io_out32>:
ffff800000107cd8:	55                   	push   %rbp
ffff800000107cd9:	48 89 e5             	mov    %rsp,%rbp
ffff800000107cdc:	48 8d 05 f9 ff ff ff 	lea    -0x7(%rip),%rax        # ffff800000107cdc <io_out32+0x4>
ffff800000107ce3:	49 bb dc 59 00 00 00 	movabs $0x59dc,%r11
ffff800000107cea:	00 00 00 
ffff800000107ced:	4c 01 d8             	add    %r11,%rax
ffff800000107cf0:	89 f8                	mov    %edi,%eax
ffff800000107cf2:	89 75 f8             	mov    %esi,-0x8(%rbp)
ffff800000107cf5:	66 89 45 fc          	mov    %ax,-0x4(%rbp)
ffff800000107cf9:	8b 45 f8             	mov    -0x8(%rbp),%eax
ffff800000107cfc:	0f b7 55 fc          	movzwl -0x4(%rbp),%edx
ffff800000107d00:	ef                   	out    %eax,(%dx)
ffff800000107d01:	0f ae f0             	mfence 
ffff800000107d04:	90                   	nop
ffff800000107d05:	5d                   	pop    %rbp
ffff800000107d06:	c3                   	retq   

ffff800000107d07 <io_out8>:
ffff800000107d07:	55                   	push   %rbp
ffff800000107d08:	48 89 e5             	mov    %rsp,%rbp
ffff800000107d0b:	48 8d 05 f9 ff ff ff 	lea    -0x7(%rip),%rax        # ffff800000107d0b <io_out8+0x4>
ffff800000107d12:	49 bb ad 59 00 00 00 	movabs $0x59ad,%r11
ffff800000107d19:	00 00 00 
ffff800000107d1c:	4c 01 d8             	add    %r11,%rax
ffff800000107d1f:	89 fa                	mov    %edi,%edx
ffff800000107d21:	89 f0                	mov    %esi,%eax
ffff800000107d23:	66 89 55 fc          	mov    %dx,-0x4(%rbp)
ffff800000107d27:	88 45 f8             	mov    %al,-0x8(%rbp)
ffff800000107d2a:	0f b6 45 f8          	movzbl -0x8(%rbp),%eax
ffff800000107d2e:	0f b7 55 fc          	movzwl -0x4(%rbp),%edx
ffff800000107d32:	ee                   	out    %al,(%dx)
ffff800000107d33:	0f ae f0             	mfence 
ffff800000107d36:	90                   	nop
ffff800000107d37:	5d                   	pop    %rbp
ffff800000107d38:	c3                   	retq   

ffff800000107d39 <IRQ0x20_interrupt>:
ffff800000107d39:	55                   	push   %rbp
ffff800000107d3a:	48 89 e5             	mov    %rsp,%rbp
ffff800000107d3d:	48 8d 05 f9 ff ff ff 	lea    -0x7(%rip),%rax        # ffff800000107d3d <IRQ0x20_interrupt+0x4>
ffff800000107d44:	49 bb 7b 59 00 00 00 	movabs $0x597b,%r11
ffff800000107d4b:	00 00 00 
ffff800000107d4e:	4c 01 d8             	add    %r11,%rax

ffff800000107d51 <IRQ_0x20interrupt>:
ffff800000107d51:	6a 00                	pushq  $0x0
ffff800000107d53:	fc                   	cld    
ffff800000107d54:	50                   	push   %rax
ffff800000107d55:	50                   	push   %rax
ffff800000107d56:	48 8c c0             	mov    %es,%rax
ffff800000107d59:	50                   	push   %rax
ffff800000107d5a:	48 8c d8             	mov    %ds,%rax
ffff800000107d5d:	50                   	push   %rax
ffff800000107d5e:	48 31 c0             	xor    %rax,%rax
ffff800000107d61:	55                   	push   %rbp
ffff800000107d62:	57                   	push   %rdi
ffff800000107d63:	56                   	push   %rsi
ffff800000107d64:	52                   	push   %rdx
ffff800000107d65:	51                   	push   %rcx
ffff800000107d66:	53                   	push   %rbx
ffff800000107d67:	41 50                	push   %r8
ffff800000107d69:	41 51                	push   %r9
ffff800000107d6b:	41 52                	push   %r10
ffff800000107d6d:	41 53                	push   %r11
ffff800000107d6f:	41 54                	push   %r12
ffff800000107d71:	41 55                	push   %r13
ffff800000107d73:	41 56                	push   %r14
ffff800000107d75:	41 57                	push   %r15
ffff800000107d77:	48 c7 c2 10 00 00 00 	mov    $0x10,%rdx
ffff800000107d7e:	48 8e da             	mov    %rdx,%ds
ffff800000107d81:	48 8e c2             	mov    %rdx,%es
ffff800000107d84:	48 89 e7             	mov    %rsp,%rdi
ffff800000107d87:	48 8d 05 97 c2 ff ff 	lea    -0x3d69(%rip),%rax        # ffff800000104025 <ret_from_intr>
ffff800000107d8e:	50                   	push   %rax
ffff800000107d8f:	48 c7 c6 20 00 00 00 	mov    $0x20,%rsi
ffff800000107d96:	e9 bb fe ff ff       	jmpq   ffff800000107c56 <do_IRQ>
ffff800000107d9b:	90                   	nop
ffff800000107d9c:	5d                   	pop    %rbp
ffff800000107d9d:	c3                   	retq   

ffff800000107d9e <IRQ0x21_interrupt>:
ffff800000107d9e:	55                   	push   %rbp
ffff800000107d9f:	48 89 e5             	mov    %rsp,%rbp
ffff800000107da2:	48 8d 05 f9 ff ff ff 	lea    -0x7(%rip),%rax        # ffff800000107da2 <IRQ0x21_interrupt+0x4>
ffff800000107da9:	49 bb 16 59 00 00 00 	movabs $0x5916,%r11
ffff800000107db0:	00 00 00 
ffff800000107db3:	4c 01 d8             	add    %r11,%rax

ffff800000107db6 <IRQ_0x21interrupt>:
ffff800000107db6:	6a 00                	pushq  $0x0
ffff800000107db8:	fc                   	cld    
ffff800000107db9:	50                   	push   %rax
ffff800000107dba:	50                   	push   %rax
ffff800000107dbb:	48 8c c0             	mov    %es,%rax
ffff800000107dbe:	50                   	push   %rax
ffff800000107dbf:	48 8c d8             	mov    %ds,%rax
ffff800000107dc2:	50                   	push   %rax
ffff800000107dc3:	48 31 c0             	xor    %rax,%rax
ffff800000107dc6:	55                   	push   %rbp
ffff800000107dc7:	57                   	push   %rdi
ffff800000107dc8:	56                   	push   %rsi
ffff800000107dc9:	52                   	push   %rdx
ffff800000107dca:	51                   	push   %rcx
ffff800000107dcb:	53                   	push   %rbx
ffff800000107dcc:	41 50                	push   %r8
ffff800000107dce:	41 51                	push   %r9
ffff800000107dd0:	41 52                	push   %r10
ffff800000107dd2:	41 53                	push   %r11
ffff800000107dd4:	41 54                	push   %r12
ffff800000107dd6:	41 55                	push   %r13
ffff800000107dd8:	41 56                	push   %r14
ffff800000107dda:	41 57                	push   %r15
ffff800000107ddc:	48 c7 c2 10 00 00 00 	mov    $0x10,%rdx
ffff800000107de3:	48 8e da             	mov    %rdx,%ds
ffff800000107de6:	48 8e c2             	mov    %rdx,%es
ffff800000107de9:	48 89 e7             	mov    %rsp,%rdi
ffff800000107dec:	48 8d 05 32 c2 ff ff 	lea    -0x3dce(%rip),%rax        # ffff800000104025 <ret_from_intr>
ffff800000107df3:	50                   	push   %rax
ffff800000107df4:	48 c7 c6 21 00 00 00 	mov    $0x21,%rsi
ffff800000107dfb:	e9 56 fe ff ff       	jmpq   ffff800000107c56 <do_IRQ>
ffff800000107e00:	90                   	nop
ffff800000107e01:	5d                   	pop    %rbp
ffff800000107e02:	c3                   	retq   

ffff800000107e03 <IRQ0x22_interrupt>:
ffff800000107e03:	55                   	push   %rbp
ffff800000107e04:	48 89 e5             	mov    %rsp,%rbp
ffff800000107e07:	48 8d 05 f9 ff ff ff 	lea    -0x7(%rip),%rax        # ffff800000107e07 <IRQ0x22_interrupt+0x4>
ffff800000107e0e:	49 bb b1 58 00 00 00 	movabs $0x58b1,%r11
ffff800000107e15:	00 00 00 
ffff800000107e18:	4c 01 d8             	add    %r11,%rax

ffff800000107e1b <IRQ_0x22interrupt>:
ffff800000107e1b:	6a 00                	pushq  $0x0
ffff800000107e1d:	fc                   	cld    
ffff800000107e1e:	50                   	push   %rax
ffff800000107e1f:	50                   	push   %rax
ffff800000107e20:	48 8c c0             	mov    %es,%rax
ffff800000107e23:	50                   	push   %rax
ffff800000107e24:	48 8c d8             	mov    %ds,%rax
ffff800000107e27:	50                   	push   %rax
ffff800000107e28:	48 31 c0             	xor    %rax,%rax
ffff800000107e2b:	55                   	push   %rbp
ffff800000107e2c:	57                   	push   %rdi
ffff800000107e2d:	56                   	push   %rsi
ffff800000107e2e:	52                   	push   %rdx
ffff800000107e2f:	51                   	push   %rcx
ffff800000107e30:	53                   	push   %rbx
ffff800000107e31:	41 50                	push   %r8
ffff800000107e33:	41 51                	push   %r9
ffff800000107e35:	41 52                	push   %r10
ffff800000107e37:	41 53                	push   %r11
ffff800000107e39:	41 54                	push   %r12
ffff800000107e3b:	41 55                	push   %r13
ffff800000107e3d:	41 56                	push   %r14
ffff800000107e3f:	41 57                	push   %r15
ffff800000107e41:	48 c7 c2 10 00 00 00 	mov    $0x10,%rdx
ffff800000107e48:	48 8e da             	mov    %rdx,%ds
ffff800000107e4b:	48 8e c2             	mov    %rdx,%es
ffff800000107e4e:	48 89 e7             	mov    %rsp,%rdi
ffff800000107e51:	48 8d 05 cd c1 ff ff 	lea    -0x3e33(%rip),%rax        # ffff800000104025 <ret_from_intr>
ffff800000107e58:	50                   	push   %rax
ffff800000107e59:	48 c7 c6 22 00 00 00 	mov    $0x22,%rsi
ffff800000107e60:	e9 f1 fd ff ff       	jmpq   ffff800000107c56 <do_IRQ>
ffff800000107e65:	90                   	nop
ffff800000107e66:	5d                   	pop    %rbp
ffff800000107e67:	c3                   	retq   

ffff800000107e68 <IRQ0x23_interrupt>:
ffff800000107e68:	55                   	push   %rbp
ffff800000107e69:	48 89 e5             	mov    %rsp,%rbp
ffff800000107e6c:	48 8d 05 f9 ff ff ff 	lea    -0x7(%rip),%rax        # ffff800000107e6c <IRQ0x23_interrupt+0x4>
ffff800000107e73:	49 bb 4c 58 00 00 00 	movabs $0x584c,%r11
ffff800000107e7a:	00 00 00 
ffff800000107e7d:	4c 01 d8             	add    %r11,%rax

ffff800000107e80 <IRQ_0x23interrupt>:
ffff800000107e80:	6a 00                	pushq  $0x0
ffff800000107e82:	fc                   	cld    
ffff800000107e83:	50                   	push   %rax
ffff800000107e84:	50                   	push   %rax
ffff800000107e85:	48 8c c0             	mov    %es,%rax
ffff800000107e88:	50                   	push   %rax
ffff800000107e89:	48 8c d8             	mov    %ds,%rax
ffff800000107e8c:	50                   	push   %rax
ffff800000107e8d:	48 31 c0             	xor    %rax,%rax
ffff800000107e90:	55                   	push   %rbp
ffff800000107e91:	57                   	push   %rdi
ffff800000107e92:	56                   	push   %rsi
ffff800000107e93:	52                   	push   %rdx
ffff800000107e94:	51                   	push   %rcx
ffff800000107e95:	53                   	push   %rbx
ffff800000107e96:	41 50                	push   %r8
ffff800000107e98:	41 51                	push   %r9
ffff800000107e9a:	41 52                	push   %r10
ffff800000107e9c:	41 53                	push   %r11
ffff800000107e9e:	41 54                	push   %r12
ffff800000107ea0:	41 55                	push   %r13
ffff800000107ea2:	41 56                	push   %r14
ffff800000107ea4:	41 57                	push   %r15
ffff800000107ea6:	48 c7 c2 10 00 00 00 	mov    $0x10,%rdx
ffff800000107ead:	48 8e da             	mov    %rdx,%ds
ffff800000107eb0:	48 8e c2             	mov    %rdx,%es
ffff800000107eb3:	48 89 e7             	mov    %rsp,%rdi
ffff800000107eb6:	48 8d 05 68 c1 ff ff 	lea    -0x3e98(%rip),%rax        # ffff800000104025 <ret_from_intr>
ffff800000107ebd:	50                   	push   %rax
ffff800000107ebe:	48 c7 c6 23 00 00 00 	mov    $0x23,%rsi
ffff800000107ec5:	e9 8c fd ff ff       	jmpq   ffff800000107c56 <do_IRQ>
ffff800000107eca:	90                   	nop
ffff800000107ecb:	5d                   	pop    %rbp
ffff800000107ecc:	c3                   	retq   

ffff800000107ecd <IRQ0x24_interrupt>:
ffff800000107ecd:	55                   	push   %rbp
ffff800000107ece:	48 89 e5             	mov    %rsp,%rbp
ffff800000107ed1:	48 8d 05 f9 ff ff ff 	lea    -0x7(%rip),%rax        # ffff800000107ed1 <IRQ0x24_interrupt+0x4>
ffff800000107ed8:	49 bb e7 57 00 00 00 	movabs $0x57e7,%r11
ffff800000107edf:	00 00 00 
ffff800000107ee2:	4c 01 d8             	add    %r11,%rax

ffff800000107ee5 <IRQ_0x24interrupt>:
ffff800000107ee5:	6a 00                	pushq  $0x0
ffff800000107ee7:	fc                   	cld    
ffff800000107ee8:	50                   	push   %rax
ffff800000107ee9:	50                   	push   %rax
ffff800000107eea:	48 8c c0             	mov    %es,%rax
ffff800000107eed:	50                   	push   %rax
ffff800000107eee:	48 8c d8             	mov    %ds,%rax
ffff800000107ef1:	50                   	push   %rax
ffff800000107ef2:	48 31 c0             	xor    %rax,%rax
ffff800000107ef5:	55                   	push   %rbp
ffff800000107ef6:	57                   	push   %rdi
ffff800000107ef7:	56                   	push   %rsi
ffff800000107ef8:	52                   	push   %rdx
ffff800000107ef9:	51                   	push   %rcx
ffff800000107efa:	53                   	push   %rbx
ffff800000107efb:	41 50                	push   %r8
ffff800000107efd:	41 51                	push   %r9
ffff800000107eff:	41 52                	push   %r10
ffff800000107f01:	41 53                	push   %r11
ffff800000107f03:	41 54                	push   %r12
ffff800000107f05:	41 55                	push   %r13
ffff800000107f07:	41 56                	push   %r14
ffff800000107f09:	41 57                	push   %r15
ffff800000107f0b:	48 c7 c2 10 00 00 00 	mov    $0x10,%rdx
ffff800000107f12:	48 8e da             	mov    %rdx,%ds
ffff800000107f15:	48 8e c2             	mov    %rdx,%es
ffff800000107f18:	48 89 e7             	mov    %rsp,%rdi
ffff800000107f1b:	48 8d 05 03 c1 ff ff 	lea    -0x3efd(%rip),%rax        # ffff800000104025 <ret_from_intr>
ffff800000107f22:	50                   	push   %rax
ffff800000107f23:	48 c7 c6 24 00 00 00 	mov    $0x24,%rsi
ffff800000107f2a:	e9 27 fd ff ff       	jmpq   ffff800000107c56 <do_IRQ>
ffff800000107f2f:	90                   	nop
ffff800000107f30:	5d                   	pop    %rbp
ffff800000107f31:	c3                   	retq   

ffff800000107f32 <IRQ0x25_interrupt>:
ffff800000107f32:	55                   	push   %rbp
ffff800000107f33:	48 89 e5             	mov    %rsp,%rbp
ffff800000107f36:	48 8d 05 f9 ff ff ff 	lea    -0x7(%rip),%rax        # ffff800000107f36 <IRQ0x25_interrupt+0x4>
ffff800000107f3d:	49 bb 82 57 00 00 00 	movabs $0x5782,%r11
ffff800000107f44:	00 00 00 
ffff800000107f47:	4c 01 d8             	add    %r11,%rax

ffff800000107f4a <IRQ_0x25interrupt>:
ffff800000107f4a:	6a 00                	pushq  $0x0
ffff800000107f4c:	fc                   	cld    
ffff800000107f4d:	50                   	push   %rax
ffff800000107f4e:	50                   	push   %rax
ffff800000107f4f:	48 8c c0             	mov    %es,%rax
ffff800000107f52:	50                   	push   %rax
ffff800000107f53:	48 8c d8             	mov    %ds,%rax
ffff800000107f56:	50                   	push   %rax
ffff800000107f57:	48 31 c0             	xor    %rax,%rax
ffff800000107f5a:	55                   	push   %rbp
ffff800000107f5b:	57                   	push   %rdi
ffff800000107f5c:	56                   	push   %rsi
ffff800000107f5d:	52                   	push   %rdx
ffff800000107f5e:	51                   	push   %rcx
ffff800000107f5f:	53                   	push   %rbx
ffff800000107f60:	41 50                	push   %r8
ffff800000107f62:	41 51                	push   %r9
ffff800000107f64:	41 52                	push   %r10
ffff800000107f66:	41 53                	push   %r11
ffff800000107f68:	41 54                	push   %r12
ffff800000107f6a:	41 55                	push   %r13
ffff800000107f6c:	41 56                	push   %r14
ffff800000107f6e:	41 57                	push   %r15
ffff800000107f70:	48 c7 c2 10 00 00 00 	mov    $0x10,%rdx
ffff800000107f77:	48 8e da             	mov    %rdx,%ds
ffff800000107f7a:	48 8e c2             	mov    %rdx,%es
ffff800000107f7d:	48 89 e7             	mov    %rsp,%rdi
ffff800000107f80:	48 8d 05 9e c0 ff ff 	lea    -0x3f62(%rip),%rax        # ffff800000104025 <ret_from_intr>
ffff800000107f87:	50                   	push   %rax
ffff800000107f88:	48 c7 c6 25 00 00 00 	mov    $0x25,%rsi
ffff800000107f8f:	e9 c2 fc ff ff       	jmpq   ffff800000107c56 <do_IRQ>
ffff800000107f94:	90                   	nop
ffff800000107f95:	5d                   	pop    %rbp
ffff800000107f96:	c3                   	retq   

ffff800000107f97 <IRQ0x26_interrupt>:
ffff800000107f97:	55                   	push   %rbp
ffff800000107f98:	48 89 e5             	mov    %rsp,%rbp
ffff800000107f9b:	48 8d 05 f9 ff ff ff 	lea    -0x7(%rip),%rax        # ffff800000107f9b <IRQ0x26_interrupt+0x4>
ffff800000107fa2:	49 bb 1d 57 00 00 00 	movabs $0x571d,%r11
ffff800000107fa9:	00 00 00 
ffff800000107fac:	4c 01 d8             	add    %r11,%rax

ffff800000107faf <IRQ_0x26interrupt>:
ffff800000107faf:	6a 00                	pushq  $0x0
ffff800000107fb1:	fc                   	cld    
ffff800000107fb2:	50                   	push   %rax
ffff800000107fb3:	50                   	push   %rax
ffff800000107fb4:	48 8c c0             	mov    %es,%rax
ffff800000107fb7:	50                   	push   %rax
ffff800000107fb8:	48 8c d8             	mov    %ds,%rax
ffff800000107fbb:	50                   	push   %rax
ffff800000107fbc:	48 31 c0             	xor    %rax,%rax
ffff800000107fbf:	55                   	push   %rbp
ffff800000107fc0:	57                   	push   %rdi
ffff800000107fc1:	56                   	push   %rsi
ffff800000107fc2:	52                   	push   %rdx
ffff800000107fc3:	51                   	push   %rcx
ffff800000107fc4:	53                   	push   %rbx
ffff800000107fc5:	41 50                	push   %r8
ffff800000107fc7:	41 51                	push   %r9
ffff800000107fc9:	41 52                	push   %r10
ffff800000107fcb:	41 53                	push   %r11
ffff800000107fcd:	41 54                	push   %r12
ffff800000107fcf:	41 55                	push   %r13
ffff800000107fd1:	41 56                	push   %r14
ffff800000107fd3:	41 57                	push   %r15
ffff800000107fd5:	48 c7 c2 10 00 00 00 	mov    $0x10,%rdx
ffff800000107fdc:	48 8e da             	mov    %rdx,%ds
ffff800000107fdf:	48 8e c2             	mov    %rdx,%es
ffff800000107fe2:	48 89 e7             	mov    %rsp,%rdi
ffff800000107fe5:	48 8d 05 39 c0 ff ff 	lea    -0x3fc7(%rip),%rax        # ffff800000104025 <ret_from_intr>
ffff800000107fec:	50                   	push   %rax
ffff800000107fed:	48 c7 c6 26 00 00 00 	mov    $0x26,%rsi
ffff800000107ff4:	e9 5d fc ff ff       	jmpq   ffff800000107c56 <do_IRQ>
ffff800000107ff9:	90                   	nop
ffff800000107ffa:	5d                   	pop    %rbp
ffff800000107ffb:	c3                   	retq   

ffff800000107ffc <IRQ0x27_interrupt>:
ffff800000107ffc:	55                   	push   %rbp
ffff800000107ffd:	48 89 e5             	mov    %rsp,%rbp
ffff800000108000:	48 8d 05 f9 ff ff ff 	lea    -0x7(%rip),%rax        # ffff800000108000 <IRQ0x27_interrupt+0x4>
ffff800000108007:	49 bb b8 56 00 00 00 	movabs $0x56b8,%r11
ffff80000010800e:	00 00 00 
ffff800000108011:	4c 01 d8             	add    %r11,%rax

ffff800000108014 <IRQ_0x27interrupt>:
ffff800000108014:	6a 00                	pushq  $0x0
ffff800000108016:	fc                   	cld    
ffff800000108017:	50                   	push   %rax
ffff800000108018:	50                   	push   %rax
ffff800000108019:	48 8c c0             	mov    %es,%rax
ffff80000010801c:	50                   	push   %rax
ffff80000010801d:	48 8c d8             	mov    %ds,%rax
ffff800000108020:	50                   	push   %rax
ffff800000108021:	48 31 c0             	xor    %rax,%rax
ffff800000108024:	55                   	push   %rbp
ffff800000108025:	57                   	push   %rdi
ffff800000108026:	56                   	push   %rsi
ffff800000108027:	52                   	push   %rdx
ffff800000108028:	51                   	push   %rcx
ffff800000108029:	53                   	push   %rbx
ffff80000010802a:	41 50                	push   %r8
ffff80000010802c:	41 51                	push   %r9
ffff80000010802e:	41 52                	push   %r10
ffff800000108030:	41 53                	push   %r11
ffff800000108032:	41 54                	push   %r12
ffff800000108034:	41 55                	push   %r13
ffff800000108036:	41 56                	push   %r14
ffff800000108038:	41 57                	push   %r15
ffff80000010803a:	48 c7 c2 10 00 00 00 	mov    $0x10,%rdx
ffff800000108041:	48 8e da             	mov    %rdx,%ds
ffff800000108044:	48 8e c2             	mov    %rdx,%es
ffff800000108047:	48 89 e7             	mov    %rsp,%rdi
ffff80000010804a:	48 8d 05 d4 bf ff ff 	lea    -0x402c(%rip),%rax        # ffff800000104025 <ret_from_intr>
ffff800000108051:	50                   	push   %rax
ffff800000108052:	48 c7 c6 27 00 00 00 	mov    $0x27,%rsi
ffff800000108059:	e9 f8 fb ff ff       	jmpq   ffff800000107c56 <do_IRQ>
ffff80000010805e:	90                   	nop
ffff80000010805f:	5d                   	pop    %rbp
ffff800000108060:	c3                   	retq   

ffff800000108061 <IRQ0x28_interrupt>:
ffff800000108061:	55                   	push   %rbp
ffff800000108062:	48 89 e5             	mov    %rsp,%rbp
ffff800000108065:	48 8d 05 f9 ff ff ff 	lea    -0x7(%rip),%rax        # ffff800000108065 <IRQ0x28_interrupt+0x4>
ffff80000010806c:	49 bb 53 56 00 00 00 	movabs $0x5653,%r11
ffff800000108073:	00 00 00 
ffff800000108076:	4c 01 d8             	add    %r11,%rax

ffff800000108079 <IRQ_0x28interrupt>:
ffff800000108079:	6a 00                	pushq  $0x0
ffff80000010807b:	fc                   	cld    
ffff80000010807c:	50                   	push   %rax
ffff80000010807d:	50                   	push   %rax
ffff80000010807e:	48 8c c0             	mov    %es,%rax
ffff800000108081:	50                   	push   %rax
ffff800000108082:	48 8c d8             	mov    %ds,%rax
ffff800000108085:	50                   	push   %rax
ffff800000108086:	48 31 c0             	xor    %rax,%rax
ffff800000108089:	55                   	push   %rbp
ffff80000010808a:	57                   	push   %rdi
ffff80000010808b:	56                   	push   %rsi
ffff80000010808c:	52                   	push   %rdx
ffff80000010808d:	51                   	push   %rcx
ffff80000010808e:	53                   	push   %rbx
ffff80000010808f:	41 50                	push   %r8
ffff800000108091:	41 51                	push   %r9
ffff800000108093:	41 52                	push   %r10
ffff800000108095:	41 53                	push   %r11
ffff800000108097:	41 54                	push   %r12
ffff800000108099:	41 55                	push   %r13
ffff80000010809b:	41 56                	push   %r14
ffff80000010809d:	41 57                	push   %r15
ffff80000010809f:	48 c7 c2 10 00 00 00 	mov    $0x10,%rdx
ffff8000001080a6:	48 8e da             	mov    %rdx,%ds
ffff8000001080a9:	48 8e c2             	mov    %rdx,%es
ffff8000001080ac:	48 89 e7             	mov    %rsp,%rdi
ffff8000001080af:	48 8d 05 6f bf ff ff 	lea    -0x4091(%rip),%rax        # ffff800000104025 <ret_from_intr>
ffff8000001080b6:	50                   	push   %rax
ffff8000001080b7:	48 c7 c6 28 00 00 00 	mov    $0x28,%rsi
ffff8000001080be:	e9 93 fb ff ff       	jmpq   ffff800000107c56 <do_IRQ>
ffff8000001080c3:	90                   	nop
ffff8000001080c4:	5d                   	pop    %rbp
ffff8000001080c5:	c3                   	retq   

ffff8000001080c6 <IRQ0x29_interrupt>:
ffff8000001080c6:	55                   	push   %rbp
ffff8000001080c7:	48 89 e5             	mov    %rsp,%rbp
ffff8000001080ca:	48 8d 05 f9 ff ff ff 	lea    -0x7(%rip),%rax        # ffff8000001080ca <IRQ0x29_interrupt+0x4>
ffff8000001080d1:	49 bb ee 55 00 00 00 	movabs $0x55ee,%r11
ffff8000001080d8:	00 00 00 
ffff8000001080db:	4c 01 d8             	add    %r11,%rax

ffff8000001080de <IRQ_0x29interrupt>:
ffff8000001080de:	6a 00                	pushq  $0x0
ffff8000001080e0:	fc                   	cld    
ffff8000001080e1:	50                   	push   %rax
ffff8000001080e2:	50                   	push   %rax
ffff8000001080e3:	48 8c c0             	mov    %es,%rax
ffff8000001080e6:	50                   	push   %rax
ffff8000001080e7:	48 8c d8             	mov    %ds,%rax
ffff8000001080ea:	50                   	push   %rax
ffff8000001080eb:	48 31 c0             	xor    %rax,%rax
ffff8000001080ee:	55                   	push   %rbp
ffff8000001080ef:	57                   	push   %rdi
ffff8000001080f0:	56                   	push   %rsi
ffff8000001080f1:	52                   	push   %rdx
ffff8000001080f2:	51                   	push   %rcx
ffff8000001080f3:	53                   	push   %rbx
ffff8000001080f4:	41 50                	push   %r8
ffff8000001080f6:	41 51                	push   %r9
ffff8000001080f8:	41 52                	push   %r10
ffff8000001080fa:	41 53                	push   %r11
ffff8000001080fc:	41 54                	push   %r12
ffff8000001080fe:	41 55                	push   %r13
ffff800000108100:	41 56                	push   %r14
ffff800000108102:	41 57                	push   %r15
ffff800000108104:	48 c7 c2 10 00 00 00 	mov    $0x10,%rdx
ffff80000010810b:	48 8e da             	mov    %rdx,%ds
ffff80000010810e:	48 8e c2             	mov    %rdx,%es
ffff800000108111:	48 89 e7             	mov    %rsp,%rdi
ffff800000108114:	48 8d 05 0a bf ff ff 	lea    -0x40f6(%rip),%rax        # ffff800000104025 <ret_from_intr>
ffff80000010811b:	50                   	push   %rax
ffff80000010811c:	48 c7 c6 29 00 00 00 	mov    $0x29,%rsi
ffff800000108123:	e9 2e fb ff ff       	jmpq   ffff800000107c56 <do_IRQ>
ffff800000108128:	90                   	nop
ffff800000108129:	5d                   	pop    %rbp
ffff80000010812a:	c3                   	retq   

ffff80000010812b <IRQ0x2a_interrupt>:
ffff80000010812b:	55                   	push   %rbp
ffff80000010812c:	48 89 e5             	mov    %rsp,%rbp
ffff80000010812f:	48 8d 05 f9 ff ff ff 	lea    -0x7(%rip),%rax        # ffff80000010812f <IRQ0x2a_interrupt+0x4>
ffff800000108136:	49 bb 89 55 00 00 00 	movabs $0x5589,%r11
ffff80000010813d:	00 00 00 
ffff800000108140:	4c 01 d8             	add    %r11,%rax

ffff800000108143 <IRQ_0x2ainterrupt>:
ffff800000108143:	6a 00                	pushq  $0x0
ffff800000108145:	fc                   	cld    
ffff800000108146:	50                   	push   %rax
ffff800000108147:	50                   	push   %rax
ffff800000108148:	48 8c c0             	mov    %es,%rax
ffff80000010814b:	50                   	push   %rax
ffff80000010814c:	48 8c d8             	mov    %ds,%rax
ffff80000010814f:	50                   	push   %rax
ffff800000108150:	48 31 c0             	xor    %rax,%rax
ffff800000108153:	55                   	push   %rbp
ffff800000108154:	57                   	push   %rdi
ffff800000108155:	56                   	push   %rsi
ffff800000108156:	52                   	push   %rdx
ffff800000108157:	51                   	push   %rcx
ffff800000108158:	53                   	push   %rbx
ffff800000108159:	41 50                	push   %r8
ffff80000010815b:	41 51                	push   %r9
ffff80000010815d:	41 52                	push   %r10
ffff80000010815f:	41 53                	push   %r11
ffff800000108161:	41 54                	push   %r12
ffff800000108163:	41 55                	push   %r13
ffff800000108165:	41 56                	push   %r14
ffff800000108167:	41 57                	push   %r15
ffff800000108169:	48 c7 c2 10 00 00 00 	mov    $0x10,%rdx
ffff800000108170:	48 8e da             	mov    %rdx,%ds
ffff800000108173:	48 8e c2             	mov    %rdx,%es
ffff800000108176:	48 89 e7             	mov    %rsp,%rdi
ffff800000108179:	48 8d 05 a5 be ff ff 	lea    -0x415b(%rip),%rax        # ffff800000104025 <ret_from_intr>
ffff800000108180:	50                   	push   %rax
ffff800000108181:	48 c7 c6 2a 00 00 00 	mov    $0x2a,%rsi
ffff800000108188:	e9 c9 fa ff ff       	jmpq   ffff800000107c56 <do_IRQ>
ffff80000010818d:	90                   	nop
ffff80000010818e:	5d                   	pop    %rbp
ffff80000010818f:	c3                   	retq   

ffff800000108190 <IRQ0x2b_interrupt>:
ffff800000108190:	55                   	push   %rbp
ffff800000108191:	48 89 e5             	mov    %rsp,%rbp
ffff800000108194:	48 8d 05 f9 ff ff ff 	lea    -0x7(%rip),%rax        # ffff800000108194 <IRQ0x2b_interrupt+0x4>
ffff80000010819b:	49 bb 24 55 00 00 00 	movabs $0x5524,%r11
ffff8000001081a2:	00 00 00 
ffff8000001081a5:	4c 01 d8             	add    %r11,%rax

ffff8000001081a8 <IRQ_0x2binterrupt>:
ffff8000001081a8:	6a 00                	pushq  $0x0
ffff8000001081aa:	fc                   	cld    
ffff8000001081ab:	50                   	push   %rax
ffff8000001081ac:	50                   	push   %rax
ffff8000001081ad:	48 8c c0             	mov    %es,%rax
ffff8000001081b0:	50                   	push   %rax
ffff8000001081b1:	48 8c d8             	mov    %ds,%rax
ffff8000001081b4:	50                   	push   %rax
ffff8000001081b5:	48 31 c0             	xor    %rax,%rax
ffff8000001081b8:	55                   	push   %rbp
ffff8000001081b9:	57                   	push   %rdi
ffff8000001081ba:	56                   	push   %rsi
ffff8000001081bb:	52                   	push   %rdx
ffff8000001081bc:	51                   	push   %rcx
ffff8000001081bd:	53                   	push   %rbx
ffff8000001081be:	41 50                	push   %r8
ffff8000001081c0:	41 51                	push   %r9
ffff8000001081c2:	41 52                	push   %r10
ffff8000001081c4:	41 53                	push   %r11
ffff8000001081c6:	41 54                	push   %r12
ffff8000001081c8:	41 55                	push   %r13
ffff8000001081ca:	41 56                	push   %r14
ffff8000001081cc:	41 57                	push   %r15
ffff8000001081ce:	48 c7 c2 10 00 00 00 	mov    $0x10,%rdx
ffff8000001081d5:	48 8e da             	mov    %rdx,%ds
ffff8000001081d8:	48 8e c2             	mov    %rdx,%es
ffff8000001081db:	48 89 e7             	mov    %rsp,%rdi
ffff8000001081de:	48 8d 05 40 be ff ff 	lea    -0x41c0(%rip),%rax        # ffff800000104025 <ret_from_intr>
ffff8000001081e5:	50                   	push   %rax
ffff8000001081e6:	48 c7 c6 2b 00 00 00 	mov    $0x2b,%rsi
ffff8000001081ed:	e9 64 fa ff ff       	jmpq   ffff800000107c56 <do_IRQ>
ffff8000001081f2:	90                   	nop
ffff8000001081f3:	5d                   	pop    %rbp
ffff8000001081f4:	c3                   	retq   

ffff8000001081f5 <IRQ0x2c_interrupt>:
ffff8000001081f5:	55                   	push   %rbp
ffff8000001081f6:	48 89 e5             	mov    %rsp,%rbp
ffff8000001081f9:	48 8d 05 f9 ff ff ff 	lea    -0x7(%rip),%rax        # ffff8000001081f9 <IRQ0x2c_interrupt+0x4>
ffff800000108200:	49 bb bf 54 00 00 00 	movabs $0x54bf,%r11
ffff800000108207:	00 00 00 
ffff80000010820a:	4c 01 d8             	add    %r11,%rax

ffff80000010820d <IRQ_0x2cinterrupt>:
ffff80000010820d:	6a 00                	pushq  $0x0
ffff80000010820f:	fc                   	cld    
ffff800000108210:	50                   	push   %rax
ffff800000108211:	50                   	push   %rax
ffff800000108212:	48 8c c0             	mov    %es,%rax
ffff800000108215:	50                   	push   %rax
ffff800000108216:	48 8c d8             	mov    %ds,%rax
ffff800000108219:	50                   	push   %rax
ffff80000010821a:	48 31 c0             	xor    %rax,%rax
ffff80000010821d:	55                   	push   %rbp
ffff80000010821e:	57                   	push   %rdi
ffff80000010821f:	56                   	push   %rsi
ffff800000108220:	52                   	push   %rdx
ffff800000108221:	51                   	push   %rcx
ffff800000108222:	53                   	push   %rbx
ffff800000108223:	41 50                	push   %r8
ffff800000108225:	41 51                	push   %r9
ffff800000108227:	41 52                	push   %r10
ffff800000108229:	41 53                	push   %r11
ffff80000010822b:	41 54                	push   %r12
ffff80000010822d:	41 55                	push   %r13
ffff80000010822f:	41 56                	push   %r14
ffff800000108231:	41 57                	push   %r15
ffff800000108233:	48 c7 c2 10 00 00 00 	mov    $0x10,%rdx
ffff80000010823a:	48 8e da             	mov    %rdx,%ds
ffff80000010823d:	48 8e c2             	mov    %rdx,%es
ffff800000108240:	48 89 e7             	mov    %rsp,%rdi
ffff800000108243:	48 8d 05 db bd ff ff 	lea    -0x4225(%rip),%rax        # ffff800000104025 <ret_from_intr>
ffff80000010824a:	50                   	push   %rax
ffff80000010824b:	48 c7 c6 2c 00 00 00 	mov    $0x2c,%rsi
ffff800000108252:	e9 ff f9 ff ff       	jmpq   ffff800000107c56 <do_IRQ>
ffff800000108257:	90                   	nop
ffff800000108258:	5d                   	pop    %rbp
ffff800000108259:	c3                   	retq   

ffff80000010825a <IRQ0x2d_interrupt>:
ffff80000010825a:	55                   	push   %rbp
ffff80000010825b:	48 89 e5             	mov    %rsp,%rbp
ffff80000010825e:	48 8d 05 f9 ff ff ff 	lea    -0x7(%rip),%rax        # ffff80000010825e <IRQ0x2d_interrupt+0x4>
ffff800000108265:	49 bb 5a 54 00 00 00 	movabs $0x545a,%r11
ffff80000010826c:	00 00 00 
ffff80000010826f:	4c 01 d8             	add    %r11,%rax

ffff800000108272 <IRQ_0x2dinterrupt>:
ffff800000108272:	6a 00                	pushq  $0x0
ffff800000108274:	fc                   	cld    
ffff800000108275:	50                   	push   %rax
ffff800000108276:	50                   	push   %rax
ffff800000108277:	48 8c c0             	mov    %es,%rax
ffff80000010827a:	50                   	push   %rax
ffff80000010827b:	48 8c d8             	mov    %ds,%rax
ffff80000010827e:	50                   	push   %rax
ffff80000010827f:	48 31 c0             	xor    %rax,%rax
ffff800000108282:	55                   	push   %rbp
ffff800000108283:	57                   	push   %rdi
ffff800000108284:	56                   	push   %rsi
ffff800000108285:	52                   	push   %rdx
ffff800000108286:	51                   	push   %rcx
ffff800000108287:	53                   	push   %rbx
ffff800000108288:	41 50                	push   %r8
ffff80000010828a:	41 51                	push   %r9
ffff80000010828c:	41 52                	push   %r10
ffff80000010828e:	41 53                	push   %r11
ffff800000108290:	41 54                	push   %r12
ffff800000108292:	41 55                	push   %r13
ffff800000108294:	41 56                	push   %r14
ffff800000108296:	41 57                	push   %r15
ffff800000108298:	48 c7 c2 10 00 00 00 	mov    $0x10,%rdx
ffff80000010829f:	48 8e da             	mov    %rdx,%ds
ffff8000001082a2:	48 8e c2             	mov    %rdx,%es
ffff8000001082a5:	48 89 e7             	mov    %rsp,%rdi
ffff8000001082a8:	48 8d 05 76 bd ff ff 	lea    -0x428a(%rip),%rax        # ffff800000104025 <ret_from_intr>
ffff8000001082af:	50                   	push   %rax
ffff8000001082b0:	48 c7 c6 2d 00 00 00 	mov    $0x2d,%rsi
ffff8000001082b7:	e9 9a f9 ff ff       	jmpq   ffff800000107c56 <do_IRQ>
ffff8000001082bc:	90                   	nop
ffff8000001082bd:	5d                   	pop    %rbp
ffff8000001082be:	c3                   	retq   

ffff8000001082bf <IRQ0x2e_interrupt>:
ffff8000001082bf:	55                   	push   %rbp
ffff8000001082c0:	48 89 e5             	mov    %rsp,%rbp
ffff8000001082c3:	48 8d 05 f9 ff ff ff 	lea    -0x7(%rip),%rax        # ffff8000001082c3 <IRQ0x2e_interrupt+0x4>
ffff8000001082ca:	49 bb f5 53 00 00 00 	movabs $0x53f5,%r11
ffff8000001082d1:	00 00 00 
ffff8000001082d4:	4c 01 d8             	add    %r11,%rax

ffff8000001082d7 <IRQ_0x2einterrupt>:
ffff8000001082d7:	6a 00                	pushq  $0x0
ffff8000001082d9:	fc                   	cld    
ffff8000001082da:	50                   	push   %rax
ffff8000001082db:	50                   	push   %rax
ffff8000001082dc:	48 8c c0             	mov    %es,%rax
ffff8000001082df:	50                   	push   %rax
ffff8000001082e0:	48 8c d8             	mov    %ds,%rax
ffff8000001082e3:	50                   	push   %rax
ffff8000001082e4:	48 31 c0             	xor    %rax,%rax
ffff8000001082e7:	55                   	push   %rbp
ffff8000001082e8:	57                   	push   %rdi
ffff8000001082e9:	56                   	push   %rsi
ffff8000001082ea:	52                   	push   %rdx
ffff8000001082eb:	51                   	push   %rcx
ffff8000001082ec:	53                   	push   %rbx
ffff8000001082ed:	41 50                	push   %r8
ffff8000001082ef:	41 51                	push   %r9
ffff8000001082f1:	41 52                	push   %r10
ffff8000001082f3:	41 53                	push   %r11
ffff8000001082f5:	41 54                	push   %r12
ffff8000001082f7:	41 55                	push   %r13
ffff8000001082f9:	41 56                	push   %r14
ffff8000001082fb:	41 57                	push   %r15
ffff8000001082fd:	48 c7 c2 10 00 00 00 	mov    $0x10,%rdx
ffff800000108304:	48 8e da             	mov    %rdx,%ds
ffff800000108307:	48 8e c2             	mov    %rdx,%es
ffff80000010830a:	48 89 e7             	mov    %rsp,%rdi
ffff80000010830d:	48 8d 05 11 bd ff ff 	lea    -0x42ef(%rip),%rax        # ffff800000104025 <ret_from_intr>
ffff800000108314:	50                   	push   %rax
ffff800000108315:	48 c7 c6 2e 00 00 00 	mov    $0x2e,%rsi
ffff80000010831c:	e9 35 f9 ff ff       	jmpq   ffff800000107c56 <do_IRQ>
ffff800000108321:	90                   	nop
ffff800000108322:	5d                   	pop    %rbp
ffff800000108323:	c3                   	retq   

ffff800000108324 <IRQ0x2f_interrupt>:
ffff800000108324:	55                   	push   %rbp
ffff800000108325:	48 89 e5             	mov    %rsp,%rbp
ffff800000108328:	48 8d 05 f9 ff ff ff 	lea    -0x7(%rip),%rax        # ffff800000108328 <IRQ0x2f_interrupt+0x4>
ffff80000010832f:	49 bb 90 53 00 00 00 	movabs $0x5390,%r11
ffff800000108336:	00 00 00 
ffff800000108339:	4c 01 d8             	add    %r11,%rax

ffff80000010833c <IRQ_0x2finterrupt>:
ffff80000010833c:	6a 00                	pushq  $0x0
ffff80000010833e:	fc                   	cld    
ffff80000010833f:	50                   	push   %rax
ffff800000108340:	50                   	push   %rax
ffff800000108341:	48 8c c0             	mov    %es,%rax
ffff800000108344:	50                   	push   %rax
ffff800000108345:	48 8c d8             	mov    %ds,%rax
ffff800000108348:	50                   	push   %rax
ffff800000108349:	48 31 c0             	xor    %rax,%rax
ffff80000010834c:	55                   	push   %rbp
ffff80000010834d:	57                   	push   %rdi
ffff80000010834e:	56                   	push   %rsi
ffff80000010834f:	52                   	push   %rdx
ffff800000108350:	51                   	push   %rcx
ffff800000108351:	53                   	push   %rbx
ffff800000108352:	41 50                	push   %r8
ffff800000108354:	41 51                	push   %r9
ffff800000108356:	41 52                	push   %r10
ffff800000108358:	41 53                	push   %r11
ffff80000010835a:	41 54                	push   %r12
ffff80000010835c:	41 55                	push   %r13
ffff80000010835e:	41 56                	push   %r14
ffff800000108360:	41 57                	push   %r15
ffff800000108362:	48 c7 c2 10 00 00 00 	mov    $0x10,%rdx
ffff800000108369:	48 8e da             	mov    %rdx,%ds
ffff80000010836c:	48 8e c2             	mov    %rdx,%es
ffff80000010836f:	48 89 e7             	mov    %rsp,%rdi
ffff800000108372:	48 8d 05 ac bc ff ff 	lea    -0x4354(%rip),%rax        # ffff800000104025 <ret_from_intr>
ffff800000108379:	50                   	push   %rax
ffff80000010837a:	48 c7 c6 2f 00 00 00 	mov    $0x2f,%rsi
ffff800000108381:	e9 d0 f8 ff ff       	jmpq   ffff800000107c56 <do_IRQ>
ffff800000108386:	90                   	nop
ffff800000108387:	5d                   	pop    %rbp
ffff800000108388:	c3                   	retq   

ffff800000108389 <IRQ0x30_interrupt>:
ffff800000108389:	55                   	push   %rbp
ffff80000010838a:	48 89 e5             	mov    %rsp,%rbp
ffff80000010838d:	48 8d 05 f9 ff ff ff 	lea    -0x7(%rip),%rax        # ffff80000010838d <IRQ0x30_interrupt+0x4>
ffff800000108394:	49 bb 2b 53 00 00 00 	movabs $0x532b,%r11
ffff80000010839b:	00 00 00 
ffff80000010839e:	4c 01 d8             	add    %r11,%rax

ffff8000001083a1 <IRQ_0x30interrupt>:
ffff8000001083a1:	6a 00                	pushq  $0x0
ffff8000001083a3:	fc                   	cld    
ffff8000001083a4:	50                   	push   %rax
ffff8000001083a5:	50                   	push   %rax
ffff8000001083a6:	48 8c c0             	mov    %es,%rax
ffff8000001083a9:	50                   	push   %rax
ffff8000001083aa:	48 8c d8             	mov    %ds,%rax
ffff8000001083ad:	50                   	push   %rax
ffff8000001083ae:	48 31 c0             	xor    %rax,%rax
ffff8000001083b1:	55                   	push   %rbp
ffff8000001083b2:	57                   	push   %rdi
ffff8000001083b3:	56                   	push   %rsi
ffff8000001083b4:	52                   	push   %rdx
ffff8000001083b5:	51                   	push   %rcx
ffff8000001083b6:	53                   	push   %rbx
ffff8000001083b7:	41 50                	push   %r8
ffff8000001083b9:	41 51                	push   %r9
ffff8000001083bb:	41 52                	push   %r10
ffff8000001083bd:	41 53                	push   %r11
ffff8000001083bf:	41 54                	push   %r12
ffff8000001083c1:	41 55                	push   %r13
ffff8000001083c3:	41 56                	push   %r14
ffff8000001083c5:	41 57                	push   %r15
ffff8000001083c7:	48 c7 c2 10 00 00 00 	mov    $0x10,%rdx
ffff8000001083ce:	48 8e da             	mov    %rdx,%ds
ffff8000001083d1:	48 8e c2             	mov    %rdx,%es
ffff8000001083d4:	48 89 e7             	mov    %rsp,%rdi
ffff8000001083d7:	48 8d 05 47 bc ff ff 	lea    -0x43b9(%rip),%rax        # ffff800000104025 <ret_from_intr>
ffff8000001083de:	50                   	push   %rax
ffff8000001083df:	48 c7 c6 30 00 00 00 	mov    $0x30,%rsi
ffff8000001083e6:	e9 6b f8 ff ff       	jmpq   ffff800000107c56 <do_IRQ>
ffff8000001083eb:	90                   	nop
ffff8000001083ec:	5d                   	pop    %rbp
ffff8000001083ed:	c3                   	retq   

ffff8000001083ee <IRQ0x31_interrupt>:
ffff8000001083ee:	55                   	push   %rbp
ffff8000001083ef:	48 89 e5             	mov    %rsp,%rbp
ffff8000001083f2:	48 8d 05 f9 ff ff ff 	lea    -0x7(%rip),%rax        # ffff8000001083f2 <IRQ0x31_interrupt+0x4>
ffff8000001083f9:	49 bb c6 52 00 00 00 	movabs $0x52c6,%r11
ffff800000108400:	00 00 00 
ffff800000108403:	4c 01 d8             	add    %r11,%rax

ffff800000108406 <IRQ_0x31interrupt>:
ffff800000108406:	6a 00                	pushq  $0x0
ffff800000108408:	fc                   	cld    
ffff800000108409:	50                   	push   %rax
ffff80000010840a:	50                   	push   %rax
ffff80000010840b:	48 8c c0             	mov    %es,%rax
ffff80000010840e:	50                   	push   %rax
ffff80000010840f:	48 8c d8             	mov    %ds,%rax
ffff800000108412:	50                   	push   %rax
ffff800000108413:	48 31 c0             	xor    %rax,%rax
ffff800000108416:	55                   	push   %rbp
ffff800000108417:	57                   	push   %rdi
ffff800000108418:	56                   	push   %rsi
ffff800000108419:	52                   	push   %rdx
ffff80000010841a:	51                   	push   %rcx
ffff80000010841b:	53                   	push   %rbx
ffff80000010841c:	41 50                	push   %r8
ffff80000010841e:	41 51                	push   %r9
ffff800000108420:	41 52                	push   %r10
ffff800000108422:	41 53                	push   %r11
ffff800000108424:	41 54                	push   %r12
ffff800000108426:	41 55                	push   %r13
ffff800000108428:	41 56                	push   %r14
ffff80000010842a:	41 57                	push   %r15
ffff80000010842c:	48 c7 c2 10 00 00 00 	mov    $0x10,%rdx
ffff800000108433:	48 8e da             	mov    %rdx,%ds
ffff800000108436:	48 8e c2             	mov    %rdx,%es
ffff800000108439:	48 89 e7             	mov    %rsp,%rdi
ffff80000010843c:	48 8d 05 e2 bb ff ff 	lea    -0x441e(%rip),%rax        # ffff800000104025 <ret_from_intr>
ffff800000108443:	50                   	push   %rax
ffff800000108444:	48 c7 c6 31 00 00 00 	mov    $0x31,%rsi
ffff80000010844b:	e9 06 f8 ff ff       	jmpq   ffff800000107c56 <do_IRQ>
ffff800000108450:	90                   	nop
ffff800000108451:	5d                   	pop    %rbp
ffff800000108452:	c3                   	retq   

ffff800000108453 <IRQ0x32_interrupt>:
ffff800000108453:	55                   	push   %rbp
ffff800000108454:	48 89 e5             	mov    %rsp,%rbp
ffff800000108457:	48 8d 05 f9 ff ff ff 	lea    -0x7(%rip),%rax        # ffff800000108457 <IRQ0x32_interrupt+0x4>
ffff80000010845e:	49 bb 61 52 00 00 00 	movabs $0x5261,%r11
ffff800000108465:	00 00 00 
ffff800000108468:	4c 01 d8             	add    %r11,%rax

ffff80000010846b <IRQ_0x32interrupt>:
ffff80000010846b:	6a 00                	pushq  $0x0
ffff80000010846d:	fc                   	cld    
ffff80000010846e:	50                   	push   %rax
ffff80000010846f:	50                   	push   %rax
ffff800000108470:	48 8c c0             	mov    %es,%rax
ffff800000108473:	50                   	push   %rax
ffff800000108474:	48 8c d8             	mov    %ds,%rax
ffff800000108477:	50                   	push   %rax
ffff800000108478:	48 31 c0             	xor    %rax,%rax
ffff80000010847b:	55                   	push   %rbp
ffff80000010847c:	57                   	push   %rdi
ffff80000010847d:	56                   	push   %rsi
ffff80000010847e:	52                   	push   %rdx
ffff80000010847f:	51                   	push   %rcx
ffff800000108480:	53                   	push   %rbx
ffff800000108481:	41 50                	push   %r8
ffff800000108483:	41 51                	push   %r9
ffff800000108485:	41 52                	push   %r10
ffff800000108487:	41 53                	push   %r11
ffff800000108489:	41 54                	push   %r12
ffff80000010848b:	41 55                	push   %r13
ffff80000010848d:	41 56                	push   %r14
ffff80000010848f:	41 57                	push   %r15
ffff800000108491:	48 c7 c2 10 00 00 00 	mov    $0x10,%rdx
ffff800000108498:	48 8e da             	mov    %rdx,%ds
ffff80000010849b:	48 8e c2             	mov    %rdx,%es
ffff80000010849e:	48 89 e7             	mov    %rsp,%rdi
ffff8000001084a1:	48 8d 05 7d bb ff ff 	lea    -0x4483(%rip),%rax        # ffff800000104025 <ret_from_intr>
ffff8000001084a8:	50                   	push   %rax
ffff8000001084a9:	48 c7 c6 32 00 00 00 	mov    $0x32,%rsi
ffff8000001084b0:	e9 a1 f7 ff ff       	jmpq   ffff800000107c56 <do_IRQ>
ffff8000001084b5:	90                   	nop
ffff8000001084b6:	5d                   	pop    %rbp
ffff8000001084b7:	c3                   	retq   

ffff8000001084b8 <IRQ0x33_interrupt>:
ffff8000001084b8:	55                   	push   %rbp
ffff8000001084b9:	48 89 e5             	mov    %rsp,%rbp
ffff8000001084bc:	48 8d 05 f9 ff ff ff 	lea    -0x7(%rip),%rax        # ffff8000001084bc <IRQ0x33_interrupt+0x4>
ffff8000001084c3:	49 bb fc 51 00 00 00 	movabs $0x51fc,%r11
ffff8000001084ca:	00 00 00 
ffff8000001084cd:	4c 01 d8             	add    %r11,%rax

ffff8000001084d0 <IRQ_0x33interrupt>:
ffff8000001084d0:	6a 00                	pushq  $0x0
ffff8000001084d2:	fc                   	cld    
ffff8000001084d3:	50                   	push   %rax
ffff8000001084d4:	50                   	push   %rax
ffff8000001084d5:	48 8c c0             	mov    %es,%rax
ffff8000001084d8:	50                   	push   %rax
ffff8000001084d9:	48 8c d8             	mov    %ds,%rax
ffff8000001084dc:	50                   	push   %rax
ffff8000001084dd:	48 31 c0             	xor    %rax,%rax
ffff8000001084e0:	55                   	push   %rbp
ffff8000001084e1:	57                   	push   %rdi
ffff8000001084e2:	56                   	push   %rsi
ffff8000001084e3:	52                   	push   %rdx
ffff8000001084e4:	51                   	push   %rcx
ffff8000001084e5:	53                   	push   %rbx
ffff8000001084e6:	41 50                	push   %r8
ffff8000001084e8:	41 51                	push   %r9
ffff8000001084ea:	41 52                	push   %r10
ffff8000001084ec:	41 53                	push   %r11
ffff8000001084ee:	41 54                	push   %r12
ffff8000001084f0:	41 55                	push   %r13
ffff8000001084f2:	41 56                	push   %r14
ffff8000001084f4:	41 57                	push   %r15
ffff8000001084f6:	48 c7 c2 10 00 00 00 	mov    $0x10,%rdx
ffff8000001084fd:	48 8e da             	mov    %rdx,%ds
ffff800000108500:	48 8e c2             	mov    %rdx,%es
ffff800000108503:	48 89 e7             	mov    %rsp,%rdi
ffff800000108506:	48 8d 05 18 bb ff ff 	lea    -0x44e8(%rip),%rax        # ffff800000104025 <ret_from_intr>
ffff80000010850d:	50                   	push   %rax
ffff80000010850e:	48 c7 c6 33 00 00 00 	mov    $0x33,%rsi
ffff800000108515:	e9 3c f7 ff ff       	jmpq   ffff800000107c56 <do_IRQ>
ffff80000010851a:	90                   	nop
ffff80000010851b:	5d                   	pop    %rbp
ffff80000010851c:	c3                   	retq   

ffff80000010851d <IRQ0x34_interrupt>:
ffff80000010851d:	55                   	push   %rbp
ffff80000010851e:	48 89 e5             	mov    %rsp,%rbp
ffff800000108521:	48 8d 05 f9 ff ff ff 	lea    -0x7(%rip),%rax        # ffff800000108521 <IRQ0x34_interrupt+0x4>
ffff800000108528:	49 bb 97 51 00 00 00 	movabs $0x5197,%r11
ffff80000010852f:	00 00 00 
ffff800000108532:	4c 01 d8             	add    %r11,%rax

ffff800000108535 <IRQ_0x34interrupt>:
ffff800000108535:	6a 00                	pushq  $0x0
ffff800000108537:	fc                   	cld    
ffff800000108538:	50                   	push   %rax
ffff800000108539:	50                   	push   %rax
ffff80000010853a:	48 8c c0             	mov    %es,%rax
ffff80000010853d:	50                   	push   %rax
ffff80000010853e:	48 8c d8             	mov    %ds,%rax
ffff800000108541:	50                   	push   %rax
ffff800000108542:	48 31 c0             	xor    %rax,%rax
ffff800000108545:	55                   	push   %rbp
ffff800000108546:	57                   	push   %rdi
ffff800000108547:	56                   	push   %rsi
ffff800000108548:	52                   	push   %rdx
ffff800000108549:	51                   	push   %rcx
ffff80000010854a:	53                   	push   %rbx
ffff80000010854b:	41 50                	push   %r8
ffff80000010854d:	41 51                	push   %r9
ffff80000010854f:	41 52                	push   %r10
ffff800000108551:	41 53                	push   %r11
ffff800000108553:	41 54                	push   %r12
ffff800000108555:	41 55                	push   %r13
ffff800000108557:	41 56                	push   %r14
ffff800000108559:	41 57                	push   %r15
ffff80000010855b:	48 c7 c2 10 00 00 00 	mov    $0x10,%rdx
ffff800000108562:	48 8e da             	mov    %rdx,%ds
ffff800000108565:	48 8e c2             	mov    %rdx,%es
ffff800000108568:	48 89 e7             	mov    %rsp,%rdi
ffff80000010856b:	48 8d 05 b3 ba ff ff 	lea    -0x454d(%rip),%rax        # ffff800000104025 <ret_from_intr>
ffff800000108572:	50                   	push   %rax
ffff800000108573:	48 c7 c6 34 00 00 00 	mov    $0x34,%rsi
ffff80000010857a:	e9 d7 f6 ff ff       	jmpq   ffff800000107c56 <do_IRQ>
ffff80000010857f:	90                   	nop
ffff800000108580:	5d                   	pop    %rbp
ffff800000108581:	c3                   	retq   

ffff800000108582 <IRQ0x35_interrupt>:
ffff800000108582:	55                   	push   %rbp
ffff800000108583:	48 89 e5             	mov    %rsp,%rbp
ffff800000108586:	48 8d 05 f9 ff ff ff 	lea    -0x7(%rip),%rax        # ffff800000108586 <IRQ0x35_interrupt+0x4>
ffff80000010858d:	49 bb 32 51 00 00 00 	movabs $0x5132,%r11
ffff800000108594:	00 00 00 
ffff800000108597:	4c 01 d8             	add    %r11,%rax

ffff80000010859a <IRQ_0x35interrupt>:
ffff80000010859a:	6a 00                	pushq  $0x0
ffff80000010859c:	fc                   	cld    
ffff80000010859d:	50                   	push   %rax
ffff80000010859e:	50                   	push   %rax
ffff80000010859f:	48 8c c0             	mov    %es,%rax
ffff8000001085a2:	50                   	push   %rax
ffff8000001085a3:	48 8c d8             	mov    %ds,%rax
ffff8000001085a6:	50                   	push   %rax
ffff8000001085a7:	48 31 c0             	xor    %rax,%rax
ffff8000001085aa:	55                   	push   %rbp
ffff8000001085ab:	57                   	push   %rdi
ffff8000001085ac:	56                   	push   %rsi
ffff8000001085ad:	52                   	push   %rdx
ffff8000001085ae:	51                   	push   %rcx
ffff8000001085af:	53                   	push   %rbx
ffff8000001085b0:	41 50                	push   %r8
ffff8000001085b2:	41 51                	push   %r9
ffff8000001085b4:	41 52                	push   %r10
ffff8000001085b6:	41 53                	push   %r11
ffff8000001085b8:	41 54                	push   %r12
ffff8000001085ba:	41 55                	push   %r13
ffff8000001085bc:	41 56                	push   %r14
ffff8000001085be:	41 57                	push   %r15
ffff8000001085c0:	48 c7 c2 10 00 00 00 	mov    $0x10,%rdx
ffff8000001085c7:	48 8e da             	mov    %rdx,%ds
ffff8000001085ca:	48 8e c2             	mov    %rdx,%es
ffff8000001085cd:	48 89 e7             	mov    %rsp,%rdi
ffff8000001085d0:	48 8d 05 4e ba ff ff 	lea    -0x45b2(%rip),%rax        # ffff800000104025 <ret_from_intr>
ffff8000001085d7:	50                   	push   %rax
ffff8000001085d8:	48 c7 c6 35 00 00 00 	mov    $0x35,%rsi
ffff8000001085df:	e9 72 f6 ff ff       	jmpq   ffff800000107c56 <do_IRQ>
ffff8000001085e4:	90                   	nop
ffff8000001085e5:	5d                   	pop    %rbp
ffff8000001085e6:	c3                   	retq   

ffff8000001085e7 <IRQ0x36_interrupt>:
ffff8000001085e7:	55                   	push   %rbp
ffff8000001085e8:	48 89 e5             	mov    %rsp,%rbp
ffff8000001085eb:	48 8d 05 f9 ff ff ff 	lea    -0x7(%rip),%rax        # ffff8000001085eb <IRQ0x36_interrupt+0x4>
ffff8000001085f2:	49 bb cd 50 00 00 00 	movabs $0x50cd,%r11
ffff8000001085f9:	00 00 00 
ffff8000001085fc:	4c 01 d8             	add    %r11,%rax

ffff8000001085ff <IRQ_0x36interrupt>:
ffff8000001085ff:	6a 00                	pushq  $0x0
ffff800000108601:	fc                   	cld    
ffff800000108602:	50                   	push   %rax
ffff800000108603:	50                   	push   %rax
ffff800000108604:	48 8c c0             	mov    %es,%rax
ffff800000108607:	50                   	push   %rax
ffff800000108608:	48 8c d8             	mov    %ds,%rax
ffff80000010860b:	50                   	push   %rax
ffff80000010860c:	48 31 c0             	xor    %rax,%rax
ffff80000010860f:	55                   	push   %rbp
ffff800000108610:	57                   	push   %rdi
ffff800000108611:	56                   	push   %rsi
ffff800000108612:	52                   	push   %rdx
ffff800000108613:	51                   	push   %rcx
ffff800000108614:	53                   	push   %rbx
ffff800000108615:	41 50                	push   %r8
ffff800000108617:	41 51                	push   %r9
ffff800000108619:	41 52                	push   %r10
ffff80000010861b:	41 53                	push   %r11
ffff80000010861d:	41 54                	push   %r12
ffff80000010861f:	41 55                	push   %r13
ffff800000108621:	41 56                	push   %r14
ffff800000108623:	41 57                	push   %r15
ffff800000108625:	48 c7 c2 10 00 00 00 	mov    $0x10,%rdx
ffff80000010862c:	48 8e da             	mov    %rdx,%ds
ffff80000010862f:	48 8e c2             	mov    %rdx,%es
ffff800000108632:	48 89 e7             	mov    %rsp,%rdi
ffff800000108635:	48 8d 05 e9 b9 ff ff 	lea    -0x4617(%rip),%rax        # ffff800000104025 <ret_from_intr>
ffff80000010863c:	50                   	push   %rax
ffff80000010863d:	48 c7 c6 36 00 00 00 	mov    $0x36,%rsi
ffff800000108644:	e9 0d f6 ff ff       	jmpq   ffff800000107c56 <do_IRQ>
ffff800000108649:	90                   	nop
ffff80000010864a:	5d                   	pop    %rbp
ffff80000010864b:	c3                   	retq   

ffff80000010864c <IRQ0x37_interrupt>:
ffff80000010864c:	55                   	push   %rbp
ffff80000010864d:	48 89 e5             	mov    %rsp,%rbp
ffff800000108650:	48 8d 05 f9 ff ff ff 	lea    -0x7(%rip),%rax        # ffff800000108650 <IRQ0x37_interrupt+0x4>
ffff800000108657:	49 bb 68 50 00 00 00 	movabs $0x5068,%r11
ffff80000010865e:	00 00 00 
ffff800000108661:	4c 01 d8             	add    %r11,%rax

ffff800000108664 <IRQ_0x37interrupt>:
ffff800000108664:	6a 00                	pushq  $0x0
ffff800000108666:	fc                   	cld    
ffff800000108667:	50                   	push   %rax
ffff800000108668:	50                   	push   %rax
ffff800000108669:	48 8c c0             	mov    %es,%rax
ffff80000010866c:	50                   	push   %rax
ffff80000010866d:	48 8c d8             	mov    %ds,%rax
ffff800000108670:	50                   	push   %rax
ffff800000108671:	48 31 c0             	xor    %rax,%rax
ffff800000108674:	55                   	push   %rbp
ffff800000108675:	57                   	push   %rdi
ffff800000108676:	56                   	push   %rsi
ffff800000108677:	52                   	push   %rdx
ffff800000108678:	51                   	push   %rcx
ffff800000108679:	53                   	push   %rbx
ffff80000010867a:	41 50                	push   %r8
ffff80000010867c:	41 51                	push   %r9
ffff80000010867e:	41 52                	push   %r10
ffff800000108680:	41 53                	push   %r11
ffff800000108682:	41 54                	push   %r12
ffff800000108684:	41 55                	push   %r13
ffff800000108686:	41 56                	push   %r14
ffff800000108688:	41 57                	push   %r15
ffff80000010868a:	48 c7 c2 10 00 00 00 	mov    $0x10,%rdx
ffff800000108691:	48 8e da             	mov    %rdx,%ds
ffff800000108694:	48 8e c2             	mov    %rdx,%es
ffff800000108697:	48 89 e7             	mov    %rsp,%rdi
ffff80000010869a:	48 8d 05 84 b9 ff ff 	lea    -0x467c(%rip),%rax        # ffff800000104025 <ret_from_intr>
ffff8000001086a1:	50                   	push   %rax
ffff8000001086a2:	48 c7 c6 37 00 00 00 	mov    $0x37,%rsi
ffff8000001086a9:	e9 a8 f5 ff ff       	jmpq   ffff800000107c56 <do_IRQ>
ffff8000001086ae:	90                   	nop
ffff8000001086af:	5d                   	pop    %rbp
ffff8000001086b0:	c3                   	retq   

ffff8000001086b1 <InitGraph>:
ffff8000001086b1:	55                   	push   %rbp
ffff8000001086b2:	48 89 e5             	mov    %rsp,%rbp
ffff8000001086b5:	48 8d 05 f9 ff ff ff 	lea    -0x7(%rip),%rax        # ffff8000001086b5 <InitGraph+0x4>
ffff8000001086bc:	49 bb 03 50 00 00 00 	movabs $0x5003,%r11
ffff8000001086c3:	00 00 00 
ffff8000001086c6:	4c 01 d8             	add    %r11,%rax
ffff8000001086c9:	48 89 7d f8          	mov    %rdi,-0x8(%rbp)
ffff8000001086cd:	48 ba 28 04 00 00 00 	movabs $0x428,%rdx
ffff8000001086d4:	00 00 00 
ffff8000001086d7:	48 8b 4d f8          	mov    -0x8(%rbp),%rcx
ffff8000001086db:	48 89 4c 10 18       	mov    %rcx,0x18(%rax,%rdx,1)
ffff8000001086e0:	48 ba 28 04 00 00 00 	movabs $0x428,%rdx
ffff8000001086e7:	00 00 00 
ffff8000001086ea:	c7 44 10 0c 00 00 00 	movl   $0x0,0xc(%rax,%rdx,1)
ffff8000001086f1:	00 
ffff8000001086f2:	48 ba 28 04 00 00 00 	movabs $0x428,%rdx
ffff8000001086f9:	00 00 00 
ffff8000001086fc:	8b 4c 10 0c          	mov    0xc(%rax,%rdx,1),%ecx
ffff800000108700:	48 ba 28 04 00 00 00 	movabs $0x428,%rdx
ffff800000108707:	00 00 00 
ffff80000010870a:	89 4c 10 08          	mov    %ecx,0x8(%rax,%rdx,1)
ffff80000010870e:	48 ba 28 04 00 00 00 	movabs $0x428,%rdx
ffff800000108715:	00 00 00 
ffff800000108718:	c7 04 10 a0 05 00 00 	movl   $0x5a0,(%rax,%rdx,1)
ffff80000010871f:	48 ba 28 04 00 00 00 	movabs $0x428,%rdx
ffff800000108726:	00 00 00 
ffff800000108729:	c7 44 10 04 84 03 00 	movl   $0x384,0x4(%rax,%rdx,1)
ffff800000108730:	00 
ffff800000108731:	48 ba 28 04 00 00 00 	movabs $0x428,%rdx
ffff800000108738:	00 00 00 
ffff80000010873b:	c7 44 10 14 10 00 00 	movl   $0x10,0x14(%rax,%rdx,1)
ffff800000108742:	00 
ffff800000108743:	48 ba 28 04 00 00 00 	movabs $0x428,%rdx
ffff80000010874a:	00 00 00 
ffff80000010874d:	c7 44 10 10 08 00 00 	movl   $0x8,0x10(%rax,%rdx,1)
ffff800000108754:	00 
ffff800000108755:	48 ba 28 04 00 00 00 	movabs $0x428,%rdx
ffff80000010875c:	00 00 00 
ffff80000010875f:	8b 0c 10             	mov    (%rax,%rdx,1),%ecx
ffff800000108762:	48 ba 28 04 00 00 00 	movabs $0x428,%rdx
ffff800000108769:	00 00 00 
ffff80000010876c:	8b 54 10 04          	mov    0x4(%rax,%rdx,1),%edx
ffff800000108770:	0f af d1             	imul   %ecx,%edx
ffff800000108773:	c1 e2 02             	shl    $0x2,%edx
ffff800000108776:	48 63 d2             	movslq %edx,%rdx
ffff800000108779:	48 81 c2 ff 0f 00 00 	add    $0xfff,%rdx
ffff800000108780:	48 81 e2 00 f0 ff ff 	and    $0xfffffffffffff000,%rdx
ffff800000108787:	48 89 d1             	mov    %rdx,%rcx
ffff80000010878a:	48 ba 28 04 00 00 00 	movabs $0x428,%rdx
ffff800000108791:	00 00 00 
ffff800000108794:	48 89 4c 10 20       	mov    %rcx,0x20(%rax,%rdx,1)
ffff800000108799:	90                   	nop
ffff80000010879a:	5d                   	pop    %rbp
ffff80000010879b:	c3                   	retq   

ffff80000010879c <TranslateX>:
ffff80000010879c:	55                   	push   %rbp
ffff80000010879d:	48 89 e5             	mov    %rsp,%rbp
ffff8000001087a0:	48 8d 0d f9 ff ff ff 	lea    -0x7(%rip),%rcx        # ffff8000001087a0 <TranslateX+0x4>
ffff8000001087a7:	49 bb 18 4f 00 00 00 	movabs $0x4f18,%r11
ffff8000001087ae:	00 00 00 
ffff8000001087b1:	4c 01 d9             	add    %r11,%rcx
ffff8000001087b4:	89 7d fc             	mov    %edi,-0x4(%rbp)
ffff8000001087b7:	48 b8 28 04 00 00 00 	movabs $0x428,%rax
ffff8000001087be:	00 00 00 
ffff8000001087c1:	8b 54 01 08          	mov    0x8(%rcx,%rax,1),%edx
ffff8000001087c5:	8b 45 fc             	mov    -0x4(%rbp),%eax
ffff8000001087c8:	01 c2                	add    %eax,%edx
ffff8000001087ca:	48 b8 28 04 00 00 00 	movabs $0x428,%rax
ffff8000001087d1:	00 00 00 
ffff8000001087d4:	89 54 01 08          	mov    %edx,0x8(%rcx,%rax,1)
ffff8000001087d8:	48 b8 28 04 00 00 00 	movabs $0x428,%rax
ffff8000001087df:	00 00 00 
ffff8000001087e2:	8b 74 01 0c          	mov    0xc(%rcx,%rax,1),%esi
ffff8000001087e6:	48 b8 28 04 00 00 00 	movabs $0x428,%rax
ffff8000001087ed:	00 00 00 
ffff8000001087f0:	8b 44 01 08          	mov    0x8(%rcx,%rax,1),%eax
ffff8000001087f4:	48 ba 28 04 00 00 00 	movabs $0x428,%rdx
ffff8000001087fb:	00 00 00 
ffff8000001087fe:	8b 3c 11             	mov    (%rcx,%rdx,1),%edi
ffff800000108801:	99                   	cltd   
ffff800000108802:	f7 ff                	idiv   %edi
ffff800000108804:	89 c2                	mov    %eax,%edx
ffff800000108806:	48 b8 28 04 00 00 00 	movabs $0x428,%rax
ffff80000010880d:	00 00 00 
ffff800000108810:	8b 44 01 14          	mov    0x14(%rcx,%rax,1),%eax
ffff800000108814:	0f af c2             	imul   %edx,%eax
ffff800000108817:	8d 14 06             	lea    (%rsi,%rax,1),%edx
ffff80000010881a:	48 b8 28 04 00 00 00 	movabs $0x428,%rax
ffff800000108821:	00 00 00 
ffff800000108824:	89 54 01 0c          	mov    %edx,0xc(%rcx,%rax,1)
ffff800000108828:	48 b8 28 04 00 00 00 	movabs $0x428,%rax
ffff80000010882f:	00 00 00 
ffff800000108832:	8b 44 01 08          	mov    0x8(%rcx,%rax,1),%eax
ffff800000108836:	48 ba 28 04 00 00 00 	movabs $0x428,%rdx
ffff80000010883d:	00 00 00 
ffff800000108840:	8b 34 11             	mov    (%rcx,%rdx,1),%esi
ffff800000108843:	99                   	cltd   
ffff800000108844:	f7 fe                	idiv   %esi
ffff800000108846:	48 b8 28 04 00 00 00 	movabs $0x428,%rax
ffff80000010884d:	00 00 00 
ffff800000108850:	89 54 01 08          	mov    %edx,0x8(%rcx,%rax,1)
ffff800000108854:	48 b8 28 04 00 00 00 	movabs $0x428,%rax
ffff80000010885b:	00 00 00 
ffff80000010885e:	8b 44 01 0c          	mov    0xc(%rcx,%rax,1),%eax
ffff800000108862:	48 ba 28 04 00 00 00 	movabs $0x428,%rdx
ffff800000108869:	00 00 00 
ffff80000010886c:	8b 74 11 04          	mov    0x4(%rcx,%rdx,1),%esi
ffff800000108870:	99                   	cltd   
ffff800000108871:	f7 fe                	idiv   %esi
ffff800000108873:	48 b8 28 04 00 00 00 	movabs $0x428,%rax
ffff80000010887a:	00 00 00 
ffff80000010887d:	89 54 01 0c          	mov    %edx,0xc(%rcx,%rax,1)
ffff800000108881:	90                   	nop
ffff800000108882:	5d                   	pop    %rbp
ffff800000108883:	c3                   	retq   

ffff800000108884 <Start_Kernel>:
ffff800000108884:	55                   	push   %rbp
ffff800000108885:	48 89 e5             	mov    %rsp,%rbp
ffff800000108888:	41 57                	push   %r15
ffff80000010888a:	53                   	push   %rbx
ffff80000010888b:	48 83 ec 10          	sub    $0x10,%rsp
ffff80000010888f:	48 8d 1d f9 ff ff ff 	lea    -0x7(%rip),%rbx        # ffff80000010888f <Start_Kernel+0xb>
ffff800000108896:	49 bb 29 4e 00 00 00 	movabs $0x4e29,%r11
ffff80000010889d:	00 00 00 
ffff8000001088a0:	4c 01 db             	add    %r11,%rbx
ffff8000001088a3:	48 bf 00 00 a0 00 00 	movabs $0xffff800000a00000,%rdi
ffff8000001088aa:	80 ff ff 
ffff8000001088ad:	49 89 df             	mov    %rbx,%r15
ffff8000001088b0:	48 b8 f9 af ff ff ff 	movabs $0xffffffffffffaff9,%rax
ffff8000001088b7:	ff ff ff 
ffff8000001088ba:	48 01 d8             	add    %rbx,%rax
ffff8000001088bd:	ff d0                	callq  *%rax
ffff8000001088bf:	49 89 df             	mov    %rbx,%r15
ffff8000001088c2:	b8 00 00 00 00       	mov    $0x0,%eax
ffff8000001088c7:	48 ba fe 6c ff ff ff 	movabs $0xffffffffffff6cfe,%rdx
ffff8000001088ce:	ff ff ff 
ffff8000001088d1:	48 01 da             	add    %rbx,%rdx
ffff8000001088d4:	ff d2                	callq  *%rdx
ffff8000001088d6:	68 00 7c 00 00       	pushq  $0x7c00
ffff8000001088db:	c7 44 24 04 00 80 ff 	movl   $0xffff8000,0x4(%rsp)
ffff8000001088e2:	ff 
ffff8000001088e3:	68 00 7c 00 00       	pushq  $0x7c00
ffff8000001088e8:	c7 44 24 04 00 80 ff 	movl   $0xffff8000,0x4(%rsp)
ffff8000001088ef:	ff 
ffff8000001088f0:	68 00 7c 00 00       	pushq  $0x7c00
ffff8000001088f5:	c7 44 24 04 00 80 ff 	movl   $0xffff8000,0x4(%rsp)
ffff8000001088fc:	ff 
ffff8000001088fd:	68 00 7c 00 00       	pushq  $0x7c00
ffff800000108902:	c7 44 24 04 00 80 ff 	movl   $0xffff8000,0x4(%rsp)
ffff800000108909:	ff 
ffff80000010890a:	49 b9 00 7c 00 00 00 	movabs $0xffff800000007c00,%r9
ffff800000108911:	80 ff ff 
ffff800000108914:	49 b8 00 7c 00 00 00 	movabs $0xffff800000007c00,%r8
ffff80000010891b:	80 ff ff 
ffff80000010891e:	48 b9 00 7c 00 00 00 	movabs $0xffff800000007c00,%rcx
ffff800000108925:	80 ff ff 
ffff800000108928:	48 ba 00 7c 00 00 00 	movabs $0xffff800000007c00,%rdx
ffff80000010892f:	80 ff ff 
ffff800000108932:	48 be 00 7c 00 00 00 	movabs $0xffff800000007c00,%rsi
ffff800000108939:	80 ff ff 
ffff80000010893c:	48 bf 00 7c 00 00 00 	movabs $0xffff800000007c00,%rdi
ffff800000108943:	80 ff ff 
ffff800000108946:	49 89 df             	mov    %rbx,%r15
ffff800000108949:	48 b8 e3 75 ff ff ff 	movabs $0xffffffffffff75e3,%rax
ffff800000108950:	ff ff ff 
ffff800000108953:	48 01 d8             	add    %rbx,%rax
ffff800000108956:	ff d0                	callq  *%rax
ffff800000108958:	48 83 c4 20          	add    $0x20,%rsp
ffff80000010895c:	49 89 df             	mov    %rbx,%r15
ffff80000010895f:	b8 00 00 00 00       	mov    $0x0,%eax
ffff800000108964:	48 ba 1e b3 ff ff ff 	movabs $0xffffffffffffb31e,%rdx
ffff80000010896b:	ff ff ff 
ffff80000010896e:	48 01 da             	add    %rbx,%rdx
ffff800000108971:	ff d2                	callq  *%rdx
ffff800000108973:	c7 45 ea 77 6f 72 6c 	movl   $0x6c726f77,-0x16(%rbp)
ffff80000010897a:	66 c7 45 ee 64 00    	movw   $0x64,-0x12(%rbp)
ffff800000108980:	48 8d 45 ea          	lea    -0x16(%rbp),%rax
ffff800000108984:	41 b8 85 ff ff ff    	mov    $0xffffff85,%r8d
ffff80000010898a:	48 89 c1             	mov    %rax,%rcx
ffff80000010898d:	48 b8 d9 d1 ff ff ff 	movabs $0xffffffffffffd1d9,%rax
ffff800000108994:	ff ff ff 
ffff800000108997:	48 8d 14 03          	lea    (%rbx,%rax,1),%rdx
ffff80000010899b:	be 00 00 ff 00       	mov    $0xff0000,%esi
ffff8000001089a0:	bf 00 00 00 00       	mov    $0x0,%edi
ffff8000001089a5:	49 89 df             	mov    %rbx,%r15
ffff8000001089a8:	b8 00 00 00 00       	mov    $0x0,%eax
ffff8000001089ad:	49 b9 11 83 ff ff ff 	movabs $0xffffffffffff8311,%r9
ffff8000001089b4:	ff ff ff 
ffff8000001089b7:	49 01 d9             	add    %rbx,%r9
ffff8000001089ba:	41 ff d1             	callq  *%r9
ffff8000001089bd:	49 89 df             	mov    %rbx,%r15
ffff8000001089c0:	b8 00 00 00 00       	mov    $0x0,%eax
ffff8000001089c5:	48 ba 25 a1 ff ff ff 	movabs $0xffffffffffffa125,%rdx
ffff8000001089cc:	ff ff ff 
ffff8000001089cf:	48 01 da             	add    %rbx,%rdx
ffff8000001089d2:	ff d2                	callq  *%rdx
ffff8000001089d4:	eb fe                	jmp    ffff8000001089d4 <Start_Kernel+0x150>

ffff8000001089d6 <init_memory>:
ffff8000001089d6:	55                   	push   %rbp
ffff8000001089d7:	48 89 e5             	mov    %rsp,%rbp
ffff8000001089da:	41 57                	push   %r15
ffff8000001089dc:	53                   	push   %rbx
ffff8000001089dd:	48 83 ec 60          	sub    $0x60,%rsp
ffff8000001089e1:	48 8d 1d f9 ff ff ff 	lea    -0x7(%rip),%rbx        # ffff8000001089e1 <init_memory+0xb>
ffff8000001089e8:	49 bb d7 4c 00 00 00 	movabs $0x4cd7,%r11
ffff8000001089ef:	00 00 00 
ffff8000001089f2:	4c 01 db             	add    %r11,%rbx
ffff8000001089f5:	48 b8 88 ff ff ff ff 	movabs $0xffffffffffffff88,%rax
ffff8000001089fc:	ff ff ff 
ffff8000001089ff:	48 8b 04 03          	mov    (%rbx,%rax,1),%rax
ffff800000108a03:	48 89 c2             	mov    %rax,%rdx
ffff800000108a06:	48 b8 b0 ff ff ff ff 	movabs $0xffffffffffffffb0,%rax
ffff800000108a0d:	ff ff ff 
ffff800000108a10:	48 8b 04 03          	mov    (%rbx,%rax,1),%rax
ffff800000108a14:	48 89 90 d0 02 00 00 	mov    %rdx,0x2d0(%rax)
ffff800000108a1b:	48 b8 30 ff ff ff ff 	movabs $0xffffffffffffff30,%rax
ffff800000108a22:	ff ff ff 
ffff800000108a25:	48 8b 04 03          	mov    (%rbx,%rax,1),%rax
ffff800000108a29:	48 89 c2             	mov    %rax,%rdx
ffff800000108a2c:	48 b8 b0 ff ff ff ff 	movabs $0xffffffffffffffb0,%rax
ffff800000108a33:	ff ff ff 
ffff800000108a36:	48 8b 04 03          	mov    (%rbx,%rax,1),%rax
ffff800000108a3a:	48 89 90 d8 02 00 00 	mov    %rdx,0x2d8(%rax)
ffff800000108a41:	48 b8 c0 ff ff ff ff 	movabs $0xffffffffffffffc0,%rax
ffff800000108a48:	ff ff ff 
ffff800000108a4b:	48 8b 04 03          	mov    (%rbx,%rax,1),%rax
ffff800000108a4f:	48 89 c2             	mov    %rax,%rdx
ffff800000108a52:	48 b8 b0 ff ff ff ff 	movabs $0xffffffffffffffb0,%rax
ffff800000108a59:	ff ff ff 
ffff800000108a5c:	48 8b 04 03          	mov    (%rbx,%rax,1),%rax
ffff800000108a60:	48 89 90 e0 02 00 00 	mov    %rdx,0x2e0(%rax)
ffff800000108a67:	48 b8 d0 ff ff ff ff 	movabs $0xffffffffffffffd0,%rax
ffff800000108a6e:	ff ff ff 
ffff800000108a71:	48 8b 04 03          	mov    (%rbx,%rax,1),%rax
ffff800000108a75:	48 89 c2             	mov    %rax,%rdx
ffff800000108a78:	48 b8 b0 ff ff ff ff 	movabs $0xffffffffffffffb0,%rax
ffff800000108a7f:	ff ff ff 
ffff800000108a82:	48 8b 04 03          	mov    (%rbx,%rax,1),%rax
ffff800000108a86:	48 89 90 e8 02 00 00 	mov    %rdx,0x2e8(%rax)
ffff800000108a8d:	48 c7 45 e0 00 00 00 	movq   $0x0,-0x20(%rbp)
ffff800000108a94:	00 
ffff800000108a95:	48 c7 45 d8 00 00 00 	movq   $0x0,-0x28(%rbp)
ffff800000108a9c:	00 
ffff800000108a9d:	48 b8 e8 d1 ff ff ff 	movabs $0xffffffffffffd1e8,%rax
ffff800000108aa4:	ff ff ff 
ffff800000108aa7:	48 8d 14 03          	lea    (%rbx,%rax,1),%rdx
ffff800000108aab:	be ff 00 00 00       	mov    $0xff,%esi
ffff800000108ab0:	bf 00 00 00 00       	mov    $0x0,%edi
ffff800000108ab5:	49 89 df             	mov    %rbx,%r15
ffff800000108ab8:	b8 00 00 00 00       	mov    $0x0,%eax
ffff800000108abd:	48 b9 11 83 ff ff ff 	movabs $0xffffffffffff8311,%rcx
ffff800000108ac4:	ff ff ff 
ffff800000108ac7:	48 01 d9             	add    %rbx,%rcx
ffff800000108aca:	ff d1                	callq  *%rcx
ffff800000108acc:	48 b8 00 7e 00 00 00 	movabs $0xffff800000007e00,%rax
ffff800000108ad3:	80 ff ff 
ffff800000108ad6:	48 89 45 d8          	mov    %rax,-0x28(%rbp)
ffff800000108ada:	c7 45 ec 00 00 00 00 	movl   $0x0,-0x14(%rbp)
ffff800000108ae1:	e9 a8 01 00 00       	jmpq   ffff800000108c8e <init_memory+0x2b8>
ffff800000108ae6:	48 8b 45 d8          	mov    -0x28(%rbp),%rax
ffff800000108aea:	8b 48 10             	mov    0x10(%rax),%ecx
ffff800000108aed:	48 8b 45 d8          	mov    -0x28(%rbp),%rax
ffff800000108af1:	48 8b 50 08          	mov    0x8(%rax),%rdx
ffff800000108af5:	48 8b 45 d8          	mov    -0x28(%rbp),%rax
ffff800000108af9:	48 8b 00             	mov    (%rax),%rax
ffff800000108afc:	41 89 c9             	mov    %ecx,%r9d
ffff800000108aff:	49 89 d0             	mov    %rdx,%r8
ffff800000108b02:	48 89 c1             	mov    %rax,%rcx
ffff800000108b05:	48 b8 60 d2 ff ff ff 	movabs $0xffffffffffffd260,%rax
ffff800000108b0c:	ff ff ff 
ffff800000108b0f:	48 8d 14 03          	lea    (%rbx,%rax,1),%rdx
ffff800000108b13:	be 00 80 ff 00       	mov    $0xff8000,%esi
ffff800000108b18:	bf 00 00 00 00       	mov    $0x0,%edi
ffff800000108b1d:	49 89 df             	mov    %rbx,%r15
ffff800000108b20:	b8 00 00 00 00       	mov    $0x0,%eax
ffff800000108b25:	49 ba 11 83 ff ff ff 	movabs $0xffffffffffff8311,%r10
ffff800000108b2c:	ff ff ff 
ffff800000108b2f:	49 01 da             	add    %rbx,%r10
ffff800000108b32:	41 ff d2             	callq  *%r10
ffff800000108b35:	48 c7 45 c8 00 00 00 	movq   $0x0,-0x38(%rbp)
ffff800000108b3c:	00 
ffff800000108b3d:	48 8b 45 d8          	mov    -0x28(%rbp),%rax
ffff800000108b41:	8b 40 10             	mov    0x10(%rax),%eax
ffff800000108b44:	83 f8 01             	cmp    $0x1,%eax
ffff800000108b47:	75 0c                	jne    ffff800000108b55 <init_memory+0x17f>
ffff800000108b49:	48 8b 45 d8          	mov    -0x28(%rbp),%rax
ffff800000108b4d:	48 8b 40 08          	mov    0x8(%rax),%rax
ffff800000108b51:	48 01 45 e0          	add    %rax,-0x20(%rbp)
ffff800000108b55:	48 b8 b0 ff ff ff ff 	movabs $0xffffffffffffffb0,%rax
ffff800000108b5c:	ff ff ff 
ffff800000108b5f:	48 8b 0c 03          	mov    (%rbx,%rax,1),%rcx
ffff800000108b63:	8b 45 ec             	mov    -0x14(%rbp),%eax
ffff800000108b66:	48 63 d0             	movslq %eax,%rdx
ffff800000108b69:	48 89 d0             	mov    %rdx,%rax
ffff800000108b6c:	48 c1 e0 02          	shl    $0x2,%rax
ffff800000108b70:	48 01 d0             	add    %rdx,%rax
ffff800000108b73:	48 c1 e0 02          	shl    $0x2,%rax
ffff800000108b77:	48 01 c8             	add    %rcx,%rax
ffff800000108b7a:	48 8b 10             	mov    (%rax),%rdx
ffff800000108b7d:	48 8b 45 d8          	mov    -0x28(%rbp),%rax
ffff800000108b81:	48 8b 00             	mov    (%rax),%rax
ffff800000108b84:	48 8d 0c 02          	lea    (%rdx,%rax,1),%rcx
ffff800000108b88:	48 b8 b0 ff ff ff ff 	movabs $0xffffffffffffffb0,%rax
ffff800000108b8f:	ff ff ff 
ffff800000108b92:	48 8b 34 03          	mov    (%rbx,%rax,1),%rsi
ffff800000108b96:	8b 45 ec             	mov    -0x14(%rbp),%eax
ffff800000108b99:	48 63 d0             	movslq %eax,%rdx
ffff800000108b9c:	48 89 d0             	mov    %rdx,%rax
ffff800000108b9f:	48 c1 e0 02          	shl    $0x2,%rax
ffff800000108ba3:	48 01 d0             	add    %rdx,%rax
ffff800000108ba6:	48 c1 e0 02          	shl    $0x2,%rax
ffff800000108baa:	48 01 f0             	add    %rsi,%rax
ffff800000108bad:	48 89 08             	mov    %rcx,(%rax)
ffff800000108bb0:	48 b8 b0 ff ff ff ff 	movabs $0xffffffffffffffb0,%rax
ffff800000108bb7:	ff ff ff 
ffff800000108bba:	48 8b 0c 03          	mov    (%rbx,%rax,1),%rcx
ffff800000108bbe:	8b 45 ec             	mov    -0x14(%rbp),%eax
ffff800000108bc1:	48 63 d0             	movslq %eax,%rdx
ffff800000108bc4:	48 89 d0             	mov    %rdx,%rax
ffff800000108bc7:	48 c1 e0 02          	shl    $0x2,%rax
ffff800000108bcb:	48 01 d0             	add    %rdx,%rax
ffff800000108bce:	48 c1 e0 02          	shl    $0x2,%rax
ffff800000108bd2:	48 01 c8             	add    %rcx,%rax
ffff800000108bd5:	48 83 c0 08          	add    $0x8,%rax
ffff800000108bd9:	48 8b 10             	mov    (%rax),%rdx
ffff800000108bdc:	48 8b 45 d8          	mov    -0x28(%rbp),%rax
ffff800000108be0:	48 8b 40 08          	mov    0x8(%rax),%rax
ffff800000108be4:	48 8d 0c 02          	lea    (%rdx,%rax,1),%rcx
ffff800000108be8:	48 b8 b0 ff ff ff ff 	movabs $0xffffffffffffffb0,%rax
ffff800000108bef:	ff ff ff 
ffff800000108bf2:	48 8b 34 03          	mov    (%rbx,%rax,1),%rsi
ffff800000108bf6:	8b 45 ec             	mov    -0x14(%rbp),%eax
ffff800000108bf9:	48 63 d0             	movslq %eax,%rdx
ffff800000108bfc:	48 89 d0             	mov    %rdx,%rax
ffff800000108bff:	48 c1 e0 02          	shl    $0x2,%rax
ffff800000108c03:	48 01 d0             	add    %rdx,%rax
ffff800000108c06:	48 c1 e0 02          	shl    $0x2,%rax
ffff800000108c0a:	48 01 f0             	add    %rsi,%rax
ffff800000108c0d:	48 83 c0 08          	add    $0x8,%rax
ffff800000108c11:	48 89 08             	mov    %rcx,(%rax)
ffff800000108c14:	48 8b 45 d8          	mov    -0x28(%rbp),%rax
ffff800000108c18:	8b 48 10             	mov    0x10(%rax),%ecx
ffff800000108c1b:	48 b8 b0 ff ff ff ff 	movabs $0xffffffffffffffb0,%rax
ffff800000108c22:	ff ff ff 
ffff800000108c25:	48 8b 34 03          	mov    (%rbx,%rax,1),%rsi
ffff800000108c29:	8b 45 ec             	mov    -0x14(%rbp),%eax
ffff800000108c2c:	48 63 d0             	movslq %eax,%rdx
ffff800000108c2f:	48 89 d0             	mov    %rdx,%rax
ffff800000108c32:	48 c1 e0 02          	shl    $0x2,%rax
ffff800000108c36:	48 01 d0             	add    %rdx,%rax
ffff800000108c39:	48 c1 e0 02          	shl    $0x2,%rax
ffff800000108c3d:	48 01 f0             	add    %rsi,%rax
ffff800000108c40:	48 83 c0 10          	add    $0x10,%rax
ffff800000108c44:	89 08                	mov    %ecx,(%rax)
ffff800000108c46:	8b 45 ec             	mov    -0x14(%rbp),%eax
ffff800000108c49:	48 63 d0             	movslq %eax,%rdx
ffff800000108c4c:	48 b8 b0 ff ff ff ff 	movabs $0xffffffffffffffb0,%rax
ffff800000108c53:	ff ff ff 
ffff800000108c56:	48 8b 04 03          	mov    (%rbx,%rax,1),%rax
ffff800000108c5a:	48 89 90 80 02 00 00 	mov    %rdx,0x280(%rax)
ffff800000108c61:	48 83 45 d8 14       	addq   $0x14,-0x28(%rbp)
ffff800000108c66:	48 8b 45 d8          	mov    -0x28(%rbp),%rax
ffff800000108c6a:	8b 40 10             	mov    0x10(%rax),%eax
ffff800000108c6d:	83 f8 04             	cmp    $0x4,%eax
ffff800000108c70:	77 26                	ja     ffff800000108c98 <init_memory+0x2c2>
ffff800000108c72:	48 8b 45 d8          	mov    -0x28(%rbp),%rax
ffff800000108c76:	48 8b 40 08          	mov    0x8(%rax),%rax
ffff800000108c7a:	48 85 c0             	test   %rax,%rax
ffff800000108c7d:	74 19                	je     ffff800000108c98 <init_memory+0x2c2>
ffff800000108c7f:	48 8b 45 d8          	mov    -0x28(%rbp),%rax
ffff800000108c83:	8b 40 10             	mov    0x10(%rax),%eax
ffff800000108c86:	85 c0                	test   %eax,%eax
ffff800000108c88:	74 0e                	je     ffff800000108c98 <init_memory+0x2c2>
ffff800000108c8a:	83 45 ec 01          	addl   $0x1,-0x14(%rbp)
ffff800000108c8e:	83 7d ec 1f          	cmpl   $0x1f,-0x14(%rbp)
ffff800000108c92:	0f 8e 4e fe ff ff    	jle    ffff800000108ae6 <init_memory+0x110>
ffff800000108c98:	48 8b 45 e0          	mov    -0x20(%rbp),%rax
ffff800000108c9c:	48 89 c1             	mov    %rax,%rcx
ffff800000108c9f:	48 b8 8b d2 ff ff ff 	movabs $0xffffffffffffd28b,%rax
ffff800000108ca6:	ff ff ff 
ffff800000108ca9:	48 8d 14 03          	lea    (%rbx,%rax,1),%rdx
ffff800000108cad:	be 00 80 ff 00       	mov    $0xff8000,%esi
ffff800000108cb2:	bf 00 00 00 00       	mov    $0x0,%edi
ffff800000108cb7:	49 89 df             	mov    %rbx,%r15
ffff800000108cba:	b8 00 00 00 00       	mov    $0x0,%eax
ffff800000108cbf:	49 b8 11 83 ff ff ff 	movabs $0xffffffffffff8311,%r8
ffff800000108cc6:	ff ff ff 
ffff800000108cc9:	49 01 d8             	add    %rbx,%r8
ffff800000108ccc:	41 ff d0             	callq  *%r8
ffff800000108ccf:	48 c7 45 e0 00 00 00 	movq   $0x0,-0x20(%rbp)
ffff800000108cd6:	00 
ffff800000108cd7:	c7 45 ec 00 00 00 00 	movl   $0x0,-0x14(%rbp)
ffff800000108cde:	e9 f1 00 00 00       	jmpq   ffff800000108dd4 <init_memory+0x3fe>
ffff800000108ce3:	48 b8 b0 ff ff ff ff 	movabs $0xffffffffffffffb0,%rax
ffff800000108cea:	ff ff ff 
ffff800000108ced:	48 8b 0c 03          	mov    (%rbx,%rax,1),%rcx
ffff800000108cf1:	8b 45 ec             	mov    -0x14(%rbp),%eax
ffff800000108cf4:	48 63 d0             	movslq %eax,%rdx
ffff800000108cf7:	48 89 d0             	mov    %rdx,%rax
ffff800000108cfa:	48 c1 e0 02          	shl    $0x2,%rax
ffff800000108cfe:	48 01 d0             	add    %rdx,%rax
ffff800000108d01:	48 c1 e0 02          	shl    $0x2,%rax
ffff800000108d05:	48 01 c8             	add    %rcx,%rax
ffff800000108d08:	48 83 c0 10          	add    $0x10,%rax
ffff800000108d0c:	8b 00                	mov    (%rax),%eax
ffff800000108d0e:	83 f8 01             	cmp    $0x1,%eax
ffff800000108d11:	0f 85 b5 00 00 00    	jne    ffff800000108dcc <init_memory+0x3f6>
ffff800000108d17:	48 b8 b0 ff ff ff ff 	movabs $0xffffffffffffffb0,%rax
ffff800000108d1e:	ff ff ff 
ffff800000108d21:	48 8b 0c 03          	mov    (%rbx,%rax,1),%rcx
ffff800000108d25:	8b 45 ec             	mov    -0x14(%rbp),%eax
ffff800000108d28:	48 63 d0             	movslq %eax,%rdx
ffff800000108d2b:	48 89 d0             	mov    %rdx,%rax
ffff800000108d2e:	48 c1 e0 02          	shl    $0x2,%rax
ffff800000108d32:	48 01 d0             	add    %rdx,%rax
ffff800000108d35:	48 c1 e0 02          	shl    $0x2,%rax
ffff800000108d39:	48 01 c8             	add    %rcx,%rax
ffff800000108d3c:	48 8b 00             	mov    (%rax),%rax
ffff800000108d3f:	48 05 ff ff 1f 00    	add    $0x1fffff,%rax
ffff800000108d45:	48 25 00 00 e0 ff    	and    $0xffffffffffe00000,%rax
ffff800000108d4b:	48 89 45 c0          	mov    %rax,-0x40(%rbp)
ffff800000108d4f:	48 b8 b0 ff ff ff ff 	movabs $0xffffffffffffffb0,%rax
ffff800000108d56:	ff ff ff 
ffff800000108d59:	48 8b 0c 03          	mov    (%rbx,%rax,1),%rcx
ffff800000108d5d:	8b 45 ec             	mov    -0x14(%rbp),%eax
ffff800000108d60:	48 63 d0             	movslq %eax,%rdx
ffff800000108d63:	48 89 d0             	mov    %rdx,%rax
ffff800000108d66:	48 c1 e0 02          	shl    $0x2,%rax
ffff800000108d6a:	48 01 d0             	add    %rdx,%rax
ffff800000108d6d:	48 c1 e0 02          	shl    $0x2,%rax
ffff800000108d71:	48 01 c8             	add    %rcx,%rax
ffff800000108d74:	48 8b 08             	mov    (%rax),%rcx
ffff800000108d77:	48 b8 b0 ff ff ff ff 	movabs $0xffffffffffffffb0,%rax
ffff800000108d7e:	ff ff ff 
ffff800000108d81:	48 8b 34 03          	mov    (%rbx,%rax,1),%rsi
ffff800000108d85:	8b 45 ec             	mov    -0x14(%rbp),%eax
ffff800000108d88:	48 63 d0             	movslq %eax,%rdx
ffff800000108d8b:	48 89 d0             	mov    %rdx,%rax
ffff800000108d8e:	48 c1 e0 02          	shl    $0x2,%rax
ffff800000108d92:	48 01 d0             	add    %rdx,%rax
ffff800000108d95:	48 c1 e0 02          	shl    $0x2,%rax
ffff800000108d99:	48 01 f0             	add    %rsi,%rax
ffff800000108d9c:	48 83 c0 08          	add    $0x8,%rax
ffff800000108da0:	48 8b 00             	mov    (%rax),%rax
ffff800000108da3:	48 01 c8             	add    %rcx,%rax
ffff800000108da6:	48 25 00 00 e0 ff    	and    $0xffffffffffe00000,%rax
ffff800000108dac:	48 89 45 b8          	mov    %rax,-0x48(%rbp)
ffff800000108db0:	48 8b 45 b8          	mov    -0x48(%rbp),%rax
ffff800000108db4:	48 3b 45 c0          	cmp    -0x40(%rbp),%rax
ffff800000108db8:	76 15                	jbe    ffff800000108dcf <init_memory+0x3f9>
ffff800000108dba:	48 8b 45 b8          	mov    -0x48(%rbp),%rax
ffff800000108dbe:	48 2b 45 c0          	sub    -0x40(%rbp),%rax
ffff800000108dc2:	48 c1 e8 15          	shr    $0x15,%rax
ffff800000108dc6:	48 01 45 e0          	add    %rax,-0x20(%rbp)
ffff800000108dca:	eb 04                	jmp    ffff800000108dd0 <init_memory+0x3fa>
ffff800000108dcc:	90                   	nop
ffff800000108dcd:	eb 01                	jmp    ffff800000108dd0 <init_memory+0x3fa>
ffff800000108dcf:	90                   	nop
ffff800000108dd0:	83 45 ec 01          	addl   $0x1,-0x14(%rbp)
ffff800000108dd4:	8b 45 ec             	mov    -0x14(%rbp),%eax
ffff800000108dd7:	48 63 d0             	movslq %eax,%rdx
ffff800000108dda:	48 b8 b0 ff ff ff ff 	movabs $0xffffffffffffffb0,%rax
ffff800000108de1:	ff ff ff 
ffff800000108de4:	48 8b 04 03          	mov    (%rbx,%rax,1),%rax
ffff800000108de8:	48 8b 80 80 02 00 00 	mov    0x280(%rax),%rax
ffff800000108def:	48 39 c2             	cmp    %rax,%rdx
ffff800000108df2:	0f 86 eb fe ff ff    	jbe    ffff800000108ce3 <init_memory+0x30d>
ffff800000108df8:	48 8b 55 e0          	mov    -0x20(%rbp),%rdx
ffff800000108dfc:	48 8b 45 e0          	mov    -0x20(%rbp),%rax
ffff800000108e00:	49 89 d0             	mov    %rdx,%r8
ffff800000108e03:	48 89 c1             	mov    %rax,%rcx
ffff800000108e06:	48 b8 a8 d2 ff ff ff 	movabs $0xffffffffffffd2a8,%rax
ffff800000108e0d:	ff ff ff 
ffff800000108e10:	48 8d 14 03          	lea    (%rbx,%rax,1),%rdx
ffff800000108e14:	be 00 80 ff 00       	mov    $0xff8000,%esi
ffff800000108e19:	bf 00 00 00 00       	mov    $0x0,%edi
ffff800000108e1e:	49 89 df             	mov    %rbx,%r15
ffff800000108e21:	b8 00 00 00 00       	mov    $0x0,%eax
ffff800000108e26:	49 b9 11 83 ff ff ff 	movabs $0xffffffffffff8311,%r9
ffff800000108e2d:	ff ff ff 
ffff800000108e30:	49 01 d9             	add    %rbx,%r9
ffff800000108e33:	41 ff d1             	callq  *%r9
ffff800000108e36:	48 b8 b0 ff ff ff ff 	movabs $0xffffffffffffffb0,%rax
ffff800000108e3d:	ff ff ff 
ffff800000108e40:	48 8b 04 03          	mov    (%rbx,%rax,1),%rax
ffff800000108e44:	48 8b 90 80 02 00 00 	mov    0x280(%rax),%rdx
ffff800000108e4b:	48 b8 b0 ff ff ff ff 	movabs $0xffffffffffffffb0,%rax
ffff800000108e52:	ff ff ff 
ffff800000108e55:	48 8b 0c 03          	mov    (%rbx,%rax,1),%rcx
ffff800000108e59:	48 89 d0             	mov    %rdx,%rax
ffff800000108e5c:	48 c1 e0 02          	shl    $0x2,%rax
ffff800000108e60:	48 01 d0             	add    %rdx,%rax
ffff800000108e63:	48 c1 e0 02          	shl    $0x2,%rax
ffff800000108e67:	48 01 c8             	add    %rcx,%rax
ffff800000108e6a:	48 8b 08             	mov    (%rax),%rcx
ffff800000108e6d:	48 b8 b0 ff ff ff ff 	movabs $0xffffffffffffffb0,%rax
ffff800000108e74:	ff ff ff 
ffff800000108e77:	48 8b 04 03          	mov    (%rbx,%rax,1),%rax
ffff800000108e7b:	48 8b 90 80 02 00 00 	mov    0x280(%rax),%rdx
ffff800000108e82:	48 b8 b0 ff ff ff ff 	movabs $0xffffffffffffffb0,%rax
ffff800000108e89:	ff ff ff 
ffff800000108e8c:	48 8b 34 03          	mov    (%rbx,%rax,1),%rsi
ffff800000108e90:	48 89 d0             	mov    %rdx,%rax
ffff800000108e93:	48 c1 e0 02          	shl    $0x2,%rax
ffff800000108e97:	48 01 d0             	add    %rdx,%rax
ffff800000108e9a:	48 c1 e0 02          	shl    $0x2,%rax
ffff800000108e9e:	48 01 f0             	add    %rsi,%rax
ffff800000108ea1:	48 83 c0 08          	add    $0x8,%rax
ffff800000108ea5:	48 8b 00             	mov    (%rax),%rax
ffff800000108ea8:	48 01 c8             	add    %rcx,%rax
ffff800000108eab:	48 89 45 e0          	mov    %rax,-0x20(%rbp)
ffff800000108eaf:	48 b8 b0 ff ff ff ff 	movabs $0xffffffffffffffb0,%rax
ffff800000108eb6:	ff ff ff 
ffff800000108eb9:	48 8b 04 03          	mov    (%rbx,%rax,1),%rax
ffff800000108ebd:	48 8b 80 e8 02 00 00 	mov    0x2e8(%rax),%rax
ffff800000108ec4:	48 05 ff 0f 00 00    	add    $0xfff,%rax
ffff800000108eca:	48 25 00 f0 ff ff    	and    $0xfffffffffffff000,%rax
ffff800000108ed0:	48 89 c2             	mov    %rax,%rdx
ffff800000108ed3:	48 b8 b0 ff ff ff ff 	movabs $0xffffffffffffffb0,%rax
ffff800000108eda:	ff ff ff 
ffff800000108edd:	48 8b 04 03          	mov    (%rbx,%rax,1),%rax
ffff800000108ee1:	48 89 90 88 02 00 00 	mov    %rdx,0x288(%rax)
ffff800000108ee8:	48 8b 45 e0          	mov    -0x20(%rbp),%rax
ffff800000108eec:	48 c1 e8 15          	shr    $0x15,%rax
ffff800000108ef0:	48 89 c2             	mov    %rax,%rdx
ffff800000108ef3:	48 b8 b0 ff ff ff ff 	movabs $0xffffffffffffffb0,%rax
ffff800000108efa:	ff ff ff 
ffff800000108efd:	48 8b 04 03          	mov    (%rbx,%rax,1),%rax
ffff800000108f01:	48 89 90 90 02 00 00 	mov    %rdx,0x290(%rax)
ffff800000108f08:	48 8b 45 e0          	mov    -0x20(%rbp),%rax
ffff800000108f0c:	48 c1 e8 15          	shr    $0x15,%rax
ffff800000108f10:	48 83 c0 3f          	add    $0x3f,%rax
ffff800000108f14:	48 c1 e8 03          	shr    $0x3,%rax
ffff800000108f18:	48 83 e0 f8          	and    $0xfffffffffffffff8,%rax
ffff800000108f1c:	48 89 c2             	mov    %rax,%rdx
ffff800000108f1f:	48 b8 b0 ff ff ff ff 	movabs $0xffffffffffffffb0,%rax
ffff800000108f26:	ff ff ff 
ffff800000108f29:	48 8b 04 03          	mov    (%rbx,%rax,1),%rax
ffff800000108f2d:	48 89 90 98 02 00 00 	mov    %rdx,0x298(%rax)
ffff800000108f34:	48 b8 b0 ff ff ff ff 	movabs $0xffffffffffffffb0,%rax
ffff800000108f3b:	ff ff ff 
ffff800000108f3e:	48 8b 04 03          	mov    (%rbx,%rax,1),%rax
ffff800000108f42:	48 8b 80 98 02 00 00 	mov    0x298(%rax),%rax
ffff800000108f49:	48 89 c2             	mov    %rax,%rdx
ffff800000108f4c:	48 b8 b0 ff ff ff ff 	movabs $0xffffffffffffffb0,%rax
ffff800000108f53:	ff ff ff 
ffff800000108f56:	48 8b 04 03          	mov    (%rbx,%rax,1),%rax
ffff800000108f5a:	48 8b 80 88 02 00 00 	mov    0x288(%rax),%rax
ffff800000108f61:	be ff 00 00 00       	mov    $0xff,%esi
ffff800000108f66:	48 89 c7             	mov    %rax,%rdi
ffff800000108f69:	49 89 df             	mov    %rbx,%r15
ffff800000108f6c:	48 b8 cd a0 ff ff ff 	movabs $0xffffffffffffa0cd,%rax
ffff800000108f73:	ff ff ff 
ffff800000108f76:	48 01 d8             	add    %rbx,%rax
ffff800000108f79:	ff d0                	callq  *%rax
ffff800000108f7b:	48 b8 b0 ff ff ff ff 	movabs $0xffffffffffffffb0,%rax
ffff800000108f82:	ff ff ff 
ffff800000108f85:	48 8b 04 03          	mov    (%rbx,%rax,1),%rax
ffff800000108f89:	48 8b 80 88 02 00 00 	mov    0x288(%rax),%rax
ffff800000108f90:	48 89 c2             	mov    %rax,%rdx
ffff800000108f93:	48 b8 b0 ff ff ff ff 	movabs $0xffffffffffffffb0,%rax
ffff800000108f9a:	ff ff ff 
ffff800000108f9d:	48 8b 04 03          	mov    (%rbx,%rax,1),%rax
ffff800000108fa1:	48 8b 80 98 02 00 00 	mov    0x298(%rax),%rax
ffff800000108fa8:	48 01 d0             	add    %rdx,%rax
ffff800000108fab:	48 05 ff 0f 00 00    	add    $0xfff,%rax
ffff800000108fb1:	48 25 00 f0 ff ff    	and    $0xfffffffffffff000,%rax
ffff800000108fb7:	48 89 c2             	mov    %rax,%rdx
ffff800000108fba:	48 b8 b0 ff ff ff ff 	movabs $0xffffffffffffffb0,%rax
ffff800000108fc1:	ff ff ff 
ffff800000108fc4:	48 8b 04 03          	mov    (%rbx,%rax,1),%rax
ffff800000108fc8:	48 89 90 a0 02 00 00 	mov    %rdx,0x2a0(%rax)
ffff800000108fcf:	48 8b 45 e0          	mov    -0x20(%rbp),%rax
ffff800000108fd3:	48 c1 e8 15          	shr    $0x15,%rax
ffff800000108fd7:	48 89 c2             	mov    %rax,%rdx
ffff800000108fda:	48 b8 b0 ff ff ff ff 	movabs $0xffffffffffffffb0,%rax
ffff800000108fe1:	ff ff ff 
ffff800000108fe4:	48 8b 04 03          	mov    (%rbx,%rax,1),%rax
ffff800000108fe8:	48 89 90 a8 02 00 00 	mov    %rdx,0x2a8(%rax)
ffff800000108fef:	48 8b 45 e0          	mov    -0x20(%rbp),%rax
ffff800000108ff3:	48 c1 e8 15          	shr    $0x15,%rax
ffff800000108ff7:	48 89 c2             	mov    %rax,%rdx
ffff800000108ffa:	48 89 d0             	mov    %rdx,%rax
ffff800000108ffd:	48 c1 e0 02          	shl    $0x2,%rax
ffff800000109001:	48 01 d0             	add    %rdx,%rax
ffff800000109004:	48 c1 e0 03          	shl    $0x3,%rax
ffff800000109008:	48 83 c0 07          	add    $0x7,%rax
ffff80000010900c:	48 83 e0 f8          	and    $0xfffffffffffffff8,%rax
ffff800000109010:	48 89 c2             	mov    %rax,%rdx
ffff800000109013:	48 b8 b0 ff ff ff ff 	movabs $0xffffffffffffffb0,%rax
ffff80000010901a:	ff ff ff 
ffff80000010901d:	48 8b 04 03          	mov    (%rbx,%rax,1),%rax
ffff800000109021:	48 89 90 b0 02 00 00 	mov    %rdx,0x2b0(%rax)
ffff800000109028:	48 b8 b0 ff ff ff ff 	movabs $0xffffffffffffffb0,%rax
ffff80000010902f:	ff ff ff 
ffff800000109032:	48 8b 04 03          	mov    (%rbx,%rax,1),%rax
ffff800000109036:	48 8b 80 b0 02 00 00 	mov    0x2b0(%rax),%rax
ffff80000010903d:	48 89 c2             	mov    %rax,%rdx
ffff800000109040:	48 b8 b0 ff ff ff ff 	movabs $0xffffffffffffffb0,%rax
ffff800000109047:	ff ff ff 
ffff80000010904a:	48 8b 04 03          	mov    (%rbx,%rax,1),%rax
ffff80000010904e:	48 8b 80 a0 02 00 00 	mov    0x2a0(%rax),%rax
ffff800000109055:	be 00 00 00 00       	mov    $0x0,%esi
ffff80000010905a:	48 89 c7             	mov    %rax,%rdi
ffff80000010905d:	49 89 df             	mov    %rbx,%r15
ffff800000109060:	48 b8 cd a0 ff ff ff 	movabs $0xffffffffffffa0cd,%rax
ffff800000109067:	ff ff ff 
ffff80000010906a:	48 01 d8             	add    %rbx,%rax
ffff80000010906d:	ff d0                	callq  *%rax
ffff80000010906f:	48 b8 b0 ff ff ff ff 	movabs $0xffffffffffffffb0,%rax
ffff800000109076:	ff ff ff 
ffff800000109079:	48 8b 04 03          	mov    (%rbx,%rax,1),%rax
ffff80000010907d:	48 8b 80 a0 02 00 00 	mov    0x2a0(%rax),%rax
ffff800000109084:	48 89 c2             	mov    %rax,%rdx
ffff800000109087:	48 b8 b0 ff ff ff ff 	movabs $0xffffffffffffffb0,%rax
ffff80000010908e:	ff ff ff 
ffff800000109091:	48 8b 04 03          	mov    (%rbx,%rax,1),%rax
ffff800000109095:	48 8b 80 b0 02 00 00 	mov    0x2b0(%rax),%rax
ffff80000010909c:	48 01 d0             	add    %rdx,%rax
ffff80000010909f:	48 05 ff 0f 00 00    	add    $0xfff,%rax
ffff8000001090a5:	48 25 00 f0 ff ff    	and    $0xfffffffffffff000,%rax
ffff8000001090ab:	48 89 c2             	mov    %rax,%rdx
ffff8000001090ae:	48 b8 b0 ff ff ff ff 	movabs $0xffffffffffffffb0,%rax
ffff8000001090b5:	ff ff ff 
ffff8000001090b8:	48 8b 04 03          	mov    (%rbx,%rax,1),%rax
ffff8000001090bc:	48 89 90 b8 02 00 00 	mov    %rdx,0x2b8(%rax)
ffff8000001090c3:	48 b8 b0 ff ff ff ff 	movabs $0xffffffffffffffb0,%rax
ffff8000001090ca:	ff ff ff 
ffff8000001090cd:	48 8b 04 03          	mov    (%rbx,%rax,1),%rax
ffff8000001090d1:	48 c7 80 c0 02 00 00 	movq   $0x0,0x2c0(%rax)
ffff8000001090d8:	00 00 00 00 
ffff8000001090dc:	48 b8 b0 ff ff ff ff 	movabs $0xffffffffffffffb0,%rax
ffff8000001090e3:	ff ff ff 
ffff8000001090e6:	48 8b 04 03          	mov    (%rbx,%rax,1),%rax
ffff8000001090ea:	48 c7 80 c8 02 00 00 	movq   $0x190,0x2c8(%rax)
ffff8000001090f1:	90 01 00 00 
ffff8000001090f5:	48 b8 b0 ff ff ff ff 	movabs $0xffffffffffffffb0,%rax
ffff8000001090fc:	ff ff ff 
ffff8000001090ff:	48 8b 04 03          	mov    (%rbx,%rax,1),%rax
ffff800000109103:	48 8b 80 c8 02 00 00 	mov    0x2c8(%rax),%rax
ffff80000010910a:	48 89 c2             	mov    %rax,%rdx
ffff80000010910d:	48 b8 b0 ff ff ff ff 	movabs $0xffffffffffffffb0,%rax
ffff800000109114:	ff ff ff 
ffff800000109117:	48 8b 04 03          	mov    (%rbx,%rax,1),%rax
ffff80000010911b:	48 8b 80 b8 02 00 00 	mov    0x2b8(%rax),%rax
ffff800000109122:	be 00 00 00 00       	mov    $0x0,%esi
ffff800000109127:	48 89 c7             	mov    %rax,%rdi
ffff80000010912a:	49 89 df             	mov    %rbx,%r15
ffff80000010912d:	48 b8 cd a0 ff ff ff 	movabs $0xffffffffffffa0cd,%rax
ffff800000109134:	ff ff ff 
ffff800000109137:	48 01 d8             	add    %rbx,%rax
ffff80000010913a:	ff d0                	callq  *%rax
ffff80000010913c:	c7 45 ec 00 00 00 00 	movl   $0x0,-0x14(%rbp)
ffff800000109143:	e9 ff 02 00 00       	jmpq   ffff800000109447 <init_memory+0xa71>
ffff800000109148:	48 b8 b0 ff ff ff ff 	movabs $0xffffffffffffffb0,%rax
ffff80000010914f:	ff ff ff 
ffff800000109152:	48 8b 0c 03          	mov    (%rbx,%rax,1),%rcx
ffff800000109156:	8b 45 ec             	mov    -0x14(%rbp),%eax
ffff800000109159:	48 63 d0             	movslq %eax,%rdx
ffff80000010915c:	48 89 d0             	mov    %rdx,%rax
ffff80000010915f:	48 c1 e0 02          	shl    $0x2,%rax
ffff800000109163:	48 01 d0             	add    %rdx,%rax
ffff800000109166:	48 c1 e0 02          	shl    $0x2,%rax
ffff80000010916a:	48 01 c8             	add    %rcx,%rax
ffff80000010916d:	48 83 c0 10          	add    $0x10,%rax
ffff800000109171:	8b 00                	mov    (%rax),%eax
ffff800000109173:	83 f8 01             	cmp    $0x1,%eax
ffff800000109176:	0f 85 c3 02 00 00    	jne    ffff80000010943f <init_memory+0xa69>
ffff80000010917c:	48 b8 b0 ff ff ff ff 	movabs $0xffffffffffffffb0,%rax
ffff800000109183:	ff ff ff 
ffff800000109186:	48 8b 0c 03          	mov    (%rbx,%rax,1),%rcx
ffff80000010918a:	8b 45 ec             	mov    -0x14(%rbp),%eax
ffff80000010918d:	48 63 d0             	movslq %eax,%rdx
ffff800000109190:	48 89 d0             	mov    %rdx,%rax
ffff800000109193:	48 c1 e0 02          	shl    $0x2,%rax
ffff800000109197:	48 01 d0             	add    %rdx,%rax
ffff80000010919a:	48 c1 e0 02          	shl    $0x2,%rax
ffff80000010919e:	48 01 c8             	add    %rcx,%rax
ffff8000001091a1:	48 8b 00             	mov    (%rax),%rax
ffff8000001091a4:	48 05 ff ff 1f 00    	add    $0x1fffff,%rax
ffff8000001091aa:	48 25 00 00 e0 ff    	and    $0xffffffffffe00000,%rax
ffff8000001091b0:	48 89 45 b0          	mov    %rax,-0x50(%rbp)
ffff8000001091b4:	48 b8 b0 ff ff ff ff 	movabs $0xffffffffffffffb0,%rax
ffff8000001091bb:	ff ff ff 
ffff8000001091be:	48 8b 0c 03          	mov    (%rbx,%rax,1),%rcx
ffff8000001091c2:	8b 45 ec             	mov    -0x14(%rbp),%eax
ffff8000001091c5:	48 63 d0             	movslq %eax,%rdx
ffff8000001091c8:	48 89 d0             	mov    %rdx,%rax
ffff8000001091cb:	48 c1 e0 02          	shl    $0x2,%rax
ffff8000001091cf:	48 01 d0             	add    %rdx,%rax
ffff8000001091d2:	48 c1 e0 02          	shl    $0x2,%rax
ffff8000001091d6:	48 01 c8             	add    %rcx,%rax
ffff8000001091d9:	48 8b 08             	mov    (%rax),%rcx
ffff8000001091dc:	48 b8 b0 ff ff ff ff 	movabs $0xffffffffffffffb0,%rax
ffff8000001091e3:	ff ff ff 
ffff8000001091e6:	48 8b 34 03          	mov    (%rbx,%rax,1),%rsi
ffff8000001091ea:	8b 45 ec             	mov    -0x14(%rbp),%eax
ffff8000001091ed:	48 63 d0             	movslq %eax,%rdx
ffff8000001091f0:	48 89 d0             	mov    %rdx,%rax
ffff8000001091f3:	48 c1 e0 02          	shl    $0x2,%rax
ffff8000001091f7:	48 01 d0             	add    %rdx,%rax
ffff8000001091fa:	48 c1 e0 02          	shl    $0x2,%rax
ffff8000001091fe:	48 01 f0             	add    %rsi,%rax
ffff800000109201:	48 83 c0 08          	add    $0x8,%rax
ffff800000109205:	48 8b 00             	mov    (%rax),%rax
ffff800000109208:	48 01 c8             	add    %rcx,%rax
ffff80000010920b:	48 25 00 00 e0 ff    	and    $0xffffffffffe00000,%rax
ffff800000109211:	48 89 45 a8          	mov    %rax,-0x58(%rbp)
ffff800000109215:	48 8b 45 a8          	mov    -0x58(%rbp),%rax
ffff800000109219:	48 3b 45 b0          	cmp    -0x50(%rbp),%rax
ffff80000010921d:	0f 86 1f 02 00 00    	jbe    ffff800000109442 <init_memory+0xa6c>
ffff800000109223:	48 b8 b0 ff ff ff ff 	movabs $0xffffffffffffffb0,%rax
ffff80000010922a:	ff ff ff 
ffff80000010922d:	48 8b 04 03          	mov    (%rbx,%rax,1),%rax
ffff800000109231:	48 8b b0 b8 02 00 00 	mov    0x2b8(%rax),%rsi
ffff800000109238:	48 b8 b0 ff ff ff ff 	movabs $0xffffffffffffffb0,%rax
ffff80000010923f:	ff ff ff 
ffff800000109242:	48 8b 04 03          	mov    (%rbx,%rax,1),%rax
ffff800000109246:	48 8b 90 c0 02 00 00 	mov    0x2c0(%rax),%rdx
ffff80000010924d:	48 8d 4a 01          	lea    0x1(%rdx),%rcx
ffff800000109251:	48 b8 b0 ff ff ff ff 	movabs $0xffffffffffffffb0,%rax
ffff800000109258:	ff ff ff 
ffff80000010925b:	48 8b 04 03          	mov    (%rbx,%rax,1),%rax
ffff80000010925f:	48 89 88 c0 02 00 00 	mov    %rcx,0x2c0(%rax)
ffff800000109266:	48 89 d0             	mov    %rdx,%rax
ffff800000109269:	48 c1 e0 02          	shl    $0x2,%rax
ffff80000010926d:	48 01 d0             	add    %rdx,%rax
ffff800000109270:	48 c1 e0 04          	shl    $0x4,%rax
ffff800000109274:	48 01 f0             	add    %rsi,%rax
ffff800000109277:	48 89 45 a0          	mov    %rax,-0x60(%rbp)
ffff80000010927b:	48 8b 45 a0          	mov    -0x60(%rbp),%rax
ffff80000010927f:	48 8b 55 b0          	mov    -0x50(%rbp),%rdx
ffff800000109283:	48 89 50 10          	mov    %rdx,0x10(%rax)
ffff800000109287:	48 8b 45 a0          	mov    -0x60(%rbp),%rax
ffff80000010928b:	48 8b 55 a8          	mov    -0x58(%rbp),%rdx
ffff80000010928f:	48 89 50 18          	mov    %rdx,0x18(%rax)
ffff800000109293:	48 8b 45 a8          	mov    -0x58(%rbp),%rax
ffff800000109297:	48 2b 45 b0          	sub    -0x50(%rbp),%rax
ffff80000010929b:	48 89 c2             	mov    %rax,%rdx
ffff80000010929e:	48 8b 45 a0          	mov    -0x60(%rbp),%rax
ffff8000001092a2:	48 89 50 20          	mov    %rdx,0x20(%rax)
ffff8000001092a6:	48 8b 45 a0          	mov    -0x60(%rbp),%rax
ffff8000001092aa:	48 c7 40 38 00 00 00 	movq   $0x0,0x38(%rax)
ffff8000001092b1:	00 
ffff8000001092b2:	48 8b 45 a8          	mov    -0x58(%rbp),%rax
ffff8000001092b6:	48 2b 45 b0          	sub    -0x50(%rbp),%rax
ffff8000001092ba:	48 c1 e8 15          	shr    $0x15,%rax
ffff8000001092be:	48 89 c2             	mov    %rax,%rdx
ffff8000001092c1:	48 8b 45 a0          	mov    -0x60(%rbp),%rax
ffff8000001092c5:	48 89 50 40          	mov    %rdx,0x40(%rax)
ffff8000001092c9:	48 8b 45 a0          	mov    -0x60(%rbp),%rax
ffff8000001092cd:	48 c7 40 48 00 00 00 	movq   $0x0,0x48(%rax)
ffff8000001092d4:	00 
ffff8000001092d5:	48 8b 45 a0          	mov    -0x60(%rbp),%rax
ffff8000001092d9:	48 c7 40 28 00 00 00 	movq   $0x0,0x28(%rax)
ffff8000001092e0:	00 
ffff8000001092e1:	48 8b 45 a0          	mov    -0x60(%rbp),%rax
ffff8000001092e5:	48 ba b0 ff ff ff ff 	movabs $0xffffffffffffffb0,%rdx
ffff8000001092ec:	ff ff ff 
ffff8000001092ef:	48 8b 14 13          	mov    (%rbx,%rdx,1),%rdx
ffff8000001092f3:	48 89 50 30          	mov    %rdx,0x30(%rax)
ffff8000001092f7:	48 8b 45 a8          	mov    -0x58(%rbp),%rax
ffff8000001092fb:	48 2b 45 b0          	sub    -0x50(%rbp),%rax
ffff8000001092ff:	48 c1 e8 15          	shr    $0x15,%rax
ffff800000109303:	48 89 c2             	mov    %rax,%rdx
ffff800000109306:	48 8b 45 a0          	mov    -0x60(%rbp),%rax
ffff80000010930a:	48 89 50 08          	mov    %rdx,0x8(%rax)
ffff80000010930e:	48 b8 b0 ff ff ff ff 	movabs $0xffffffffffffffb0,%rax
ffff800000109315:	ff ff ff 
ffff800000109318:	48 8b 04 03          	mov    (%rbx,%rax,1),%rax
ffff80000010931c:	48 8b 88 a0 02 00 00 	mov    0x2a0(%rax),%rcx
ffff800000109323:	48 8b 45 b0          	mov    -0x50(%rbp),%rax
ffff800000109327:	48 c1 e8 15          	shr    $0x15,%rax
ffff80000010932b:	48 89 c2             	mov    %rax,%rdx
ffff80000010932e:	48 89 d0             	mov    %rdx,%rax
ffff800000109331:	48 c1 e0 02          	shl    $0x2,%rax
ffff800000109335:	48 01 d0             	add    %rdx,%rax
ffff800000109338:	48 c1 e0 03          	shl    $0x3,%rax
ffff80000010933c:	48 8d 14 01          	lea    (%rcx,%rax,1),%rdx
ffff800000109340:	48 8b 45 a0          	mov    -0x60(%rbp),%rax
ffff800000109344:	48 89 10             	mov    %rdx,(%rax)
ffff800000109347:	48 8b 45 a0          	mov    -0x60(%rbp),%rax
ffff80000010934b:	48 8b 00             	mov    (%rax),%rax
ffff80000010934e:	48 89 45 d0          	mov    %rax,-0x30(%rbp)
ffff800000109352:	c7 45 e8 00 00 00 00 	movl   $0x0,-0x18(%rbp)
ffff800000109359:	e9 c8 00 00 00       	jmpq   ffff800000109426 <init_memory+0xa50>
ffff80000010935e:	48 8b 45 d0          	mov    -0x30(%rbp),%rax
ffff800000109362:	48 8b 55 a0          	mov    -0x60(%rbp),%rdx
ffff800000109366:	48 89 10             	mov    %rdx,(%rax)
ffff800000109369:	8b 45 e8             	mov    -0x18(%rbp),%eax
ffff80000010936c:	48 98                	cltq   
ffff80000010936e:	48 c1 e0 15          	shl    $0x15,%rax
ffff800000109372:	48 89 c2             	mov    %rax,%rdx
ffff800000109375:	48 8b 45 b0          	mov    -0x50(%rbp),%rax
ffff800000109379:	48 01 c2             	add    %rax,%rdx
ffff80000010937c:	48 8b 45 d0          	mov    -0x30(%rbp),%rax
ffff800000109380:	48 89 50 08          	mov    %rdx,0x8(%rax)
ffff800000109384:	48 8b 45 d0          	mov    -0x30(%rbp),%rax
ffff800000109388:	48 c7 40 10 00 00 00 	movq   $0x0,0x10(%rax)
ffff80000010938f:	00 
ffff800000109390:	48 8b 45 d0          	mov    -0x30(%rbp),%rax
ffff800000109394:	48 c7 40 18 00 00 00 	movq   $0x0,0x18(%rax)
ffff80000010939b:	00 
ffff80000010939c:	48 8b 45 d0          	mov    -0x30(%rbp),%rax
ffff8000001093a0:	48 c7 40 20 00 00 00 	movq   $0x0,0x20(%rax)
ffff8000001093a7:	00 
ffff8000001093a8:	48 b8 b0 ff ff ff ff 	movabs $0xffffffffffffffb0,%rax
ffff8000001093af:	ff ff ff 
ffff8000001093b2:	48 8b 04 03          	mov    (%rbx,%rax,1),%rax
ffff8000001093b6:	48 8b 90 88 02 00 00 	mov    0x288(%rax),%rdx
ffff8000001093bd:	48 8b 45 d0          	mov    -0x30(%rbp),%rax
ffff8000001093c1:	48 8b 40 08          	mov    0x8(%rax),%rax
ffff8000001093c5:	48 c1 e8 1b          	shr    $0x1b,%rax
ffff8000001093c9:	48 c1 e0 03          	shl    $0x3,%rax
ffff8000001093cd:	48 01 c2             	add    %rax,%rdx
ffff8000001093d0:	48 b8 b0 ff ff ff ff 	movabs $0xffffffffffffffb0,%rax
ffff8000001093d7:	ff ff ff 
ffff8000001093da:	48 8b 04 03          	mov    (%rbx,%rax,1),%rax
ffff8000001093de:	48 8b 88 88 02 00 00 	mov    0x288(%rax),%rcx
ffff8000001093e5:	48 8b 45 d0          	mov    -0x30(%rbp),%rax
ffff8000001093e9:	48 8b 40 08          	mov    0x8(%rax),%rax
ffff8000001093ed:	48 c1 e8 1b          	shr    $0x1b,%rax
ffff8000001093f1:	48 c1 e0 03          	shl    $0x3,%rax
ffff8000001093f5:	48 01 c8             	add    %rcx,%rax
ffff8000001093f8:	48 8b 30             	mov    (%rax),%rsi
ffff8000001093fb:	48 8b 45 d0          	mov    -0x30(%rbp),%rax
ffff8000001093ff:	48 8b 40 08          	mov    0x8(%rax),%rax
ffff800000109403:	48 c1 e8 15          	shr    $0x15,%rax
ffff800000109407:	83 e0 3f             	and    $0x3f,%eax
ffff80000010940a:	bf 01 00 00 00       	mov    $0x1,%edi
ffff80000010940f:	89 c1                	mov    %eax,%ecx
ffff800000109411:	48 d3 e7             	shl    %cl,%rdi
ffff800000109414:	48 89 f8             	mov    %rdi,%rax
ffff800000109417:	48 31 f0             	xor    %rsi,%rax
ffff80000010941a:	48 89 02             	mov    %rax,(%rdx)
ffff80000010941d:	83 45 e8 01          	addl   $0x1,-0x18(%rbp)
ffff800000109421:	48 83 45 d0 28       	addq   $0x28,-0x30(%rbp)
ffff800000109426:	8b 45 e8             	mov    -0x18(%rbp),%eax
ffff800000109429:	48 63 d0             	movslq %eax,%rdx
ffff80000010942c:	48 8b 45 a0          	mov    -0x60(%rbp),%rax
ffff800000109430:	48 8b 40 08          	mov    0x8(%rax),%rax
ffff800000109434:	48 39 c2             	cmp    %rax,%rdx
ffff800000109437:	0f 82 21 ff ff ff    	jb     ffff80000010935e <init_memory+0x988>
ffff80000010943d:	eb 04                	jmp    ffff800000109443 <init_memory+0xa6d>
ffff80000010943f:	90                   	nop
ffff800000109440:	eb 01                	jmp    ffff800000109443 <init_memory+0xa6d>
ffff800000109442:	90                   	nop
ffff800000109443:	83 45 ec 01          	addl   $0x1,-0x14(%rbp)
ffff800000109447:	8b 45 ec             	mov    -0x14(%rbp),%eax
ffff80000010944a:	48 63 d0             	movslq %eax,%rdx
ffff80000010944d:	48 b8 b0 ff ff ff ff 	movabs $0xffffffffffffffb0,%rax
ffff800000109454:	ff ff ff 
ffff800000109457:	48 8b 04 03          	mov    (%rbx,%rax,1),%rax
ffff80000010945b:	48 8b 80 80 02 00 00 	mov    0x280(%rax),%rax
ffff800000109462:	48 39 c2             	cmp    %rax,%rdx
ffff800000109465:	0f 86 dd fc ff ff    	jbe    ffff800000109148 <init_memory+0x772>
ffff80000010946b:	48 b8 b0 ff ff ff ff 	movabs $0xffffffffffffffb0,%rax
ffff800000109472:	ff ff ff 
ffff800000109475:	48 8b 04 03          	mov    (%rbx,%rax,1),%rax
ffff800000109479:	48 8b 80 a0 02 00 00 	mov    0x2a0(%rax),%rax
ffff800000109480:	48 ba b0 ff ff ff ff 	movabs $0xffffffffffffffb0,%rdx
ffff800000109487:	ff ff ff 
ffff80000010948a:	48 8b 14 13          	mov    (%rbx,%rdx,1),%rdx
ffff80000010948e:	48 8b 92 b8 02 00 00 	mov    0x2b8(%rdx),%rdx
ffff800000109495:	48 89 10             	mov    %rdx,(%rax)
ffff800000109498:	48 b8 b0 ff ff ff ff 	movabs $0xffffffffffffffb0,%rax
ffff80000010949f:	ff ff ff 
ffff8000001094a2:	48 8b 04 03          	mov    (%rbx,%rax,1),%rax
ffff8000001094a6:	48 8b 80 a0 02 00 00 	mov    0x2a0(%rax),%rax
ffff8000001094ad:	48 c7 40 08 00 00 00 	movq   $0x0,0x8(%rax)
ffff8000001094b4:	00 
ffff8000001094b5:	48 b8 b0 ff ff ff ff 	movabs $0xffffffffffffffb0,%rax
ffff8000001094bc:	ff ff ff 
ffff8000001094bf:	48 8b 04 03          	mov    (%rbx,%rax,1),%rax
ffff8000001094c3:	48 8b 80 a0 02 00 00 	mov    0x2a0(%rax),%rax
ffff8000001094ca:	48 c7 40 10 00 00 00 	movq   $0x0,0x10(%rax)
ffff8000001094d1:	00 
ffff8000001094d2:	48 b8 b0 ff ff ff ff 	movabs $0xffffffffffffffb0,%rax
ffff8000001094d9:	ff ff ff 
ffff8000001094dc:	48 8b 04 03          	mov    (%rbx,%rax,1),%rax
ffff8000001094e0:	48 8b 80 a0 02 00 00 	mov    0x2a0(%rax),%rax
ffff8000001094e7:	48 c7 40 18 00 00 00 	movq   $0x0,0x18(%rax)
ffff8000001094ee:	00 
ffff8000001094ef:	48 b8 b0 ff ff ff ff 	movabs $0xffffffffffffffb0,%rax
ffff8000001094f6:	ff ff ff 
ffff8000001094f9:	48 8b 04 03          	mov    (%rbx,%rax,1),%rax
ffff8000001094fd:	48 8b 80 a0 02 00 00 	mov    0x2a0(%rax),%rax
ffff800000109504:	48 c7 40 20 00 00 00 	movq   $0x0,0x20(%rax)
ffff80000010950b:	00 
ffff80000010950c:	48 b8 b0 ff ff ff ff 	movabs $0xffffffffffffffb0,%rax
ffff800000109513:	ff ff ff 
ffff800000109516:	48 8b 04 03          	mov    (%rbx,%rax,1),%rax
ffff80000010951a:	48 8b 90 c0 02 00 00 	mov    0x2c0(%rax),%rdx
ffff800000109521:	48 89 d0             	mov    %rdx,%rax
ffff800000109524:	48 c1 e0 02          	shl    $0x2,%rax
ffff800000109528:	48 01 d0             	add    %rdx,%rax
ffff80000010952b:	48 c1 e0 04          	shl    $0x4,%rax
ffff80000010952f:	48 83 c0 07          	add    $0x7,%rax
ffff800000109533:	48 83 e0 f8          	and    $0xfffffffffffffff8,%rax
ffff800000109537:	48 89 c2             	mov    %rax,%rdx
ffff80000010953a:	48 b8 b0 ff ff ff ff 	movabs $0xffffffffffffffb0,%rax
ffff800000109541:	ff ff ff 
ffff800000109544:	48 8b 04 03          	mov    (%rbx,%rax,1),%rax
ffff800000109548:	48 89 90 c8 02 00 00 	mov    %rdx,0x2c8(%rax)
ffff80000010954f:	48 b8 b0 ff ff ff ff 	movabs $0xffffffffffffffb0,%rax
ffff800000109556:	ff ff ff 
ffff800000109559:	48 8b 04 03          	mov    (%rbx,%rax,1),%rax
ffff80000010955d:	48 8b 88 98 02 00 00 	mov    0x298(%rax),%rcx
ffff800000109564:	48 b8 b0 ff ff ff ff 	movabs $0xffffffffffffffb0,%rax
ffff80000010956b:	ff ff ff 
ffff80000010956e:	48 8b 04 03          	mov    (%rbx,%rax,1),%rax
ffff800000109572:	48 8b 90 90 02 00 00 	mov    0x290(%rax),%rdx
ffff800000109579:	48 b8 b0 ff ff ff ff 	movabs $0xffffffffffffffb0,%rax
ffff800000109580:	ff ff ff 
ffff800000109583:	48 8b 04 03          	mov    (%rbx,%rax,1),%rax
ffff800000109587:	48 8b 80 88 02 00 00 	mov    0x288(%rax),%rax
ffff80000010958e:	49 89 c9             	mov    %rcx,%r9
ffff800000109591:	49 89 d0             	mov    %rdx,%r8
ffff800000109594:	48 89 c1             	mov    %rax,%rcx
ffff800000109597:	48 b8 d0 d2 ff ff ff 	movabs $0xffffffffffffd2d0,%rax
ffff80000010959e:	ff ff ff 
ffff8000001095a1:	48 8d 14 03          	lea    (%rbx,%rax,1),%rdx
ffff8000001095a5:	be 00 80 ff 00       	mov    $0xff8000,%esi
ffff8000001095aa:	bf 00 00 00 00       	mov    $0x0,%edi
ffff8000001095af:	49 89 df             	mov    %rbx,%r15
ffff8000001095b2:	b8 00 00 00 00       	mov    $0x0,%eax
ffff8000001095b7:	49 ba 11 83 ff ff ff 	movabs $0xffffffffffff8311,%r10
ffff8000001095be:	ff ff ff 
ffff8000001095c1:	49 01 da             	add    %rbx,%r10
ffff8000001095c4:	41 ff d2             	callq  *%r10
ffff8000001095c7:	48 b8 b0 ff ff ff ff 	movabs $0xffffffffffffffb0,%rax
ffff8000001095ce:	ff ff ff 
ffff8000001095d1:	48 8b 04 03          	mov    (%rbx,%rax,1),%rax
ffff8000001095d5:	48 8b 88 b0 02 00 00 	mov    0x2b0(%rax),%rcx
ffff8000001095dc:	48 b8 b0 ff ff ff ff 	movabs $0xffffffffffffffb0,%rax
ffff8000001095e3:	ff ff ff 
ffff8000001095e6:	48 8b 04 03          	mov    (%rbx,%rax,1),%rax
ffff8000001095ea:	48 8b 90 a8 02 00 00 	mov    0x2a8(%rax),%rdx
ffff8000001095f1:	48 b8 b0 ff ff ff ff 	movabs $0xffffffffffffffb0,%rax
ffff8000001095f8:	ff ff ff 
ffff8000001095fb:	48 8b 04 03          	mov    (%rbx,%rax,1),%rax
ffff8000001095ff:	48 8b 80 a0 02 00 00 	mov    0x2a0(%rax),%rax
ffff800000109606:	49 89 c9             	mov    %rcx,%r9
ffff800000109609:	49 89 d0             	mov    %rdx,%r8
ffff80000010960c:	48 89 c1             	mov    %rax,%rcx
ffff80000010960f:	48 b8 08 d3 ff ff ff 	movabs $0xffffffffffffd308,%rax
ffff800000109616:	ff ff ff 
ffff800000109619:	48 8d 14 03          	lea    (%rbx,%rax,1),%rdx
ffff80000010961d:	be 00 80 ff 00       	mov    $0xff8000,%esi
ffff800000109622:	bf 00 00 00 00       	mov    $0x0,%edi
ffff800000109627:	49 89 df             	mov    %rbx,%r15
ffff80000010962a:	b8 00 00 00 00       	mov    $0x0,%eax
ffff80000010962f:	49 ba 11 83 ff ff ff 	movabs $0xffffffffffff8311,%r10
ffff800000109636:	ff ff ff 
ffff800000109639:	49 01 da             	add    %rbx,%r10
ffff80000010963c:	41 ff d2             	callq  *%r10
ffff80000010963f:	48 b8 b0 ff ff ff ff 	movabs $0xffffffffffffffb0,%rax
ffff800000109646:	ff ff ff 
ffff800000109649:	48 8b 04 03          	mov    (%rbx,%rax,1),%rax
ffff80000010964d:	48 8b 88 c8 02 00 00 	mov    0x2c8(%rax),%rcx
ffff800000109654:	48 b8 b0 ff ff ff ff 	movabs $0xffffffffffffffb0,%rax
ffff80000010965b:	ff ff ff 
ffff80000010965e:	48 8b 04 03          	mov    (%rbx,%rax,1),%rax
ffff800000109662:	48 8b 90 c0 02 00 00 	mov    0x2c0(%rax),%rdx
ffff800000109669:	48 b8 b0 ff ff ff ff 	movabs $0xffffffffffffffb0,%rax
ffff800000109670:	ff ff ff 
ffff800000109673:	48 8b 04 03          	mov    (%rbx,%rax,1),%rax
ffff800000109677:	48 8b 80 b8 02 00 00 	mov    0x2b8(%rax),%rax
ffff80000010967e:	49 89 c9             	mov    %rcx,%r9
ffff800000109681:	49 89 d0             	mov    %rdx,%r8
ffff800000109684:	48 89 c1             	mov    %rax,%rcx
ffff800000109687:	48 b8 48 d3 ff ff ff 	movabs $0xffffffffffffd348,%rax
ffff80000010968e:	ff ff ff 
ffff800000109691:	48 8d 14 03          	lea    (%rbx,%rax,1),%rdx
ffff800000109695:	be 00 80 ff 00       	mov    $0xff8000,%esi
ffff80000010969a:	bf 00 00 00 00       	mov    $0x0,%edi
ffff80000010969f:	49 89 df             	mov    %rbx,%r15
ffff8000001096a2:	b8 00 00 00 00       	mov    $0x0,%eax
ffff8000001096a7:	49 ba 11 83 ff ff ff 	movabs $0xffffffffffff8311,%r10
ffff8000001096ae:	ff ff ff 
ffff8000001096b1:	49 01 da             	add    %rbx,%r10
ffff8000001096b4:	41 ff d2             	callq  *%r10
ffff8000001096b7:	48 b8 f8 03 00 00 00 	movabs $0x3f8,%rax
ffff8000001096be:	00 00 00 
ffff8000001096c1:	c7 04 03 00 00 00 00 	movl   $0x0,(%rbx,%rax,1)
ffff8000001096c8:	48 b8 fc 03 00 00 00 	movabs $0x3fc,%rax
ffff8000001096cf:	00 00 00 
ffff8000001096d2:	c7 04 03 00 00 00 00 	movl   $0x0,(%rbx,%rax,1)
ffff8000001096d9:	c7 45 ec 00 00 00 00 	movl   $0x0,-0x14(%rbp)
ffff8000001096e0:	e9 c1 00 00 00       	jmpq   ffff8000001097a6 <init_memory+0xdd0>
ffff8000001096e5:	48 b8 b0 ff ff ff ff 	movabs $0xffffffffffffffb0,%rax
ffff8000001096ec:	ff ff ff 
ffff8000001096ef:	48 8b 04 03          	mov    (%rbx,%rax,1),%rax
ffff8000001096f3:	48 8b 88 b8 02 00 00 	mov    0x2b8(%rax),%rcx
ffff8000001096fa:	8b 45 ec             	mov    -0x14(%rbp),%eax
ffff8000001096fd:	48 63 d0             	movslq %eax,%rdx
ffff800000109700:	48 89 d0             	mov    %rdx,%rax
ffff800000109703:	48 c1 e0 02          	shl    $0x2,%rax
ffff800000109707:	48 01 d0             	add    %rdx,%rax
ffff80000010970a:	48 c1 e0 04          	shl    $0x4,%rax
ffff80000010970e:	48 01 c8             	add    %rcx,%rax
ffff800000109711:	48 89 45 98          	mov    %rax,-0x68(%rbp)
ffff800000109715:	48 8b 45 98          	mov    -0x68(%rbp),%rax
ffff800000109719:	48 8b 48 08          	mov    0x8(%rax),%rcx
ffff80000010971d:	48 8b 45 98          	mov    -0x68(%rbp),%rax
ffff800000109721:	48 8b 10             	mov    (%rax),%rdx
ffff800000109724:	48 8b 45 98          	mov    -0x68(%rbp),%rax
ffff800000109728:	48 8b 78 20          	mov    0x20(%rax),%rdi
ffff80000010972c:	48 8b 45 98          	mov    -0x68(%rbp),%rax
ffff800000109730:	48 8b 70 18          	mov    0x18(%rax),%rsi
ffff800000109734:	48 8b 45 98          	mov    -0x68(%rbp),%rax
ffff800000109738:	48 8b 40 10          	mov    0x10(%rax),%rax
ffff80000010973c:	51                   	push   %rcx
ffff80000010973d:	52                   	push   %rdx
ffff80000010973e:	49 89 f9             	mov    %rdi,%r9
ffff800000109741:	49 89 f0             	mov    %rsi,%r8
ffff800000109744:	48 89 c1             	mov    %rax,%rcx
ffff800000109747:	48 b8 88 d3 ff ff ff 	movabs $0xffffffffffffd388,%rax
ffff80000010974e:	ff ff ff 
ffff800000109751:	48 8d 14 03          	lea    (%rbx,%rax,1),%rdx
ffff800000109755:	be 00 80 ff 00       	mov    $0xff8000,%esi
ffff80000010975a:	bf 00 00 00 00       	mov    $0x0,%edi
ffff80000010975f:	49 89 df             	mov    %rbx,%r15
ffff800000109762:	b8 00 00 00 00       	mov    $0x0,%eax
ffff800000109767:	49 ba 11 83 ff ff ff 	movabs $0xffffffffffff8311,%r10
ffff80000010976e:	ff ff ff 
ffff800000109771:	49 01 da             	add    %rbx,%r10
ffff800000109774:	41 ff d2             	callq  *%r10
ffff800000109777:	48 83 c4 10          	add    $0x10,%rsp
ffff80000010977b:	48 8b 45 98          	mov    -0x68(%rbp),%rax
ffff80000010977f:	48 8b 50 10          	mov    0x10(%rax),%rdx
ffff800000109783:	48 b8 00 00 00 00 01 	movabs $0x100000000,%rax
ffff80000010978a:	00 00 00 
ffff80000010978d:	48 39 c2             	cmp    %rax,%rdx
ffff800000109790:	75 10                	jne    ffff8000001097a2 <init_memory+0xdcc>
ffff800000109792:	48 b8 00 04 00 00 00 	movabs $0x400,%rax
ffff800000109799:	00 00 00 
ffff80000010979c:	8b 55 ec             	mov    -0x14(%rbp),%edx
ffff80000010979f:	89 14 03             	mov    %edx,(%rbx,%rax,1)
ffff8000001097a2:	83 45 ec 01          	addl   $0x1,-0x14(%rbp)
ffff8000001097a6:	8b 45 ec             	mov    -0x14(%rbp),%eax
ffff8000001097a9:	48 63 d0             	movslq %eax,%rdx
ffff8000001097ac:	48 b8 b0 ff ff ff ff 	movabs $0xffffffffffffffb0,%rax
ffff8000001097b3:	ff ff ff 
ffff8000001097b6:	48 8b 04 03          	mov    (%rbx,%rax,1),%rax
ffff8000001097ba:	48 8b 80 c0 02 00 00 	mov    0x2c0(%rax),%rax
ffff8000001097c1:	48 39 c2             	cmp    %rax,%rdx
ffff8000001097c4:	0f 82 1b ff ff ff    	jb     ffff8000001096e5 <init_memory+0xd0f>
ffff8000001097ca:	48 b8 b0 ff ff ff ff 	movabs $0xffffffffffffffb0,%rax
ffff8000001097d1:	ff ff ff 
ffff8000001097d4:	48 8b 04 03          	mov    (%rbx,%rax,1),%rax
ffff8000001097d8:	48 8b 80 b8 02 00 00 	mov    0x2b8(%rax),%rax
ffff8000001097df:	48 89 c2             	mov    %rax,%rdx
ffff8000001097e2:	48 b8 b0 ff ff ff ff 	movabs $0xffffffffffffffb0,%rax
ffff8000001097e9:	ff ff ff 
ffff8000001097ec:	48 8b 04 03          	mov    (%rbx,%rax,1),%rax
ffff8000001097f0:	48 8b 80 c8 02 00 00 	mov    0x2c8(%rax),%rax
ffff8000001097f7:	48 01 d0             	add    %rdx,%rax
ffff8000001097fa:	48 05 00 01 00 00    	add    $0x100,%rax
ffff800000109800:	48 83 e0 f8          	and    $0xfffffffffffffff8,%rax
ffff800000109804:	48 89 c2             	mov    %rax,%rdx
ffff800000109807:	48 b8 b0 ff ff ff ff 	movabs $0xffffffffffffffb0,%rax
ffff80000010980e:	ff ff ff 
ffff800000109811:	48 8b 04 03          	mov    (%rbx,%rax,1),%rax
ffff800000109815:	48 89 90 f0 02 00 00 	mov    %rdx,0x2f0(%rax)
ffff80000010981c:	48 b8 b0 ff ff ff ff 	movabs $0xffffffffffffffb0,%rax
ffff800000109823:	ff ff ff 
ffff800000109826:	48 8b 04 03          	mov    (%rbx,%rax,1),%rax
ffff80000010982a:	48 8b 88 f0 02 00 00 	mov    0x2f0(%rax),%rcx
ffff800000109831:	48 b8 b0 ff ff ff ff 	movabs $0xffffffffffffffb0,%rax
ffff800000109838:	ff ff ff 
ffff80000010983b:	48 8b 04 03          	mov    (%rbx,%rax,1),%rax
ffff80000010983f:	48 8b 90 e8 02 00 00 	mov    0x2e8(%rax),%rdx
ffff800000109846:	48 b8 b0 ff ff ff ff 	movabs $0xffffffffffffffb0,%rax
ffff80000010984d:	ff ff ff 
ffff800000109850:	48 8b 04 03          	mov    (%rbx,%rax,1),%rax
ffff800000109854:	48 8b b8 e0 02 00 00 	mov    0x2e0(%rax),%rdi
ffff80000010985b:	48 b8 b0 ff ff ff ff 	movabs $0xffffffffffffffb0,%rax
ffff800000109862:	ff ff ff 
ffff800000109865:	48 8b 04 03          	mov    (%rbx,%rax,1),%rax
ffff800000109869:	48 8b b0 d8 02 00 00 	mov    0x2d8(%rax),%rsi
ffff800000109870:	48 b8 b0 ff ff ff ff 	movabs $0xffffffffffffffb0,%rax
ffff800000109877:	ff ff ff 
ffff80000010987a:	48 8b 04 03          	mov    (%rbx,%rax,1),%rax
ffff80000010987e:	48 8b 80 d0 02 00 00 	mov    0x2d0(%rax),%rax
ffff800000109885:	51                   	push   %rcx
ffff800000109886:	52                   	push   %rdx
ffff800000109887:	49 89 f9             	mov    %rdi,%r9
ffff80000010988a:	49 89 f0             	mov    %rsi,%r8
ffff80000010988d:	48 89 c1             	mov    %rax,%rcx
ffff800000109890:	48 b8 f0 d3 ff ff ff 	movabs $0xffffffffffffd3f0,%rax
ffff800000109897:	ff ff ff 
ffff80000010989a:	48 8d 14 03          	lea    (%rbx,%rax,1),%rdx
ffff80000010989e:	be 00 80 ff 00       	mov    $0xff8000,%esi
ffff8000001098a3:	bf 00 00 00 00       	mov    $0x0,%edi
ffff8000001098a8:	49 89 df             	mov    %rbx,%r15
ffff8000001098ab:	b8 00 00 00 00       	mov    $0x0,%eax
ffff8000001098b0:	49 ba 11 83 ff ff ff 	movabs $0xffffffffffff8311,%r10
ffff8000001098b7:	ff ff ff 
ffff8000001098ba:	49 01 da             	add    %rbx,%r10
ffff8000001098bd:	41 ff d2             	callq  *%r10
ffff8000001098c0:	48 83 c4 10          	add    $0x10,%rsp
ffff8000001098c4:	48 b8 b0 ff ff ff ff 	movabs $0xffffffffffffffb0,%rax
ffff8000001098cb:	ff ff ff 
ffff8000001098ce:	48 8b 04 03          	mov    (%rbx,%rax,1),%rax
ffff8000001098d2:	48 8b 90 f0 02 00 00 	mov    0x2f0(%rax),%rdx
ffff8000001098d9:	48 b8 00 00 00 00 00 	movabs $0x800000000000,%rax
ffff8000001098e0:	80 00 00 
ffff8000001098e3:	48 01 d0             	add    %rdx,%rax
ffff8000001098e6:	48 c1 e8 15          	shr    $0x15,%rax
ffff8000001098ea:	89 45 ec             	mov    %eax,-0x14(%rbp)
ffff8000001098ed:	c7 45 e8 00 00 00 00 	movl   $0x0,-0x18(%rbp)
ffff8000001098f4:	eb 48                	jmp    ffff80000010993e <init_memory+0xf68>
ffff8000001098f6:	48 b8 b0 ff ff ff ff 	movabs $0xffffffffffffffb0,%rax
ffff8000001098fd:	ff ff ff 
ffff800000109900:	48 8b 04 03          	mov    (%rbx,%rax,1),%rax
ffff800000109904:	48 8b 88 a0 02 00 00 	mov    0x2a0(%rax),%rcx
ffff80000010990b:	8b 45 e8             	mov    -0x18(%rbp),%eax
ffff80000010990e:	48 63 d0             	movslq %eax,%rdx
ffff800000109911:	48 89 d0             	mov    %rdx,%rax
ffff800000109914:	48 c1 e0 02          	shl    $0x2,%rax
ffff800000109918:	48 01 d0             	add    %rdx,%rax
ffff80000010991b:	48 c1 e0 03          	shl    $0x3,%rax
ffff80000010991f:	48 01 c8             	add    %rcx,%rax
ffff800000109922:	be 93 00 00 00       	mov    $0x93,%esi
ffff800000109927:	48 89 c7             	mov    %rax,%rdi
ffff80000010992a:	48 b8 0f c4 ff ff ff 	movabs $0xffffffffffffc40f,%rax
ffff800000109931:	ff ff ff 
ffff800000109934:	48 8d 04 03          	lea    (%rbx,%rax,1),%rax
ffff800000109938:	ff d0                	callq  *%rax
ffff80000010993a:	83 45 e8 01          	addl   $0x1,-0x18(%rbp)
ffff80000010993e:	8b 45 e8             	mov    -0x18(%rbp),%eax
ffff800000109941:	3b 45 ec             	cmp    -0x14(%rbp),%eax
ffff800000109944:	7e b0                	jle    ffff8000001098f6 <init_memory+0xf20>
ffff800000109946:	b8 00 00 00 00       	mov    $0x0,%eax
ffff80000010994b:	48 ba 29 c6 ff ff ff 	movabs $0xffffffffffffc629,%rdx
ffff800000109952:	ff ff ff 
ffff800000109955:	48 8d 14 13          	lea    (%rbx,%rdx,1),%rdx
ffff800000109959:	ff d2                	callq  *%rdx
ffff80000010995b:	48 89 c2             	mov    %rax,%rdx
ffff80000010995e:	48 b8 08 04 00 00 00 	movabs $0x408,%rax
ffff800000109965:	00 00 00 
ffff800000109968:	48 89 14 03          	mov    %rdx,(%rbx,%rax,1)
ffff80000010996c:	48 b8 08 04 00 00 00 	movabs $0x408,%rax
ffff800000109973:	00 00 00 
ffff800000109976:	48 8b 04 03          	mov    (%rbx,%rax,1),%rax
ffff80000010997a:	48 89 c1             	mov    %rax,%rcx
ffff80000010997d:	48 b8 42 d4 ff ff ff 	movabs $0xffffffffffffd442,%rax
ffff800000109984:	ff ff ff 
ffff800000109987:	48 8d 14 03          	lea    (%rbx,%rax,1),%rdx
ffff80000010998b:	be ff ff 00 00       	mov    $0xffff,%esi
ffff800000109990:	bf 00 00 00 00       	mov    $0x0,%edi
ffff800000109995:	49 89 df             	mov    %rbx,%r15
ffff800000109998:	b8 00 00 00 00       	mov    $0x0,%eax
ffff80000010999d:	49 b8 11 83 ff ff ff 	movabs $0xffffffffffff8311,%r8
ffff8000001099a4:	ff ff ff 
ffff8000001099a7:	49 01 d8             	add    %rbx,%r8
ffff8000001099aa:	41 ff d0             	callq  *%r8
ffff8000001099ad:	48 b8 08 04 00 00 00 	movabs $0x408,%rax
ffff8000001099b4:	00 00 00 
ffff8000001099b7:	48 8b 04 03          	mov    (%rbx,%rax,1),%rax
ffff8000001099bb:	48 89 c2             	mov    %rax,%rdx
ffff8000001099be:	48 b8 00 00 00 00 00 	movabs $0xffff800000000000,%rax
ffff8000001099c5:	80 ff ff 
ffff8000001099c8:	48 01 d0             	add    %rdx,%rax
ffff8000001099cb:	48 8b 00             	mov    (%rax),%rax
ffff8000001099ce:	b0 00                	mov    $0x0,%al
ffff8000001099d0:	48 89 c1             	mov    %rax,%rcx
ffff8000001099d3:	48 b8 55 d4 ff ff ff 	movabs $0xffffffffffffd455,%rax
ffff8000001099da:	ff ff ff 
ffff8000001099dd:	48 8d 14 03          	lea    (%rbx,%rax,1),%rdx
ffff8000001099e1:	be ff ff 00 00       	mov    $0xffff,%esi
ffff8000001099e6:	bf 00 00 00 00       	mov    $0x0,%edi
ffff8000001099eb:	49 89 df             	mov    %rbx,%r15
ffff8000001099ee:	b8 00 00 00 00       	mov    $0x0,%eax
ffff8000001099f3:	49 b8 11 83 ff ff ff 	movabs $0xffffffffffff8311,%r8
ffff8000001099fa:	ff ff ff 
ffff8000001099fd:	49 01 d8             	add    %rbx,%r8
ffff800000109a00:	41 ff d0             	callq  *%r8
ffff800000109a03:	48 b8 08 04 00 00 00 	movabs $0x408,%rax
ffff800000109a0a:	00 00 00 
ffff800000109a0d:	48 8b 04 03          	mov    (%rbx,%rax,1),%rax
ffff800000109a11:	48 89 c2             	mov    %rax,%rdx
ffff800000109a14:	48 b8 00 00 00 00 00 	movabs $0xffff800000000000,%rax
ffff800000109a1b:	80 ff ff 
ffff800000109a1e:	48 01 d0             	add    %rdx,%rax
ffff800000109a21:	48 8b 00             	mov    (%rax),%rax
ffff800000109a24:	b0 00                	mov    $0x0,%al
ffff800000109a26:	48 89 c2             	mov    %rax,%rdx
ffff800000109a29:	48 b8 00 00 00 00 00 	movabs $0xffff800000000000,%rax
ffff800000109a30:	80 ff ff 
ffff800000109a33:	48 01 d0             	add    %rdx,%rax
ffff800000109a36:	48 8b 00             	mov    (%rax),%rax
ffff800000109a39:	b0 00                	mov    $0x0,%al
ffff800000109a3b:	48 89 c1             	mov    %rax,%rcx
ffff800000109a3e:	48 b8 69 d4 ff ff ff 	movabs $0xffffffffffffd469,%rax
ffff800000109a45:	ff ff ff 
ffff800000109a48:	48 8d 14 03          	lea    (%rbx,%rax,1),%rdx
ffff800000109a4c:	be ff ff 00 00       	mov    $0xffff,%esi
ffff800000109a51:	bf 00 00 00 00       	mov    $0x0,%edi
ffff800000109a56:	49 89 df             	mov    %rbx,%r15
ffff800000109a59:	b8 00 00 00 00       	mov    $0x0,%eax
ffff800000109a5e:	49 b8 11 83 ff ff ff 	movabs $0xffffffffffff8311,%r8
ffff800000109a65:	ff ff ff 
ffff800000109a68:	49 01 d8             	add    %rbx,%r8
ffff800000109a6b:	41 ff d0             	callq  *%r8
ffff800000109a6e:	c7 45 ec 00 00 00 00 	movl   $0x0,-0x14(%rbp)
ffff800000109a75:	eb 36                	jmp    ffff800000109aad <init_memory+0x10d7>
ffff800000109a77:	8b 45 ec             	mov    -0x14(%rbp),%eax
ffff800000109a7a:	48 98                	cltq   
ffff800000109a7c:	48 8d 14 c5 00 00 00 	lea    0x0(,%rax,8),%rdx
ffff800000109a83:	00 
ffff800000109a84:	48 b8 08 04 00 00 00 	movabs $0x408,%rax
ffff800000109a8b:	00 00 00 
ffff800000109a8e:	48 8b 04 03          	mov    (%rbx,%rax,1),%rax
ffff800000109a92:	48 01 c2             	add    %rax,%rdx
ffff800000109a95:	48 b8 00 00 00 00 00 	movabs $0xffff800000000000,%rax
ffff800000109a9c:	80 ff ff 
ffff800000109a9f:	48 01 d0             	add    %rdx,%rax
ffff800000109aa2:	48 c7 00 00 00 00 00 	movq   $0x0,(%rax)
ffff800000109aa9:	83 45 ec 01          	addl   $0x1,-0x14(%rbp)
ffff800000109aad:	83 7d ec 09          	cmpl   $0x9,-0x14(%rbp)
ffff800000109ab1:	7e c4                	jle    ffff800000109a77 <init_memory+0x10a1>
ffff800000109ab3:	0f 20 d8             	mov    %cr3,%rax
ffff800000109ab6:	0f 22 d8             	mov    %rax,%cr3
ffff800000109ab9:	48 89 45 90          	mov    %rax,-0x70(%rbp)
ffff800000109abd:	90                   	nop
ffff800000109abe:	48 8d 65 f0          	lea    -0x10(%rbp),%rsp
ffff800000109ac2:	5b                   	pop    %rbx
ffff800000109ac3:	41 5f                	pop    %r15
ffff800000109ac5:	5d                   	pop    %rbp
ffff800000109ac6:	c3                   	retq   

ffff800000109ac7 <page_init>:
ffff800000109ac7:	55                   	push   %rbp
ffff800000109ac8:	48 89 e5             	mov    %rsp,%rbp
ffff800000109acb:	48 8d 05 f9 ff ff ff 	lea    -0x7(%rip),%rax        # ffff800000109acb <page_init+0x4>
ffff800000109ad2:	49 bb ed 3b 00 00 00 	movabs $0x3bed,%r11
ffff800000109ad9:	00 00 00 
ffff800000109adc:	4c 01 d8             	add    %r11,%rax
ffff800000109adf:	48 89 7d f8          	mov    %rdi,-0x8(%rbp)
ffff800000109ae3:	48 89 75 f0          	mov    %rsi,-0x10(%rbp)
ffff800000109ae7:	48 8b 55 f8          	mov    -0x8(%rbp),%rdx
ffff800000109aeb:	48 8b 52 10          	mov    0x10(%rdx),%rdx
ffff800000109aef:	48 85 d2             	test   %rdx,%rdx
ffff800000109af2:	0f 85 d4 00 00 00    	jne    ffff800000109bcc <page_init+0x105>
ffff800000109af8:	48 ba b0 ff ff ff ff 	movabs $0xffffffffffffffb0,%rdx
ffff800000109aff:	ff ff ff 
ffff800000109b02:	48 8b 14 10          	mov    (%rax,%rdx,1),%rdx
ffff800000109b06:	48 8b 8a 88 02 00 00 	mov    0x288(%rdx),%rcx
ffff800000109b0d:	48 8b 55 f8          	mov    -0x8(%rbp),%rdx
ffff800000109b11:	48 8b 52 08          	mov    0x8(%rdx),%rdx
ffff800000109b15:	48 c1 ea 1b          	shr    $0x1b,%rdx
ffff800000109b19:	48 c1 e2 03          	shl    $0x3,%rdx
ffff800000109b1d:	48 8d 34 11          	lea    (%rcx,%rdx,1),%rsi
ffff800000109b21:	48 ba b0 ff ff ff ff 	movabs $0xffffffffffffffb0,%rdx
ffff800000109b28:	ff ff ff 
ffff800000109b2b:	48 8b 04 10          	mov    (%rax,%rdx,1),%rax
ffff800000109b2f:	48 8b 90 88 02 00 00 	mov    0x288(%rax),%rdx
ffff800000109b36:	48 8b 45 f8          	mov    -0x8(%rbp),%rax
ffff800000109b3a:	48 8b 40 08          	mov    0x8(%rax),%rax
ffff800000109b3e:	48 c1 e8 1b          	shr    $0x1b,%rax
ffff800000109b42:	48 c1 e0 03          	shl    $0x3,%rax
ffff800000109b46:	48 01 d0             	add    %rdx,%rax
ffff800000109b49:	48 8b 10             	mov    (%rax),%rdx
ffff800000109b4c:	48 8b 45 f8          	mov    -0x8(%rbp),%rax
ffff800000109b50:	48 8b 40 08          	mov    0x8(%rax),%rax
ffff800000109b54:	48 c1 e8 15          	shr    $0x15,%rax
ffff800000109b58:	83 e0 3f             	and    $0x3f,%eax
ffff800000109b5b:	bf 01 00 00 00       	mov    $0x1,%edi
ffff800000109b60:	89 c1                	mov    %eax,%ecx
ffff800000109b62:	48 d3 e7             	shl    %cl,%rdi
ffff800000109b65:	48 89 f8             	mov    %rdi,%rax
ffff800000109b68:	48 09 d0             	or     %rdx,%rax
ffff800000109b6b:	48 89 06             	mov    %rax,(%rsi)
ffff800000109b6e:	48 8b 45 f8          	mov    -0x8(%rbp),%rax
ffff800000109b72:	48 8b 55 f0          	mov    -0x10(%rbp),%rdx
ffff800000109b76:	48 89 50 10          	mov    %rdx,0x10(%rax)
ffff800000109b7a:	48 8b 45 f8          	mov    -0x8(%rbp),%rax
ffff800000109b7e:	48 8b 40 18          	mov    0x18(%rax),%rax
ffff800000109b82:	48 8d 50 01          	lea    0x1(%rax),%rdx
ffff800000109b86:	48 8b 45 f8          	mov    -0x8(%rbp),%rax
ffff800000109b8a:	48 89 50 18          	mov    %rdx,0x18(%rax)
ffff800000109b8e:	48 8b 45 f8          	mov    -0x8(%rbp),%rax
ffff800000109b92:	48 8b 00             	mov    (%rax),%rax
ffff800000109b95:	48 8b 50 38          	mov    0x38(%rax),%rdx
ffff800000109b99:	48 83 c2 01          	add    $0x1,%rdx
ffff800000109b9d:	48 89 50 38          	mov    %rdx,0x38(%rax)
ffff800000109ba1:	48 8b 45 f8          	mov    -0x8(%rbp),%rax
ffff800000109ba5:	48 8b 00             	mov    (%rax),%rax
ffff800000109ba8:	48 8b 50 40          	mov    0x40(%rax),%rdx
ffff800000109bac:	48 83 ea 01          	sub    $0x1,%rdx
ffff800000109bb0:	48 89 50 40          	mov    %rdx,0x40(%rax)
ffff800000109bb4:	48 8b 45 f8          	mov    -0x8(%rbp),%rax
ffff800000109bb8:	48 8b 00             	mov    (%rax),%rax
ffff800000109bbb:	48 8b 50 48          	mov    0x48(%rax),%rdx
ffff800000109bbf:	48 83 c2 01          	add    $0x1,%rdx
ffff800000109bc3:	48 89 50 48          	mov    %rdx,0x48(%rax)
ffff800000109bc7:	e9 0e 01 00 00       	jmpq   ffff800000109cda <page_init+0x213>
ffff800000109bcc:	48 8b 55 f8          	mov    -0x8(%rbp),%rdx
ffff800000109bd0:	48 8b 52 10          	mov    0x10(%rdx),%rdx
ffff800000109bd4:	83 e2 04             	and    $0x4,%edx
ffff800000109bd7:	48 85 d2             	test   %rdx,%rdx
ffff800000109bda:	75 2e                	jne    ffff800000109c0a <page_init+0x143>
ffff800000109bdc:	48 8b 55 f8          	mov    -0x8(%rbp),%rdx
ffff800000109be0:	48 8b 52 10          	mov    0x10(%rdx),%rdx
ffff800000109be4:	81 e2 00 01 00 00    	and    $0x100,%edx
ffff800000109bea:	48 85 d2             	test   %rdx,%rdx
ffff800000109bed:	75 1b                	jne    ffff800000109c0a <page_init+0x143>
ffff800000109bef:	48 8b 55 f0          	mov    -0x10(%rbp),%rdx
ffff800000109bf3:	83 e2 04             	and    $0x4,%edx
ffff800000109bf6:	48 85 d2             	test   %rdx,%rdx
ffff800000109bf9:	75 0f                	jne    ffff800000109c0a <page_init+0x143>
ffff800000109bfb:	48 8b 55 f0          	mov    -0x10(%rbp),%rdx
ffff800000109bff:	81 e2 00 01 00 00    	and    $0x100,%edx
ffff800000109c05:	48 85 d2             	test   %rdx,%rdx
ffff800000109c08:	74 43                	je     ffff800000109c4d <page_init+0x186>
ffff800000109c0a:	48 8b 45 f8          	mov    -0x8(%rbp),%rax
ffff800000109c0e:	48 8b 40 10          	mov    0x10(%rax),%rax
ffff800000109c12:	48 0b 45 f0          	or     -0x10(%rbp),%rax
ffff800000109c16:	48 89 c2             	mov    %rax,%rdx
ffff800000109c19:	48 8b 45 f8          	mov    -0x8(%rbp),%rax
ffff800000109c1d:	48 89 50 10          	mov    %rdx,0x10(%rax)
ffff800000109c21:	48 8b 45 f8          	mov    -0x8(%rbp),%rax
ffff800000109c25:	48 8b 40 18          	mov    0x18(%rax),%rax
ffff800000109c29:	48 8d 50 01          	lea    0x1(%rax),%rdx
ffff800000109c2d:	48 8b 45 f8          	mov    -0x8(%rbp),%rax
ffff800000109c31:	48 89 50 18          	mov    %rdx,0x18(%rax)
ffff800000109c35:	48 8b 45 f8          	mov    -0x8(%rbp),%rax
ffff800000109c39:	48 8b 00             	mov    (%rax),%rax
ffff800000109c3c:	48 8b 50 48          	mov    0x48(%rax),%rdx
ffff800000109c40:	48 83 c2 01          	add    $0x1,%rdx
ffff800000109c44:	48 89 50 48          	mov    %rdx,0x48(%rax)
ffff800000109c48:	e9 8d 00 00 00       	jmpq   ffff800000109cda <page_init+0x213>
ffff800000109c4d:	48 ba b0 ff ff ff ff 	movabs $0xffffffffffffffb0,%rdx
ffff800000109c54:	ff ff ff 
ffff800000109c57:	48 8b 14 10          	mov    (%rax,%rdx,1),%rdx
ffff800000109c5b:	48 8b 8a 88 02 00 00 	mov    0x288(%rdx),%rcx
ffff800000109c62:	48 8b 55 f8          	mov    -0x8(%rbp),%rdx
ffff800000109c66:	48 8b 52 08          	mov    0x8(%rdx),%rdx
ffff800000109c6a:	48 c1 ea 1b          	shr    $0x1b,%rdx
ffff800000109c6e:	48 c1 e2 03          	shl    $0x3,%rdx
ffff800000109c72:	48 8d 34 11          	lea    (%rcx,%rdx,1),%rsi
ffff800000109c76:	48 ba b0 ff ff ff ff 	movabs $0xffffffffffffffb0,%rdx
ffff800000109c7d:	ff ff ff 
ffff800000109c80:	48 8b 04 10          	mov    (%rax,%rdx,1),%rax
ffff800000109c84:	48 8b 90 88 02 00 00 	mov    0x288(%rax),%rdx
ffff800000109c8b:	48 8b 45 f8          	mov    -0x8(%rbp),%rax
ffff800000109c8f:	48 8b 40 08          	mov    0x8(%rax),%rax
ffff800000109c93:	48 c1 e8 1b          	shr    $0x1b,%rax
ffff800000109c97:	48 c1 e0 03          	shl    $0x3,%rax
ffff800000109c9b:	48 01 d0             	add    %rdx,%rax
ffff800000109c9e:	48 8b 10             	mov    (%rax),%rdx
ffff800000109ca1:	48 8b 45 f8          	mov    -0x8(%rbp),%rax
ffff800000109ca5:	48 8b 40 08          	mov    0x8(%rax),%rax
ffff800000109ca9:	48 c1 e8 15          	shr    $0x15,%rax
ffff800000109cad:	83 e0 3f             	and    $0x3f,%eax
ffff800000109cb0:	bf 01 00 00 00       	mov    $0x1,%edi
ffff800000109cb5:	89 c1                	mov    %eax,%ecx
ffff800000109cb7:	48 d3 e7             	shl    %cl,%rdi
ffff800000109cba:	48 89 f8             	mov    %rdi,%rax
ffff800000109cbd:	48 09 d0             	or     %rdx,%rax
ffff800000109cc0:	48 89 06             	mov    %rax,(%rsi)
ffff800000109cc3:	48 8b 45 f8          	mov    -0x8(%rbp),%rax
ffff800000109cc7:	48 8b 40 10          	mov    0x10(%rax),%rax
ffff800000109ccb:	48 0b 45 f0          	or     -0x10(%rbp),%rax
ffff800000109ccf:	48 89 c2             	mov    %rax,%rdx
ffff800000109cd2:	48 8b 45 f8          	mov    -0x8(%rbp),%rax
ffff800000109cd6:	48 89 50 10          	mov    %rdx,0x10(%rax)
ffff800000109cda:	b8 00 00 00 00       	mov    $0x0,%eax
ffff800000109cdf:	5d                   	pop    %rbp
ffff800000109ce0:	c3                   	retq   

ffff800000109ce1 <Get_gdt>:
ffff800000109ce1:	55                   	push   %rbp
ffff800000109ce2:	48 89 e5             	mov    %rsp,%rbp
ffff800000109ce5:	48 8d 05 f9 ff ff ff 	lea    -0x7(%rip),%rax        # ffff800000109ce5 <Get_gdt+0x4>
ffff800000109cec:	49 bb d3 39 00 00 00 	movabs $0x39d3,%r11
ffff800000109cf3:	00 00 00 
ffff800000109cf6:	4c 01 d8             	add    %r11,%rax
ffff800000109cf9:	0f 20 d8             	mov    %cr3,%rax
ffff800000109cfc:	48 89 45 f8          	mov    %rax,-0x8(%rbp)
ffff800000109d00:	48 8b 45 f8          	mov    -0x8(%rbp),%rax
ffff800000109d04:	5d                   	pop    %rbp
ffff800000109d05:	c3                   	retq   

ffff800000109d06 <alloc_pages>:
ffff800000109d06:	55                   	push   %rbp
ffff800000109d07:	48 89 e5             	mov    %rsp,%rbp
ffff800000109d0a:	41 57                	push   %r15
ffff800000109d0c:	53                   	push   %rbx
ffff800000109d0d:	48 83 c4 80          	add    $0xffffffffffffff80,%rsp
ffff800000109d11:	48 8d 1d f9 ff ff ff 	lea    -0x7(%rip),%rbx        # ffff800000109d11 <alloc_pages+0xb>
ffff800000109d18:	49 bb a7 39 00 00 00 	movabs $0x39a7,%r11
ffff800000109d1f:	00 00 00 
ffff800000109d22:	4c 01 db             	add    %r11,%rbx
ffff800000109d25:	89 bd 7c ff ff ff    	mov    %edi,-0x84(%rbp)
ffff800000109d2b:	89 b5 78 ff ff ff    	mov    %esi,-0x88(%rbp)
ffff800000109d31:	48 89 95 70 ff ff ff 	mov    %rdx,-0x90(%rbp)
ffff800000109d38:	48 c7 45 c0 00 00 00 	movq   $0x0,-0x40(%rbp)
ffff800000109d3f:	00 
ffff800000109d40:	c7 45 e8 00 00 00 00 	movl   $0x0,-0x18(%rbp)
ffff800000109d47:	c7 45 e4 00 00 00 00 	movl   $0x0,-0x1c(%rbp)
ffff800000109d4e:	8b 85 7c ff ff ff    	mov    -0x84(%rbp),%eax
ffff800000109d54:	83 f8 02             	cmp    $0x2,%eax
ffff800000109d57:	74 26                	je     ffff800000109d7f <alloc_pages+0x79>
ffff800000109d59:	83 f8 04             	cmp    $0x4,%eax
ffff800000109d5c:	74 43                	je     ffff800000109da1 <alloc_pages+0x9b>
ffff800000109d5e:	83 f8 01             	cmp    $0x1,%eax
ffff800000109d61:	75 6b                	jne    ffff800000109dce <alloc_pages+0xc8>
ffff800000109d63:	c7 45 e8 00 00 00 00 	movl   $0x0,-0x18(%rbp)
ffff800000109d6a:	48 b8 f8 03 00 00 00 	movabs $0x3f8,%rax
ffff800000109d71:	00 00 00 
ffff800000109d74:	8b 04 03             	mov    (%rbx,%rax,1),%eax
ffff800000109d77:	89 45 e4             	mov    %eax,-0x1c(%rbp)
ffff800000109d7a:	e9 88 00 00 00       	jmpq   ffff800000109e07 <alloc_pages+0x101>
ffff800000109d7f:	48 b8 f8 03 00 00 00 	movabs $0x3f8,%rax
ffff800000109d86:	00 00 00 
ffff800000109d89:	8b 04 03             	mov    (%rbx,%rax,1),%eax
ffff800000109d8c:	89 45 e8             	mov    %eax,-0x18(%rbp)
ffff800000109d8f:	48 b8 fc 03 00 00 00 	movabs $0x3fc,%rax
ffff800000109d96:	00 00 00 
ffff800000109d99:	8b 04 03             	mov    (%rbx,%rax,1),%eax
ffff800000109d9c:	89 45 e4             	mov    %eax,-0x1c(%rbp)
ffff800000109d9f:	eb 66                	jmp    ffff800000109e07 <alloc_pages+0x101>
ffff800000109da1:	48 b8 00 04 00 00 00 	movabs $0x400,%rax
ffff800000109da8:	00 00 00 
ffff800000109dab:	8b 04 03             	mov    (%rbx,%rax,1),%eax
ffff800000109dae:	89 45 e8             	mov    %eax,-0x18(%rbp)
ffff800000109db1:	48 b8 b0 ff ff ff ff 	movabs $0xffffffffffffffb0,%rax
ffff800000109db8:	ff ff ff 
ffff800000109dbb:	48 8b 04 03          	mov    (%rbx,%rax,1),%rax
ffff800000109dbf:	48 8b 80 c0 02 00 00 	mov    0x2c0(%rax),%rax
ffff800000109dc6:	83 e8 01             	sub    $0x1,%eax
ffff800000109dc9:	89 45 e4             	mov    %eax,-0x1c(%rbp)
ffff800000109dcc:	eb 39                	jmp    ffff800000109e07 <alloc_pages+0x101>
ffff800000109dce:	48 b8 80 d4 ff ff ff 	movabs $0xffffffffffffd480,%rax
ffff800000109dd5:	ff ff ff 
ffff800000109dd8:	48 8d 14 03          	lea    (%rbx,%rax,1),%rdx
ffff800000109ddc:	be 00 00 ff 00       	mov    $0xff0000,%esi
ffff800000109de1:	bf 00 00 00 00       	mov    $0x0,%edi
ffff800000109de6:	49 89 df             	mov    %rbx,%r15
ffff800000109de9:	b8 00 00 00 00       	mov    $0x0,%eax
ffff800000109dee:	48 b9 11 83 ff ff ff 	movabs $0xffffffffffff8311,%rcx
ffff800000109df5:	ff ff ff 
ffff800000109df8:	48 01 d9             	add    %rbx,%rcx
ffff800000109dfb:	ff d1                	callq  *%rcx
ffff800000109dfd:	b8 00 00 00 00       	mov    $0x0,%eax
ffff800000109e02:	e9 8d 02 00 00       	jmpq   ffff80000010a094 <alloc_pages+0x38e>
ffff800000109e07:	8b 45 e8             	mov    -0x18(%rbp),%eax
ffff800000109e0a:	89 45 ec             	mov    %eax,-0x14(%rbp)
ffff800000109e0d:	e9 45 02 00 00       	jmpq   ffff80000010a057 <alloc_pages+0x351>
ffff800000109e12:	48 b8 b0 ff ff ff ff 	movabs $0xffffffffffffffb0,%rax
ffff800000109e19:	ff ff ff 
ffff800000109e1c:	48 8b 04 03          	mov    (%rbx,%rax,1),%rax
ffff800000109e20:	48 8b 88 b8 02 00 00 	mov    0x2b8(%rax),%rcx
ffff800000109e27:	8b 45 ec             	mov    -0x14(%rbp),%eax
ffff800000109e2a:	48 63 d0             	movslq %eax,%rdx
ffff800000109e2d:	48 89 d0             	mov    %rdx,%rax
ffff800000109e30:	48 c1 e0 02          	shl    $0x2,%rax
ffff800000109e34:	48 01 d0             	add    %rdx,%rax
ffff800000109e37:	48 c1 e0 04          	shl    $0x4,%rax
ffff800000109e3b:	48 01 c8             	add    %rcx,%rax
ffff800000109e3e:	48 8b 50 40          	mov    0x40(%rax),%rdx
ffff800000109e42:	8b 85 78 ff ff ff    	mov    -0x88(%rbp),%eax
ffff800000109e48:	48 98                	cltq   
ffff800000109e4a:	48 39 c2             	cmp    %rax,%rdx
ffff800000109e4d:	0f 82 ff 01 00 00    	jb     ffff80000010a052 <alloc_pages+0x34c>
ffff800000109e53:	48 b8 b0 ff ff ff ff 	movabs $0xffffffffffffffb0,%rax
ffff800000109e5a:	ff ff ff 
ffff800000109e5d:	48 8b 04 03          	mov    (%rbx,%rax,1),%rax
ffff800000109e61:	48 8b 88 b8 02 00 00 	mov    0x2b8(%rax),%rcx
ffff800000109e68:	8b 45 ec             	mov    -0x14(%rbp),%eax
ffff800000109e6b:	48 63 d0             	movslq %eax,%rdx
ffff800000109e6e:	48 89 d0             	mov    %rdx,%rax
ffff800000109e71:	48 c1 e0 02          	shl    $0x2,%rax
ffff800000109e75:	48 01 d0             	add    %rdx,%rax
ffff800000109e78:	48 c1 e0 04          	shl    $0x4,%rax
ffff800000109e7c:	48 01 c8             	add    %rcx,%rax
ffff800000109e7f:	48 89 45 b8          	mov    %rax,-0x48(%rbp)
ffff800000109e83:	48 8b 45 b8          	mov    -0x48(%rbp),%rax
ffff800000109e87:	48 8b 40 10          	mov    0x10(%rax),%rax
ffff800000109e8b:	48 c1 e8 15          	shr    $0x15,%rax
ffff800000109e8f:	48 89 45 b0          	mov    %rax,-0x50(%rbp)
ffff800000109e93:	48 8b 45 b8          	mov    -0x48(%rbp),%rax
ffff800000109e97:	48 8b 40 18          	mov    0x18(%rax),%rax
ffff800000109e9b:	48 c1 e8 15          	shr    $0x15,%rax
ffff800000109e9f:	48 89 45 a8          	mov    %rax,-0x58(%rbp)
ffff800000109ea3:	48 8b 45 b8          	mov    -0x48(%rbp),%rax
ffff800000109ea7:	48 8b 40 20          	mov    0x20(%rax),%rax
ffff800000109eab:	48 c1 e8 15          	shr    $0x15,%rax
ffff800000109eaf:	48 89 45 a0          	mov    %rax,-0x60(%rbp)
ffff800000109eb3:	48 8b 45 b0          	mov    -0x50(%rbp),%rax
ffff800000109eb7:	83 e0 3f             	and    $0x3f,%eax
ffff800000109eba:	ba 40 00 00 00       	mov    $0x40,%edx
ffff800000109ebf:	48 29 c2             	sub    %rax,%rdx
ffff800000109ec2:	48 89 d0             	mov    %rdx,%rax
ffff800000109ec5:	48 89 45 98          	mov    %rax,-0x68(%rbp)
ffff800000109ec9:	48 8b 45 b0          	mov    -0x50(%rbp),%rax
ffff800000109ecd:	48 89 45 d8          	mov    %rax,-0x28(%rbp)
ffff800000109ed1:	e9 6c 01 00 00       	jmpq   ffff80000010a042 <alloc_pages+0x33c>
ffff800000109ed6:	48 b8 b0 ff ff ff ff 	movabs $0xffffffffffffffb0,%rax
ffff800000109edd:	ff ff ff 
ffff800000109ee0:	48 8b 04 03          	mov    (%rbx,%rax,1),%rax
ffff800000109ee4:	48 8b 80 88 02 00 00 	mov    0x288(%rax),%rax
ffff800000109eeb:	48 8b 55 d8          	mov    -0x28(%rbp),%rdx
ffff800000109eef:	48 c1 ea 06          	shr    $0x6,%rdx
ffff800000109ef3:	48 c1 e2 03          	shl    $0x3,%rdx
ffff800000109ef7:	48 01 d0             	add    %rdx,%rax
ffff800000109efa:	48 89 45 90          	mov    %rax,-0x70(%rbp)
ffff800000109efe:	48 8b 45 d8          	mov    -0x28(%rbp),%rax
ffff800000109f02:	83 e0 3f             	and    $0x3f,%eax
ffff800000109f05:	48 89 45 88          	mov    %rax,-0x78(%rbp)
ffff800000109f09:	48 8b 45 88          	mov    -0x78(%rbp),%rax
ffff800000109f0d:	48 89 45 d0          	mov    %rax,-0x30(%rbp)
ffff800000109f11:	e9 fe 00 00 00       	jmpq   ffff80000010a014 <alloc_pages+0x30e>
ffff800000109f16:	48 8b 45 90          	mov    -0x70(%rbp),%rax
ffff800000109f1a:	48 8b 00             	mov    (%rax),%rax
ffff800000109f1d:	48 8b 55 d0          	mov    -0x30(%rbp),%rdx
ffff800000109f21:	89 d1                	mov    %edx,%ecx
ffff800000109f23:	48 d3 e8             	shr    %cl,%rax
ffff800000109f26:	48 89 c6             	mov    %rax,%rsi
ffff800000109f29:	48 8b 45 90          	mov    -0x70(%rbp),%rax
ffff800000109f2d:	48 83 c0 08          	add    $0x8,%rax
ffff800000109f31:	48 8b 10             	mov    (%rax),%rdx
ffff800000109f34:	48 8b 45 d0          	mov    -0x30(%rbp),%rax
ffff800000109f38:	b9 40 00 00 00       	mov    $0x40,%ecx
ffff800000109f3d:	29 c1                	sub    %eax,%ecx
ffff800000109f3f:	89 c8                	mov    %ecx,%eax
ffff800000109f41:	89 c1                	mov    %eax,%ecx
ffff800000109f43:	48 d3 e2             	shl    %cl,%rdx
ffff800000109f46:	48 89 d0             	mov    %rdx,%rax
ffff800000109f49:	48 09 c6             	or     %rax,%rsi
ffff800000109f4c:	48 89 f2             	mov    %rsi,%rdx
ffff800000109f4f:	83 bd 78 ff ff ff 40 	cmpl   $0x40,-0x88(%rbp)
ffff800000109f56:	74 19                	je     ffff800000109f71 <alloc_pages+0x26b>
ffff800000109f58:	8b 85 78 ff ff ff    	mov    -0x88(%rbp),%eax
ffff800000109f5e:	be 01 00 00 00       	mov    $0x1,%esi
ffff800000109f63:	89 c1                	mov    %eax,%ecx
ffff800000109f65:	48 d3 e6             	shl    %cl,%rsi
ffff800000109f68:	48 89 f0             	mov    %rsi,%rax
ffff800000109f6b:	48 83 e8 01          	sub    $0x1,%rax
ffff800000109f6f:	eb 07                	jmp    ffff800000109f78 <alloc_pages+0x272>
ffff800000109f71:	48 c7 c0 ff ff ff ff 	mov    $0xffffffffffffffff,%rax
ffff800000109f78:	48 21 d0             	and    %rdx,%rax
ffff800000109f7b:	48 85 c0             	test   %rax,%rax
ffff800000109f7e:	0f 85 8b 00 00 00    	jne    ffff80000010a00f <alloc_pages+0x309>
ffff800000109f84:	48 8b 45 d8          	mov    -0x28(%rbp),%rax
ffff800000109f88:	48 83 e0 c0          	and    $0xffffffffffffffc0,%rax
ffff800000109f8c:	48 89 c2             	mov    %rax,%rdx
ffff800000109f8f:	48 8b 45 d0          	mov    -0x30(%rbp),%rax
ffff800000109f93:	48 01 d0             	add    %rdx,%rax
ffff800000109f96:	48 89 45 c0          	mov    %rax,-0x40(%rbp)
ffff800000109f9a:	48 c7 45 c8 00 00 00 	movq   $0x0,-0x38(%rbp)
ffff800000109fa1:	00 
ffff800000109fa2:	eb 5b                	jmp    ffff800000109fff <alloc_pages+0x2f9>
ffff800000109fa4:	48 b8 b0 ff ff ff ff 	movabs $0xffffffffffffffb0,%rax
ffff800000109fab:	ff ff ff 
ffff800000109fae:	48 8b 04 03          	mov    (%rbx,%rax,1),%rax
ffff800000109fb2:	48 8b 88 a0 02 00 00 	mov    0x2a0(%rax),%rcx
ffff800000109fb9:	48 8b 55 c0          	mov    -0x40(%rbp),%rdx
ffff800000109fbd:	48 8b 45 c8          	mov    -0x38(%rbp),%rax
ffff800000109fc1:	48 01 c2             	add    %rax,%rdx
ffff800000109fc4:	48 89 d0             	mov    %rdx,%rax
ffff800000109fc7:	48 c1 e0 02          	shl    $0x2,%rax
ffff800000109fcb:	48 01 d0             	add    %rdx,%rax
ffff800000109fce:	48 c1 e0 03          	shl    $0x3,%rax
ffff800000109fd2:	48 01 c8             	add    %rcx,%rax
ffff800000109fd5:	48 89 45 80          	mov    %rax,-0x80(%rbp)
ffff800000109fd9:	48 8b 95 70 ff ff ff 	mov    -0x90(%rbp),%rdx
ffff800000109fe0:	48 8b 45 80          	mov    -0x80(%rbp),%rax
ffff800000109fe4:	48 89 d6             	mov    %rdx,%rsi
ffff800000109fe7:	48 89 c7             	mov    %rax,%rdi
ffff800000109fea:	48 b8 0f c4 ff ff ff 	movabs $0xffffffffffffc40f,%rax
ffff800000109ff1:	ff ff ff 
ffff800000109ff4:	48 8d 04 03          	lea    (%rbx,%rax,1),%rax
ffff800000109ff8:	ff d0                	callq  *%rax
ffff800000109ffa:	48 83 45 c8 01       	addq   $0x1,-0x38(%rbp)
ffff800000109fff:	8b 85 78 ff ff ff    	mov    -0x88(%rbp),%eax
ffff80000010a005:	48 98                	cltq   
ffff80000010a007:	48 3b 45 c8          	cmp    -0x38(%rbp),%rax
ffff80000010a00b:	77 97                	ja     ffff800000109fa4 <alloc_pages+0x29e>
ffff80000010a00d:	eb 5b                	jmp    ffff80000010a06a <alloc_pages+0x364>
ffff80000010a00f:	48 83 45 d0 01       	addq   $0x1,-0x30(%rbp)
ffff80000010a014:	b8 40 00 00 00       	mov    $0x40,%eax
ffff80000010a019:	48 2b 45 88          	sub    -0x78(%rbp),%rax
ffff80000010a01d:	48 3b 45 d0          	cmp    -0x30(%rbp),%rax
ffff80000010a021:	0f 87 ef fe ff ff    	ja     ffff800000109f16 <alloc_pages+0x210>
ffff80000010a027:	48 8b 45 d8          	mov    -0x28(%rbp),%rax
ffff80000010a02b:	83 e0 3f             	and    $0x3f,%eax
ffff80000010a02e:	48 85 c0             	test   %rax,%rax
ffff80000010a031:	74 06                	je     ffff80000010a039 <alloc_pages+0x333>
ffff80000010a033:	48 8b 45 98          	mov    -0x68(%rbp),%rax
ffff80000010a037:	eb 05                	jmp    ffff80000010a03e <alloc_pages+0x338>
ffff80000010a039:	b8 40 00 00 00       	mov    $0x40,%eax
ffff80000010a03e:	48 01 45 d8          	add    %rax,-0x28(%rbp)
ffff80000010a042:	48 8b 45 d8          	mov    -0x28(%rbp),%rax
ffff80000010a046:	48 3b 45 a8          	cmp    -0x58(%rbp),%rax
ffff80000010a04a:	0f 86 86 fe ff ff    	jbe    ffff800000109ed6 <alloc_pages+0x1d0>
ffff80000010a050:	eb 01                	jmp    ffff80000010a053 <alloc_pages+0x34d>
ffff80000010a052:	90                   	nop
ffff80000010a053:	83 45 ec 01          	addl   $0x1,-0x14(%rbp)
ffff80000010a057:	8b 45 ec             	mov    -0x14(%rbp),%eax
ffff80000010a05a:	3b 45 e4             	cmp    -0x1c(%rbp),%eax
ffff80000010a05d:	0f 8e af fd ff ff    	jle    ffff800000109e12 <alloc_pages+0x10c>
ffff80000010a063:	b8 00 00 00 00       	mov    $0x0,%eax
ffff80000010a068:	eb 2a                	jmp    ffff80000010a094 <alloc_pages+0x38e>
ffff80000010a06a:	48 b8 b0 ff ff ff ff 	movabs $0xffffffffffffffb0,%rax
ffff80000010a071:	ff ff ff 
ffff80000010a074:	48 8b 04 03          	mov    (%rbx,%rax,1),%rax
ffff80000010a078:	48 8b 88 a0 02 00 00 	mov    0x2a0(%rax),%rcx
ffff80000010a07f:	48 8b 55 c0          	mov    -0x40(%rbp),%rdx
ffff80000010a083:	48 89 d0             	mov    %rdx,%rax
ffff80000010a086:	48 c1 e0 02          	shl    $0x2,%rax
ffff80000010a08a:	48 01 d0             	add    %rdx,%rax
ffff80000010a08d:	48 c1 e0 03          	shl    $0x3,%rax
ffff80000010a091:	48 01 c8             	add    %rcx,%rax
ffff80000010a094:	48 83 ec 80          	sub    $0xffffffffffffff80,%rsp
ffff80000010a098:	5b                   	pop    %rbx
ffff80000010a099:	41 5f                	pop    %r15
ffff80000010a09b:	5d                   	pop    %rbp
ffff80000010a09c:	c3                   	retq   

ffff80000010a09d <strlen>:
ffff80000010a09d:	55                   	push   %rbp
ffff80000010a09e:	48 89 e5             	mov    %rsp,%rbp
ffff80000010a0a1:	48 8d 05 f9 ff ff ff 	lea    -0x7(%rip),%rax        # ffff80000010a0a1 <strlen+0x4>
ffff80000010a0a8:	49 bb 17 36 00 00 00 	movabs $0x3617,%r11
ffff80000010a0af:	00 00 00 
ffff80000010a0b2:	4c 01 d8             	add    %r11,%rax
ffff80000010a0b5:	48 89 7d f8          	mov    %rdi,-0x8(%rbp)
ffff80000010a0b9:	48 8b 75 f8          	mov    -0x8(%rbp),%rsi
ffff80000010a0bd:	b8 00 00 00 00       	mov    $0x0,%eax
ffff80000010a0c2:	ba ff ff ff ff       	mov    $0xffffffff,%edx
ffff80000010a0c7:	89 d1                	mov    %edx,%ecx
ffff80000010a0c9:	48 89 f7             	mov    %rsi,%rdi
ffff80000010a0cc:	fc                   	cld    
ffff80000010a0cd:	f2 ae                	repnz scas %es:(%rdi),%al
ffff80000010a0cf:	f7 d1                	not    %ecx
ffff80000010a0d1:	ff c9                	dec    %ecx
ffff80000010a0d3:	90                   	nop
ffff80000010a0d4:	5d                   	pop    %rbp
ffff80000010a0d5:	c3                   	retq   
