
system：     文件格式 elf64-x86-64


Disassembly of section .text:

ffff800000100000 <_start>:
ffff800000100000:	66 b8 10 00          	mov    $0x10,%ax
ffff800000100004:	8e d8                	mov    %eax,%ds
ffff800000100006:	8e e0                	mov    %eax,%fs
ffff800000100008:	8e d0                	mov    %eax,%ss
ffff80000010000a:	8e c0                	mov    %eax,%es
ffff80000010000c:	8e e8                	mov    %eax,%gs
ffff80000010000e:	48 8b 25 14 10 00 00 	mov    0x1014(%rip),%rsp        # ffff800000101029 <EndOfStack>
ffff800000100015:	48 8b 05 05 00 00 00 	mov    0x5(%rip),%rax        # ffff800000100021 <go_to_kernel>
ffff80000010001c:	6a 08                	pushq  $0x8
ffff80000010001e:	50                   	push   %rax
ffff80000010001f:	48 cb                	lretq  

ffff800000100021 <go_to_kernel>:
ffff800000100021:	3b 75 10             	cmp    0x10(%rbp),%esi
ffff800000100024:	00 00                	add    %al,(%rax)
ffff800000100026:	80 ff ff             	cmp    $0xff,%bh

ffff800000100029 <_stack_start>:
	...

ffff800000101029 <EndOfStack>:
ffff800000101029:	29 10                	sub    %edx,(%rax)
ffff80000010102b:	10 00                	adc    %al,(%rax)
ffff80000010102d:	00                   	.byte 0x0
ffff80000010102e:	80 ff ff             	cmp    $0xff,%bh

ffff800000101031 <switch_to>:
ffff800000101031:	48 c7 c1 11 00 00 00 	mov    $0x11,%rcx
ffff800000101038:	48 89 f8             	mov    %rdi,%rax
ffff80000010103b:	48 89 f3             	mov    %rsi,%rbx

ffff80000010103e <.lp1>:
ffff80000010103e:	48 8b 38             	mov    (%rax),%rdi
ffff800000101041:	48 89 3b             	mov    %rdi,(%rbx)
ffff800000101044:	48 ff c9             	dec    %rcx
ffff800000101047:	48 83 c0 08          	add    $0x8,%rax
ffff80000010104b:	48 83 c3 08          	add    $0x8,%rbx
ffff80000010104f:	48 39 0c 25 00 00 00 	cmp    %rcx,0x0
ffff800000101056:	00 
ffff800000101057:	75 e5                	jne    ffff80000010103e <.lp1>
ffff800000101059:	48 c7 c1 05 00 00 00 	mov    $0x5,%rcx
ffff800000101060:	48 83 c0 10          	add    $0x10,%rax

ffff800000101064 <.lp2>:
ffff800000101064:	48 8b 38             	mov    (%rax),%rdi
ffff800000101067:	48 89 3b             	mov    %rdi,(%rbx)
ffff80000010106a:	48 ff c9             	dec    %rcx
ffff80000010106d:	48 83 c0 08          	add    $0x8,%rax
ffff800000101071:	48 83 c3 08          	add    $0x8,%rbx
ffff800000101075:	48 39 0c 25 00 00 00 	cmp    %rcx,0x0
ffff80000010107c:	00 
ffff80000010107d:	75 e5                	jne    ffff800000101064 <.lp2>
ffff80000010107f:	48 c7 c1 05 00 00 00 	mov    $0x5,%rcx
ffff800000101086:	48 81 c2 a8 00 00 00 	add    $0xa8,%rdx
ffff80000010108d:	48 83 c0 f8          	add    $0xfffffffffffffff8,%rax

ffff800000101091 <.2lp>:
ffff800000101091:	48 8b 3a             	mov    (%rdx),%rdi
ffff800000101094:	48 89 38             	mov    %rdi,(%rax)
ffff800000101097:	48 ff c9             	dec    %rcx
ffff80000010109a:	48 83 c2 f8          	add    $0xfffffffffffffff8,%rdx
ffff80000010109e:	48 83 c0 f8          	add    $0xfffffffffffffff8,%rax
ffff8000001010a2:	48 39 0c 25 00 00 00 	cmp    %rcx,0x0
ffff8000001010a9:	00 
ffff8000001010aa:	75 e5                	jne    ffff800000101091 <.2lp>
ffff8000001010ac:	48 83 c0 f0          	add    $0xfffffffffffffff0,%rax
ffff8000001010b0:	48 c7 c1 11 00 00 00 	mov    $0x11,%rcx

ffff8000001010b7 <.1lp>:
ffff8000001010b7:	48 8b 3a             	mov    (%rdx),%rdi
ffff8000001010ba:	48 89 38             	mov    %rdi,(%rax)
ffff8000001010bd:	48 ff c9             	dec    %rcx
ffff8000001010c0:	48 83 c2 f8          	add    $0xfffffffffffffff8,%rdx
ffff8000001010c4:	48 83 c0 f8          	add    $0xfffffffffffffff8,%rax
ffff8000001010c8:	48 39 0c 25 00 00 00 	cmp    %rcx,0x0
ffff8000001010cf:	00 
ffff8000001010d0:	75 e5                	jne    ffff8000001010b7 <.1lp>
ffff8000001010d2:	c3                   	retq   

ffff8000001010d3 <RESTORE_ALL>:
ffff8000001010d3:	41 5f                	pop    %r15
ffff8000001010d5:	41 5e                	pop    %r14
ffff8000001010d7:	41 5d                	pop    %r13
ffff8000001010d9:	41 5c                	pop    %r12
ffff8000001010db:	41 5b                	pop    %r11
ffff8000001010dd:	41 5a                	pop    %r10
ffff8000001010df:	41 59                	pop    %r9
ffff8000001010e1:	41 58                	pop    %r8
ffff8000001010e3:	5b                   	pop    %rbx
ffff8000001010e4:	59                   	pop    %rcx
ffff8000001010e5:	5a                   	pop    %rdx
ffff8000001010e6:	5e                   	pop    %rsi
ffff8000001010e7:	5f                   	pop    %rdi
ffff8000001010e8:	5d                   	pop    %rbp
ffff8000001010e9:	58                   	pop    %rax
ffff8000001010ea:	48 8e d8             	mov    %rax,%ds
ffff8000001010ed:	58                   	pop    %rax
ffff8000001010ee:	48 8e c0             	mov    %rax,%es
ffff8000001010f1:	58                   	pop    %rax
ffff8000001010f2:	48 83 c4 10          	add    $0x10,%rsp
ffff8000001010f6:	48 cf                	iretq  

ffff8000001010f8 <ret_from_intr>:
ffff8000001010f8:	eb d9                	jmp    ffff8000001010d3 <RESTORE_ALL>

ffff8000001010fa <divide_error>:
ffff8000001010fa:	6a 00                	pushq  $0x0
ffff8000001010fc:	50                   	push   %rax
ffff8000001010fd:	48 8d 05 a1 07 00 00 	lea    0x7a1(%rip),%rax        # ffff8000001018a5 <SystemTrap>
ffff800000101104:	48 87 04 24          	xchg   %rax,(%rsp)

ffff800000101108 <error_code>:
ffff800000101108:	50                   	push   %rax
ffff800000101109:	48 8c c0             	mov    %es,%rax
ffff80000010110c:	50                   	push   %rax
ffff80000010110d:	48 8c d8             	mov    %ds,%rax
ffff800000101110:	50                   	push   %rax
ffff800000101111:	48 31 c0             	xor    %rax,%rax
ffff800000101114:	55                   	push   %rbp
ffff800000101115:	57                   	push   %rdi
ffff800000101116:	56                   	push   %rsi
ffff800000101117:	52                   	push   %rdx
ffff800000101118:	51                   	push   %rcx
ffff800000101119:	53                   	push   %rbx
ffff80000010111a:	41 50                	push   %r8
ffff80000010111c:	41 51                	push   %r9
ffff80000010111e:	41 52                	push   %r10
ffff800000101120:	41 53                	push   %r11
ffff800000101122:	41 54                	push   %r12
ffff800000101124:	41 55                	push   %r13
ffff800000101126:	41 56                	push   %r14
ffff800000101128:	41 57                	push   %r15
ffff80000010112a:	fc                   	cld    
ffff80000010112b:	48 8b b4 24 90 00 00 	mov    0x90(%rsp),%rsi
ffff800000101132:	00 
ffff800000101133:	48 8b 94 24 88 00 00 	mov    0x88(%rsp),%rdx
ffff80000010113a:	00 
ffff80000010113b:	48 c7 c7 10 00 00 00 	mov    $0x10,%rdi
ffff800000101142:	48 8e df             	mov    %rdi,%ds
ffff800000101145:	48 8e c7             	mov    %rdi,%es
ffff800000101148:	48 89 e7             	mov    %rsp,%rdi
ffff80000010114b:	ff d2                	callq  *%rdx
ffff80000010114d:	eb a9                	jmp    ffff8000001010f8 <ret_from_intr>

ffff80000010114f <debug>:
ffff80000010114f:	6a 01                	pushq  $0x1
ffff800000101151:	50                   	push   %rax
ffff800000101152:	48 8d 05 4c 07 00 00 	lea    0x74c(%rip),%rax        # ffff8000001018a5 <SystemTrap>
ffff800000101159:	48 87 04 24          	xchg   %rax,(%rsp)
ffff80000010115d:	eb a9                	jmp    ffff800000101108 <error_code>

ffff80000010115f <nmi>:
ffff80000010115f:	50                   	push   %rax
ffff800000101160:	fc                   	cld    
ffff800000101161:	50                   	push   %rax
ffff800000101162:	50                   	push   %rax
ffff800000101163:	48 8c c0             	mov    %es,%rax
ffff800000101166:	50                   	push   %rax
ffff800000101167:	48 8c d8             	mov    %ds,%rax
ffff80000010116a:	50                   	push   %rax
ffff80000010116b:	48 31 c0             	xor    %rax,%rax
ffff80000010116e:	55                   	push   %rbp
ffff80000010116f:	57                   	push   %rdi
ffff800000101170:	56                   	push   %rsi
ffff800000101171:	52                   	push   %rdx
ffff800000101172:	51                   	push   %rcx
ffff800000101173:	53                   	push   %rbx
ffff800000101174:	41 50                	push   %r8
ffff800000101176:	41 51                	push   %r9
ffff800000101178:	41 52                	push   %r10
ffff80000010117a:	41 53                	push   %r11
ffff80000010117c:	41 54                	push   %r12
ffff80000010117e:	41 55                	push   %r13
ffff800000101180:	41 56                	push   %r14
ffff800000101182:	41 57                	push   %r15
ffff800000101184:	48 c7 c2 10 00 00 00 	mov    $0x10,%rdx
ffff80000010118b:	48 8e da             	mov    %rdx,%ds
ffff80000010118e:	48 8e c2             	mov    %rdx,%es
ffff800000101191:	48 c7 c6 00 00 00 00 	mov    $0x0,%rsi
ffff800000101198:	48 89 e7             	mov    %rsp,%rdi
ffff80000010119b:	e8 f3 0e 00 00       	callq  ffff800000102093 <do_nmi>
ffff8000001011a0:	e9 2e ff ff ff       	jmpq   ffff8000001010d3 <RESTORE_ALL>

ffff8000001011a5 <int3>:
ffff8000001011a5:	6a 03                	pushq  $0x3
ffff8000001011a7:	50                   	push   %rax
ffff8000001011a8:	48 8d 05 f6 06 00 00 	lea    0x6f6(%rip),%rax        # ffff8000001018a5 <SystemTrap>
ffff8000001011af:	48 87 04 24          	xchg   %rax,(%rsp)
ffff8000001011b3:	e9 50 ff ff ff       	jmpq   ffff800000101108 <error_code>

ffff8000001011b8 <overflow>:
ffff8000001011b8:	6a 04                	pushq  $0x4
ffff8000001011ba:	50                   	push   %rax
ffff8000001011bb:	48 8d 05 e3 06 00 00 	lea    0x6e3(%rip),%rax        # ffff8000001018a5 <SystemTrap>
ffff8000001011c2:	48 87 04 24          	xchg   %rax,(%rsp)
ffff8000001011c6:	e9 3d ff ff ff       	jmpq   ffff800000101108 <error_code>

ffff8000001011cb <bounds>:
ffff8000001011cb:	6a 05                	pushq  $0x5
ffff8000001011cd:	50                   	push   %rax
ffff8000001011ce:	48 8d 05 d0 06 00 00 	lea    0x6d0(%rip),%rax        # ffff8000001018a5 <SystemTrap>
ffff8000001011d5:	48 87 04 24          	xchg   %rax,(%rsp)
ffff8000001011d9:	e9 2a ff ff ff       	jmpq   ffff800000101108 <error_code>

ffff8000001011de <undefined_opcode>:
ffff8000001011de:	6a 06                	pushq  $0x6
ffff8000001011e0:	50                   	push   %rax
ffff8000001011e1:	48 8d 05 bd 06 00 00 	lea    0x6bd(%rip),%rax        # ffff8000001018a5 <SystemTrap>
ffff8000001011e8:	48 87 04 24          	xchg   %rax,(%rsp)
ffff8000001011ec:	e9 17 ff ff ff       	jmpq   ffff800000101108 <error_code>

ffff8000001011f1 <dev_not_available>:
ffff8000001011f1:	6a 07                	pushq  $0x7
ffff8000001011f3:	50                   	push   %rax
ffff8000001011f4:	48 8d 05 aa 06 00 00 	lea    0x6aa(%rip),%rax        # ffff8000001018a5 <SystemTrap>
ffff8000001011fb:	48 87 04 24          	xchg   %rax,(%rsp)
ffff8000001011ff:	e9 04 ff ff ff       	jmpq   ffff800000101108 <error_code>

ffff800000101204 <double_fault>:
ffff800000101204:	50                   	push   %rax
ffff800000101205:	48 8d 05 ed 0e 00 00 	lea    0xeed(%rip),%rax        # ffff8000001020f9 <do_double_fault>
ffff80000010120c:	48 87 04 24          	xchg   %rax,(%rsp)
ffff800000101210:	e9 f3 fe ff ff       	jmpq   ffff800000101108 <error_code>

ffff800000101215 <coprocessor_segment_overrun>:
ffff800000101215:	6a 09                	pushq  $0x9
ffff800000101217:	50                   	push   %rax
ffff800000101218:	48 8d 05 40 0f 00 00 	lea    0xf40(%rip),%rax        # ffff80000010215f <do_coprocessor_segment_overrun>
ffff80000010121f:	48 87 04 24          	xchg   %rax,(%rsp)
ffff800000101223:	e9 e0 fe ff ff       	jmpq   ffff800000101108 <error_code>

ffff800000101228 <invalid_TSS>:
ffff800000101228:	50                   	push   %rax
ffff800000101229:	48 8d 05 dc 0a 00 00 	lea    0xadc(%rip),%rax        # ffff800000101d0c <do_invalid_TSS>
ffff800000101230:	48 87 04 24          	xchg   %rax,(%rsp)
ffff800000101234:	e9 cf fe ff ff       	jmpq   ffff800000101108 <error_code>

ffff800000101239 <segment_not_present>:
ffff800000101239:	50                   	push   %rax
ffff80000010123a:	48 8d 05 84 0f 00 00 	lea    0xf84(%rip),%rax        # ffff8000001021c5 <do_segment_not_present>
ffff800000101241:	48 87 04 24          	xchg   %rax,(%rsp)
ffff800000101245:	e9 be fe ff ff       	jmpq   ffff800000101108 <error_code>

ffff80000010124a <stack_segment_fault>:
ffff80000010124a:	50                   	push   %rax
ffff80000010124b:	48 8d 05 53 06 00 00 	lea    0x653(%rip),%rax        # ffff8000001018a5 <SystemTrap>
ffff800000101252:	48 87 04 24          	xchg   %rax,(%rsp)
ffff800000101256:	e9 ad fe ff ff       	jmpq   ffff800000101108 <error_code>

ffff80000010125b <general_protection>:
ffff80000010125b:	50                   	push   %rax
ffff80000010125c:	48 8d 05 e7 10 00 00 	lea    0x10e7(%rip),%rax        # ffff80000010234a <do_general_protection>
ffff800000101263:	48 87 04 24          	xchg   %rax,(%rsp)
ffff800000101267:	e9 9c fe ff ff       	jmpq   ffff800000101108 <error_code>

ffff80000010126c <page_fault>:
ffff80000010126c:	50                   	push   %rax
ffff80000010126d:	48 8d 05 15 0c 00 00 	lea    0xc15(%rip),%rax        # ffff800000101e89 <do_page_fault>
ffff800000101274:	48 87 04 24          	xchg   %rax,(%rsp)
ffff800000101278:	e9 8b fe ff ff       	jmpq   ffff800000101108 <error_code>

ffff80000010127d <x87_FPU_error>:
ffff80000010127d:	6a 10                	pushq  $0x10
ffff80000010127f:	50                   	push   %rax
ffff800000101280:	48 8d 05 1e 06 00 00 	lea    0x61e(%rip),%rax        # ffff8000001018a5 <SystemTrap>
ffff800000101287:	48 87 04 24          	xchg   %rax,(%rsp)
ffff80000010128b:	e9 78 fe ff ff       	jmpq   ffff800000101108 <error_code>

ffff800000101290 <alignment_check>:
ffff800000101290:	50                   	push   %rax
ffff800000101291:	48 8d 05 0d 06 00 00 	lea    0x60d(%rip),%rax        # ffff8000001018a5 <SystemTrap>
ffff800000101298:	48 87 04 24          	xchg   %rax,(%rsp)
ffff80000010129c:	e9 67 fe ff ff       	jmpq   ffff800000101108 <error_code>

ffff8000001012a1 <machine_check>:
ffff8000001012a1:	6a 12                	pushq  $0x12
ffff8000001012a3:	50                   	push   %rax
ffff8000001012a4:	48 8d 05 fa 05 00 00 	lea    0x5fa(%rip),%rax        # ffff8000001018a5 <SystemTrap>
ffff8000001012ab:	48 87 04 24          	xchg   %rax,(%rsp)
ffff8000001012af:	e9 54 fe ff ff       	jmpq   ffff800000101108 <error_code>

ffff8000001012b4 <SIMD_exception>:
ffff8000001012b4:	6a 13                	pushq  $0x13
ffff8000001012b6:	50                   	push   %rax
ffff8000001012b7:	48 8d 05 e7 05 00 00 	lea    0x5e7(%rip),%rax        # ffff8000001018a5 <SystemTrap>
ffff8000001012be:	48 87 04 24          	xchg   %rax,(%rsp)
ffff8000001012c2:	e9 41 fe ff ff       	jmpq   ffff800000101108 <error_code>

ffff8000001012c7 <virtualization_exception>:
ffff8000001012c7:	6a 14                	pushq  $0x14
ffff8000001012c9:	50                   	push   %rax
ffff8000001012ca:	48 8d 05 d4 05 00 00 	lea    0x5d4(%rip),%rax        # ffff8000001018a5 <SystemTrap>
ffff8000001012d1:	48 87 04 24          	xchg   %rax,(%rsp)
ffff8000001012d5:	e9 2e fe ff ff       	jmpq   ffff800000101108 <error_code>

ffff8000001012da <system_call>:
ffff8000001012da:	48 83 ec 38          	sub    $0x38,%rsp
ffff8000001012de:	fc                   	cld    
ffff8000001012df:	50                   	push   %rax
ffff8000001012e0:	48 8c c0             	mov    %es,%rax
ffff8000001012e3:	50                   	push   %rax
ffff8000001012e4:	48 8c d8             	mov    %ds,%rax
ffff8000001012e7:	50                   	push   %rax
ffff8000001012e8:	48 31 c0             	xor    %rax,%rax
ffff8000001012eb:	55                   	push   %rbp
ffff8000001012ec:	57                   	push   %rdi
ffff8000001012ed:	56                   	push   %rsi
ffff8000001012ee:	52                   	push   %rdx
ffff8000001012ef:	51                   	push   %rcx
ffff8000001012f0:	53                   	push   %rbx
ffff8000001012f1:	41 50                	push   %r8
ffff8000001012f3:	41 51                	push   %r9
ffff8000001012f5:	41 52                	push   %r10
ffff8000001012f7:	41 53                	push   %r11
ffff8000001012f9:	41 54                	push   %r12
ffff8000001012fb:	41 55                	push   %r13
ffff8000001012fd:	41 56                	push   %r14
ffff8000001012ff:	41 57                	push   %r15
ffff800000101301:	48 c7 c2 10 00 00 00 	mov    $0x10,%rdx
ffff800000101308:	48 8e da             	mov    %rdx,%ds
ffff80000010130b:	48 8e c2             	mov    %rdx,%es
ffff80000010130e:	48 89 e7             	mov    %rsp,%rdi
ffff800000101311:	e8 68 65 00 00       	callq  ffff80000010787e <do_system_call>

ffff800000101316 <ret_system_call>:
ffff800000101316:	48 89 84 24 80 00 00 	mov    %rax,0x80(%rsp)
ffff80000010131d:	00 
ffff80000010131e:	41 5f                	pop    %r15
ffff800000101320:	41 5e                	pop    %r14
ffff800000101322:	41 5d                	pop    %r13
ffff800000101324:	41 5c                	pop    %r12
ffff800000101326:	41 5b                	pop    %r11
ffff800000101328:	41 5a                	pop    %r10
ffff80000010132a:	41 59                	pop    %r9
ffff80000010132c:	41 58                	pop    %r8
ffff80000010132e:	5b                   	pop    %rbx
ffff80000010132f:	59                   	pop    %rcx
ffff800000101330:	5a                   	pop    %rdx
ffff800000101331:	5e                   	pop    %rsi
ffff800000101332:	5f                   	pop    %rdi
ffff800000101333:	5d                   	pop    %rbp
ffff800000101334:	58                   	pop    %rax
ffff800000101335:	48 8e d8             	mov    %rax,%ds
ffff800000101338:	58                   	pop    %rax
ffff800000101339:	48 8e c0             	mov    %rax,%es
ffff80000010133c:	58                   	pop    %rax
ffff80000010133d:	48 83 c4 38          	add    $0x38,%rsp
ffff800000101341:	48 0f 35             	rex.W sysexit 

ffff800000101344 <int_code>:
ffff800000101344:	50                   	push   %rax
ffff800000101345:	48 8c c0             	mov    %es,%rax
ffff800000101348:	50                   	push   %rax
ffff800000101349:	48 8c d8             	mov    %ds,%rax
ffff80000010134c:	50                   	push   %rax
ffff80000010134d:	48 31 c0             	xor    %rax,%rax
ffff800000101350:	55                   	push   %rbp
ffff800000101351:	57                   	push   %rdi
ffff800000101352:	56                   	push   %rsi
ffff800000101353:	52                   	push   %rdx
ffff800000101354:	51                   	push   %rcx
ffff800000101355:	53                   	push   %rbx
ffff800000101356:	41 50                	push   %r8
ffff800000101358:	41 51                	push   %r9
ffff80000010135a:	41 52                	push   %r10
ffff80000010135c:	41 53                	push   %r11
ffff80000010135e:	41 54                	push   %r12
ffff800000101360:	41 55                	push   %r13
ffff800000101362:	41 56                	push   %r14
ffff800000101364:	41 57                	push   %r15
ffff800000101366:	fc                   	cld    
ffff800000101367:	48 8b b4 24 90 00 00 	mov    0x90(%rsp),%rsi
ffff80000010136e:	00 
ffff80000010136f:	48 8b 94 24 88 00 00 	mov    0x88(%rsp),%rdx
ffff800000101376:	00 
ffff800000101377:	48 c7 c7 10 00 00 00 	mov    $0x10,%rdi
ffff80000010137e:	48 8e df             	mov    %rdi,%ds
ffff800000101381:	48 8e c7             	mov    %rdi,%es
ffff800000101384:	48 89 e7             	mov    %rsp,%rdi
ffff800000101387:	ff d2                	callq  *%rdx
ffff800000101389:	e9 6a fd ff ff       	jmpq   ffff8000001010f8 <ret_from_intr>

ffff80000010138e <IRQ0x20_interrupt>:
ffff80000010138e:	6a 20                	pushq  $0x20
ffff800000101390:	50                   	push   %rax
ffff800000101391:	48 8d 05 80 34 00 00 	lea    0x3480(%rip),%rax        # ffff800000104818 <do_IRQ>
ffff800000101398:	48 87 04 24          	xchg   %rax,(%rsp)
ffff80000010139c:	eb a6                	jmp    ffff800000101344 <int_code>

ffff80000010139e <IRQ0x21_interrupt>:
ffff80000010139e:	6a 21                	pushq  $0x21
ffff8000001013a0:	50                   	push   %rax
ffff8000001013a1:	48 8d 05 70 34 00 00 	lea    0x3470(%rip),%rax        # ffff800000104818 <do_IRQ>
ffff8000001013a8:	48 87 04 24          	xchg   %rax,(%rsp)
ffff8000001013ac:	eb 96                	jmp    ffff800000101344 <int_code>

ffff8000001013ae <IRQ0x22_interrupt>:
ffff8000001013ae:	6a 22                	pushq  $0x22
ffff8000001013b0:	50                   	push   %rax
ffff8000001013b1:	48 8d 05 60 34 00 00 	lea    0x3460(%rip),%rax        # ffff800000104818 <do_IRQ>
ffff8000001013b8:	48 87 04 24          	xchg   %rax,(%rsp)
ffff8000001013bc:	eb 86                	jmp    ffff800000101344 <int_code>

ffff8000001013be <IRQ0x23_interrupt>:
ffff8000001013be:	6a 23                	pushq  $0x23
ffff8000001013c0:	50                   	push   %rax
ffff8000001013c1:	48 8d 05 50 34 00 00 	lea    0x3450(%rip),%rax        # ffff800000104818 <do_IRQ>
ffff8000001013c8:	48 87 04 24          	xchg   %rax,(%rsp)
ffff8000001013cc:	e9 73 ff ff ff       	jmpq   ffff800000101344 <int_code>

ffff8000001013d1 <IRQ0x24_interrupt>:
ffff8000001013d1:	6a 24                	pushq  $0x24
ffff8000001013d3:	50                   	push   %rax
ffff8000001013d4:	48 8d 05 3d 34 00 00 	lea    0x343d(%rip),%rax        # ffff800000104818 <do_IRQ>
ffff8000001013db:	48 87 04 24          	xchg   %rax,(%rsp)
ffff8000001013df:	e9 60 ff ff ff       	jmpq   ffff800000101344 <int_code>

ffff8000001013e4 <IRQ0x25_interrupt>:
ffff8000001013e4:	6a 25                	pushq  $0x25
ffff8000001013e6:	50                   	push   %rax
ffff8000001013e7:	48 8d 05 2a 34 00 00 	lea    0x342a(%rip),%rax        # ffff800000104818 <do_IRQ>
ffff8000001013ee:	48 87 04 24          	xchg   %rax,(%rsp)
ffff8000001013f2:	e9 4d ff ff ff       	jmpq   ffff800000101344 <int_code>

ffff8000001013f7 <IRQ0x26_interrupt>:
ffff8000001013f7:	6a 26                	pushq  $0x26
ffff8000001013f9:	50                   	push   %rax
ffff8000001013fa:	48 8d 05 17 34 00 00 	lea    0x3417(%rip),%rax        # ffff800000104818 <do_IRQ>
ffff800000101401:	48 87 04 24          	xchg   %rax,(%rsp)
ffff800000101405:	e9 3a ff ff ff       	jmpq   ffff800000101344 <int_code>

ffff80000010140a <IRQ0x27_interrupt>:
ffff80000010140a:	6a 27                	pushq  $0x27
ffff80000010140c:	50                   	push   %rax
ffff80000010140d:	48 8d 05 04 34 00 00 	lea    0x3404(%rip),%rax        # ffff800000104818 <do_IRQ>
ffff800000101414:	48 87 04 24          	xchg   %rax,(%rsp)
ffff800000101418:	e9 27 ff ff ff       	jmpq   ffff800000101344 <int_code>

ffff80000010141d <IRQ0x28_interrupt>:
ffff80000010141d:	6a 28                	pushq  $0x28
ffff80000010141f:	50                   	push   %rax
ffff800000101420:	48 8d 05 f1 33 00 00 	lea    0x33f1(%rip),%rax        # ffff800000104818 <do_IRQ>
ffff800000101427:	48 87 04 24          	xchg   %rax,(%rsp)
ffff80000010142b:	e9 14 ff ff ff       	jmpq   ffff800000101344 <int_code>

ffff800000101430 <IRQ0x29_interrupt>:
ffff800000101430:	6a 29                	pushq  $0x29
ffff800000101432:	50                   	push   %rax
ffff800000101433:	48 8d 05 de 33 00 00 	lea    0x33de(%rip),%rax        # ffff800000104818 <do_IRQ>
ffff80000010143a:	48 87 04 24          	xchg   %rax,(%rsp)
ffff80000010143e:	e9 01 ff ff ff       	jmpq   ffff800000101344 <int_code>

ffff800000101443 <IRQ0x2a_interrupt>:
ffff800000101443:	6a 2a                	pushq  $0x2a
ffff800000101445:	50                   	push   %rax
ffff800000101446:	48 8d 05 cb 33 00 00 	lea    0x33cb(%rip),%rax        # ffff800000104818 <do_IRQ>
ffff80000010144d:	48 87 04 24          	xchg   %rax,(%rsp)
ffff800000101451:	e9 ee fe ff ff       	jmpq   ffff800000101344 <int_code>

ffff800000101456 <IRQ0x2b_interrupt>:
ffff800000101456:	6a 2b                	pushq  $0x2b
ffff800000101458:	50                   	push   %rax
ffff800000101459:	48 8d 05 b8 33 00 00 	lea    0x33b8(%rip),%rax        # ffff800000104818 <do_IRQ>
ffff800000101460:	48 87 04 24          	xchg   %rax,(%rsp)
ffff800000101464:	e9 db fe ff ff       	jmpq   ffff800000101344 <int_code>

ffff800000101469 <IRQ0x2c_interrupt>:
ffff800000101469:	6a 2c                	pushq  $0x2c
ffff80000010146b:	50                   	push   %rax
ffff80000010146c:	48 8d 05 a5 33 00 00 	lea    0x33a5(%rip),%rax        # ffff800000104818 <do_IRQ>
ffff800000101473:	48 87 04 24          	xchg   %rax,(%rsp)
ffff800000101477:	e9 c8 fe ff ff       	jmpq   ffff800000101344 <int_code>

ffff80000010147c <IRQ0x2d_interrupt>:
ffff80000010147c:	6a 2d                	pushq  $0x2d
ffff80000010147e:	50                   	push   %rax
ffff80000010147f:	48 8d 05 92 33 00 00 	lea    0x3392(%rip),%rax        # ffff800000104818 <do_IRQ>
ffff800000101486:	48 87 04 24          	xchg   %rax,(%rsp)
ffff80000010148a:	e9 b5 fe ff ff       	jmpq   ffff800000101344 <int_code>

ffff80000010148f <IRQ0x2e_interrupt>:
ffff80000010148f:	6a 2e                	pushq  $0x2e
ffff800000101491:	50                   	push   %rax
ffff800000101492:	48 8d 05 7f 33 00 00 	lea    0x337f(%rip),%rax        # ffff800000104818 <do_IRQ>
ffff800000101499:	48 87 04 24          	xchg   %rax,(%rsp)
ffff80000010149d:	e9 a2 fe ff ff       	jmpq   ffff800000101344 <int_code>

ffff8000001014a2 <IRQ0x2f_interrupt>:
ffff8000001014a2:	6a 2f                	pushq  $0x2f
ffff8000001014a4:	50                   	push   %rax
ffff8000001014a5:	48 8d 05 6c 33 00 00 	lea    0x336c(%rip),%rax        # ffff800000104818 <do_IRQ>
ffff8000001014ac:	48 87 04 24          	xchg   %rax,(%rsp)
ffff8000001014b0:	e9 8f fe ff ff       	jmpq   ffff800000101344 <int_code>

ffff8000001014b5 <IRQ0x30_interrupt>:
ffff8000001014b5:	6a 30                	pushq  $0x30
ffff8000001014b7:	50                   	push   %rax
ffff8000001014b8:	48 8d 05 59 33 00 00 	lea    0x3359(%rip),%rax        # ffff800000104818 <do_IRQ>
ffff8000001014bf:	48 87 04 24          	xchg   %rax,(%rsp)
ffff8000001014c3:	e9 7c fe ff ff       	jmpq   ffff800000101344 <int_code>

ffff8000001014c8 <IRQ0x31_interrupt>:
ffff8000001014c8:	6a 31                	pushq  $0x31
ffff8000001014ca:	50                   	push   %rax
ffff8000001014cb:	48 8d 05 46 33 00 00 	lea    0x3346(%rip),%rax        # ffff800000104818 <do_IRQ>
ffff8000001014d2:	48 87 04 24          	xchg   %rax,(%rsp)
ffff8000001014d6:	e9 69 fe ff ff       	jmpq   ffff800000101344 <int_code>

ffff8000001014db <IRQ0x32_interrupt>:
ffff8000001014db:	6a 32                	pushq  $0x32
ffff8000001014dd:	50                   	push   %rax
ffff8000001014de:	48 8d 05 33 33 00 00 	lea    0x3333(%rip),%rax        # ffff800000104818 <do_IRQ>
ffff8000001014e5:	48 87 04 24          	xchg   %rax,(%rsp)
ffff8000001014e9:	e9 56 fe ff ff       	jmpq   ffff800000101344 <int_code>

ffff8000001014ee <IRQ0x33_interrupt>:
ffff8000001014ee:	6a 33                	pushq  $0x33
ffff8000001014f0:	50                   	push   %rax
ffff8000001014f1:	48 8d 05 20 33 00 00 	lea    0x3320(%rip),%rax        # ffff800000104818 <do_IRQ>
ffff8000001014f8:	48 87 04 24          	xchg   %rax,(%rsp)
ffff8000001014fc:	e9 43 fe ff ff       	jmpq   ffff800000101344 <int_code>

ffff800000101501 <IRQ0x34_interrupt>:
ffff800000101501:	6a 34                	pushq  $0x34
ffff800000101503:	50                   	push   %rax
ffff800000101504:	48 8d 05 0d 33 00 00 	lea    0x330d(%rip),%rax        # ffff800000104818 <do_IRQ>
ffff80000010150b:	48 87 04 24          	xchg   %rax,(%rsp)
ffff80000010150f:	e9 30 fe ff ff       	jmpq   ffff800000101344 <int_code>

ffff800000101514 <IRQ0x35_interrupt>:
ffff800000101514:	6a 35                	pushq  $0x35
ffff800000101516:	50                   	push   %rax
ffff800000101517:	48 8d 05 fa 32 00 00 	lea    0x32fa(%rip),%rax        # ffff800000104818 <do_IRQ>
ffff80000010151e:	48 87 04 24          	xchg   %rax,(%rsp)
ffff800000101522:	e9 1d fe ff ff       	jmpq   ffff800000101344 <int_code>

ffff800000101527 <IRQ0x36_interrupt>:
ffff800000101527:	6a 36                	pushq  $0x36
ffff800000101529:	50                   	push   %rax
ffff80000010152a:	48 8d 05 e7 32 00 00 	lea    0x32e7(%rip),%rax        # ffff800000104818 <do_IRQ>
ffff800000101531:	48 87 04 24          	xchg   %rax,(%rsp)
ffff800000101535:	e9 0a fe ff ff       	jmpq   ffff800000101344 <int_code>

ffff80000010153a <IRQ0x37_interrupt>:
ffff80000010153a:	6a 37                	pushq  $0x37
ffff80000010153c:	50                   	push   %rax
ffff80000010153d:	48 8d 05 d4 32 00 00 	lea    0x32d4(%rip),%rax        # ffff800000104818 <do_IRQ>
ffff800000101544:	48 87 04 24          	xchg   %rax,(%rsp)
ffff800000101548:	e9 f7 fd ff ff       	jmpq   ffff800000101344 <int_code>

ffff80000010154d <io_out32>:
ffff80000010154d:	55                   	push   %rbp
ffff80000010154e:	48 89 e5             	mov    %rsp,%rbp
ffff800000101551:	89 f8                	mov    %edi,%eax
ffff800000101553:	89 75 f8             	mov    %esi,-0x8(%rbp)
ffff800000101556:	66 89 45 fc          	mov    %ax,-0x4(%rbp)
ffff80000010155a:	8b 45 f8             	mov    -0x8(%rbp),%eax
ffff80000010155d:	0f b7 55 fc          	movzwl -0x4(%rbp),%edx
ffff800000101561:	ef                   	out    %eax,(%dx)
ffff800000101562:	0f ae f0             	mfence 
ffff800000101565:	90                   	nop
ffff800000101566:	5d                   	pop    %rbp
ffff800000101567:	c3                   	retq   

ffff800000101568 <io_out8>:
ffff800000101568:	55                   	push   %rbp
ffff800000101569:	48 89 e5             	mov    %rsp,%rbp
ffff80000010156c:	89 f8                	mov    %edi,%eax
ffff80000010156e:	89 f2                	mov    %esi,%edx
ffff800000101570:	66 89 45 fc          	mov    %ax,-0x4(%rbp)
ffff800000101574:	89 d0                	mov    %edx,%eax
ffff800000101576:	88 45 f8             	mov    %al,-0x8(%rbp)
ffff800000101579:	0f b6 45 f8          	movzbl -0x8(%rbp),%eax
ffff80000010157d:	0f b7 55 fc          	movzwl -0x4(%rbp),%edx
ffff800000101581:	ee                   	out    %al,(%dx)
ffff800000101582:	0f ae f0             	mfence 
ffff800000101585:	90                   	nop
ffff800000101586:	5d                   	pop    %rbp
ffff800000101587:	c3                   	retq   

ffff800000101588 <io_in8>:
ffff800000101588:	55                   	push   %rbp
ffff800000101589:	48 89 e5             	mov    %rsp,%rbp
ffff80000010158c:	89 f8                	mov    %edi,%eax
ffff80000010158e:	66 89 45 ec          	mov    %ax,-0x14(%rbp)
ffff800000101592:	c6 45 ff 00          	movb   $0x0,-0x1(%rbp)
ffff800000101596:	0f b7 45 ec          	movzwl -0x14(%rbp),%eax
ffff80000010159a:	89 c2                	mov    %eax,%edx
ffff80000010159c:	ec                   	in     (%dx),%al
ffff80000010159d:	0f ae f0             	mfence 
ffff8000001015a0:	88 45 ff             	mov    %al,-0x1(%rbp)
ffff8000001015a3:	0f b6 45 ff          	movzbl -0x1(%rbp),%eax
ffff8000001015a7:	5d                   	pop    %rbp
ffff8000001015a8:	c3                   	retq   

ffff8000001015a9 <io_in32>:
ffff8000001015a9:	55                   	push   %rbp
ffff8000001015aa:	48 89 e5             	mov    %rsp,%rbp
ffff8000001015ad:	89 f8                	mov    %edi,%eax
ffff8000001015af:	66 89 45 ec          	mov    %ax,-0x14(%rbp)
ffff8000001015b3:	c7 45 fc 00 00 00 00 	movl   $0x0,-0x4(%rbp)
ffff8000001015ba:	0f b7 45 ec          	movzwl -0x14(%rbp),%eax
ffff8000001015be:	89 c2                	mov    %eax,%edx
ffff8000001015c0:	ed                   	in     (%dx),%eax
ffff8000001015c1:	0f ae f0             	mfence 
ffff8000001015c4:	89 45 fc             	mov    %eax,-0x4(%rbp)
ffff8000001015c7:	8b 45 fc             	mov    -0x4(%rbp),%eax
ffff8000001015ca:	5d                   	pop    %rbp
ffff8000001015cb:	c3                   	retq   

ffff8000001015cc <Get_CR3>:
ffff8000001015cc:	55                   	push   %rbp
ffff8000001015cd:	48 89 e5             	mov    %rsp,%rbp
ffff8000001015d0:	0f 20 d8             	mov    %cr3,%rax
ffff8000001015d3:	48 89 45 f8          	mov    %rax,-0x8(%rbp)
ffff8000001015d7:	48 8b 45 f8          	mov    -0x8(%rbp),%rax
ffff8000001015db:	5d                   	pop    %rbp
ffff8000001015dc:	c3                   	retq   

ffff8000001015dd <wrmsr>:
ffff8000001015dd:	55                   	push   %rbp
ffff8000001015de:	48 89 e5             	mov    %rsp,%rbp
ffff8000001015e1:	48 89 7d f8          	mov    %rdi,-0x8(%rbp)
ffff8000001015e5:	48 89 75 f0          	mov    %rsi,-0x10(%rbp)
ffff8000001015e9:	48 8b 45 f0          	mov    -0x10(%rbp),%rax
ffff8000001015ed:	48 c1 e8 20          	shr    $0x20,%rax
ffff8000001015f1:	48 89 c2             	mov    %rax,%rdx
ffff8000001015f4:	48 8b 45 f0          	mov    -0x10(%rbp),%rax
ffff8000001015f8:	89 c0                	mov    %eax,%eax
ffff8000001015fa:	48 8b 4d f8          	mov    -0x8(%rbp),%rcx
ffff8000001015fe:	0f 30                	wrmsr  
ffff800000101600:	90                   	nop
ffff800000101601:	5d                   	pop    %rbp
ffff800000101602:	c3                   	retq   

ffff800000101603 <InitTrap>:
ffff800000101603:	55                   	push   %rbp
ffff800000101604:	48 89 e5             	mov    %rsp,%rbp
ffff800000101607:	48 bf 20 b0 10 00 00 	movabs $0xffff80000010b020,%rdi
ffff80000010160e:	80 ff ff 
ffff800000101611:	b8 00 00 00 00       	mov    $0x0,%eax
ffff800000101616:	48 ba 50 30 10 00 00 	movabs $0xffff800000103050,%rdx
ffff80000010161d:	80 ff ff 
ffff800000101620:	ff d2                	callq  *%rdx
ffff800000101622:	48 ba fa 10 10 00 00 	movabs $0xffff8000001010fa,%rdx
ffff800000101629:	80 ff ff 
ffff80000010162c:	be 01 00 00 00       	mov    $0x1,%esi
ffff800000101631:	bf 00 00 00 00       	mov    $0x0,%edi
ffff800000101636:	48 b8 5e 50 10 00 00 	movabs $0xffff80000010505e,%rax
ffff80000010163d:	80 ff ff 
ffff800000101640:	ff d0                	callq  *%rax
ffff800000101642:	48 ba 4f 11 10 00 00 	movabs $0xffff80000010114f,%rdx
ffff800000101649:	80 ff ff 
ffff80000010164c:	be 01 00 00 00       	mov    $0x1,%esi
ffff800000101651:	bf 01 00 00 00       	mov    $0x1,%edi
ffff800000101656:	48 b8 5e 50 10 00 00 	movabs $0xffff80000010505e,%rax
ffff80000010165d:	80 ff ff 
ffff800000101660:	ff d0                	callq  *%rax
ffff800000101662:	48 ba 5f 11 10 00 00 	movabs $0xffff80000010115f,%rdx
ffff800000101669:	80 ff ff 
ffff80000010166c:	be 01 00 00 00       	mov    $0x1,%esi
ffff800000101671:	bf 02 00 00 00       	mov    $0x2,%edi
ffff800000101676:	48 b8 29 50 10 00 00 	movabs $0xffff800000105029,%rax
ffff80000010167d:	80 ff ff 
ffff800000101680:	ff d0                	callq  *%rax
ffff800000101682:	48 ba a5 11 10 00 00 	movabs $0xffff8000001011a5,%rdx
ffff800000101689:	80 ff ff 
ffff80000010168c:	be 01 00 00 00       	mov    $0x1,%esi
ffff800000101691:	bf 03 00 00 00       	mov    $0x3,%edi
ffff800000101696:	48 b8 f4 4f 10 00 00 	movabs $0xffff800000104ff4,%rax
ffff80000010169d:	80 ff ff 
ffff8000001016a0:	ff d0                	callq  *%rax
ffff8000001016a2:	48 ba b8 11 10 00 00 	movabs $0xffff8000001011b8,%rdx
ffff8000001016a9:	80 ff ff 
ffff8000001016ac:	be 01 00 00 00       	mov    $0x1,%esi
ffff8000001016b1:	bf 04 00 00 00       	mov    $0x4,%edi
ffff8000001016b6:	48 b8 f4 4f 10 00 00 	movabs $0xffff800000104ff4,%rax
ffff8000001016bd:	80 ff ff 
ffff8000001016c0:	ff d0                	callq  *%rax
ffff8000001016c2:	48 ba cb 11 10 00 00 	movabs $0xffff8000001011cb,%rdx
ffff8000001016c9:	80 ff ff 
ffff8000001016cc:	be 01 00 00 00       	mov    $0x1,%esi
ffff8000001016d1:	bf 05 00 00 00       	mov    $0x5,%edi
ffff8000001016d6:	48 b8 f4 4f 10 00 00 	movabs $0xffff800000104ff4,%rax
ffff8000001016dd:	80 ff ff 
ffff8000001016e0:	ff d0                	callq  *%rax
ffff8000001016e2:	48 ba de 11 10 00 00 	movabs $0xffff8000001011de,%rdx
ffff8000001016e9:	80 ff ff 
ffff8000001016ec:	be 01 00 00 00       	mov    $0x1,%esi
ffff8000001016f1:	bf 06 00 00 00       	mov    $0x6,%edi
ffff8000001016f6:	48 b8 5e 50 10 00 00 	movabs $0xffff80000010505e,%rax
ffff8000001016fd:	80 ff ff 
ffff800000101700:	ff d0                	callq  *%rax
ffff800000101702:	48 ba f1 11 10 00 00 	movabs $0xffff8000001011f1,%rdx
ffff800000101709:	80 ff ff 
ffff80000010170c:	be 01 00 00 00       	mov    $0x1,%esi
ffff800000101711:	bf 07 00 00 00       	mov    $0x7,%edi
ffff800000101716:	48 b8 5e 50 10 00 00 	movabs $0xffff80000010505e,%rax
ffff80000010171d:	80 ff ff 
ffff800000101720:	ff d0                	callq  *%rax
ffff800000101722:	48 ba 04 12 10 00 00 	movabs $0xffff800000101204,%rdx
ffff800000101729:	80 ff ff 
ffff80000010172c:	be 01 00 00 00       	mov    $0x1,%esi
ffff800000101731:	bf 08 00 00 00       	mov    $0x8,%edi
ffff800000101736:	48 b8 5e 50 10 00 00 	movabs $0xffff80000010505e,%rax
ffff80000010173d:	80 ff ff 
ffff800000101740:	ff d0                	callq  *%rax
ffff800000101742:	48 ba 15 12 10 00 00 	movabs $0xffff800000101215,%rdx
ffff800000101749:	80 ff ff 
ffff80000010174c:	be 01 00 00 00       	mov    $0x1,%esi
ffff800000101751:	bf 09 00 00 00       	mov    $0x9,%edi
ffff800000101756:	48 b8 5e 50 10 00 00 	movabs $0xffff80000010505e,%rax
ffff80000010175d:	80 ff ff 
ffff800000101760:	ff d0                	callq  *%rax
ffff800000101762:	48 ba 28 12 10 00 00 	movabs $0xffff800000101228,%rdx
ffff800000101769:	80 ff ff 
ffff80000010176c:	be 01 00 00 00       	mov    $0x1,%esi
ffff800000101771:	bf 0a 00 00 00       	mov    $0xa,%edi
ffff800000101776:	48 b8 5e 50 10 00 00 	movabs $0xffff80000010505e,%rax
ffff80000010177d:	80 ff ff 
ffff800000101780:	ff d0                	callq  *%rax
ffff800000101782:	48 ba 39 12 10 00 00 	movabs $0xffff800000101239,%rdx
ffff800000101789:	80 ff ff 
ffff80000010178c:	be 01 00 00 00       	mov    $0x1,%esi
ffff800000101791:	bf 0b 00 00 00       	mov    $0xb,%edi
ffff800000101796:	48 b8 5e 50 10 00 00 	movabs $0xffff80000010505e,%rax
ffff80000010179d:	80 ff ff 
ffff8000001017a0:	ff d0                	callq  *%rax
ffff8000001017a2:	48 ba 4a 12 10 00 00 	movabs $0xffff80000010124a,%rdx
ffff8000001017a9:	80 ff ff 
ffff8000001017ac:	be 01 00 00 00       	mov    $0x1,%esi
ffff8000001017b1:	bf 0c 00 00 00       	mov    $0xc,%edi
ffff8000001017b6:	48 b8 5e 50 10 00 00 	movabs $0xffff80000010505e,%rax
ffff8000001017bd:	80 ff ff 
ffff8000001017c0:	ff d0                	callq  *%rax
ffff8000001017c2:	48 ba 5b 12 10 00 00 	movabs $0xffff80000010125b,%rdx
ffff8000001017c9:	80 ff ff 
ffff8000001017cc:	be 01 00 00 00       	mov    $0x1,%esi
ffff8000001017d1:	bf 0d 00 00 00       	mov    $0xd,%edi
ffff8000001017d6:	48 b8 5e 50 10 00 00 	movabs $0xffff80000010505e,%rax
ffff8000001017dd:	80 ff ff 
ffff8000001017e0:	ff d0                	callq  *%rax
ffff8000001017e2:	48 ba 6c 12 10 00 00 	movabs $0xffff80000010126c,%rdx
ffff8000001017e9:	80 ff ff 
ffff8000001017ec:	be 01 00 00 00       	mov    $0x1,%esi
ffff8000001017f1:	bf 0e 00 00 00       	mov    $0xe,%edi
ffff8000001017f6:	48 b8 5e 50 10 00 00 	movabs $0xffff80000010505e,%rax
ffff8000001017fd:	80 ff ff 
ffff800000101800:	ff d0                	callq  *%rax
ffff800000101802:	48 ba 7d 12 10 00 00 	movabs $0xffff80000010127d,%rdx
ffff800000101809:	80 ff ff 
ffff80000010180c:	be 01 00 00 00       	mov    $0x1,%esi
ffff800000101811:	bf 10 00 00 00       	mov    $0x10,%edi
ffff800000101816:	48 b8 5e 50 10 00 00 	movabs $0xffff80000010505e,%rax
ffff80000010181d:	80 ff ff 
ffff800000101820:	ff d0                	callq  *%rax
ffff800000101822:	48 ba 90 12 10 00 00 	movabs $0xffff800000101290,%rdx
ffff800000101829:	80 ff ff 
ffff80000010182c:	be 01 00 00 00       	mov    $0x1,%esi
ffff800000101831:	bf 11 00 00 00       	mov    $0x11,%edi
ffff800000101836:	48 b8 5e 50 10 00 00 	movabs $0xffff80000010505e,%rax
ffff80000010183d:	80 ff ff 
ffff800000101840:	ff d0                	callq  *%rax
ffff800000101842:	48 ba a1 12 10 00 00 	movabs $0xffff8000001012a1,%rdx
ffff800000101849:	80 ff ff 
ffff80000010184c:	be 01 00 00 00       	mov    $0x1,%esi
ffff800000101851:	bf 12 00 00 00       	mov    $0x12,%edi
ffff800000101856:	48 b8 5e 50 10 00 00 	movabs $0xffff80000010505e,%rax
ffff80000010185d:	80 ff ff 
ffff800000101860:	ff d0                	callq  *%rax
ffff800000101862:	48 ba b4 12 10 00 00 	movabs $0xffff8000001012b4,%rdx
ffff800000101869:	80 ff ff 
ffff80000010186c:	be 01 00 00 00       	mov    $0x1,%esi
ffff800000101871:	bf 13 00 00 00       	mov    $0x13,%edi
ffff800000101876:	48 b8 5e 50 10 00 00 	movabs $0xffff80000010505e,%rax
ffff80000010187d:	80 ff ff 
ffff800000101880:	ff d0                	callq  *%rax
ffff800000101882:	48 ba c7 12 10 00 00 	movabs $0xffff8000001012c7,%rdx
ffff800000101889:	80 ff ff 
ffff80000010188c:	be 01 00 00 00       	mov    $0x1,%esi
ffff800000101891:	bf 14 00 00 00       	mov    $0x14,%edi
ffff800000101896:	48 b8 5e 50 10 00 00 	movabs $0xffff80000010505e,%rax
ffff80000010189d:	80 ff ff 
ffff8000001018a0:	ff d0                	callq  *%rax
ffff8000001018a2:	90                   	nop
ffff8000001018a3:	5d                   	pop    %rbp
ffff8000001018a4:	c3                   	retq   

ffff8000001018a5 <SystemTrap>:
ffff8000001018a5:	55                   	push   %rbp
ffff8000001018a6:	48 89 e5             	mov    %rsp,%rbp
ffff8000001018a9:	48 83 ec 20          	sub    $0x20,%rsp
ffff8000001018ad:	48 89 7d e8          	mov    %rdi,-0x18(%rbp)
ffff8000001018b1:	48 89 75 e0          	mov    %rsi,-0x20(%rbp)
ffff8000001018b5:	48 8b 45 e8          	mov    -0x18(%rbp),%rax
ffff8000001018b9:	48 05 98 00 00 00    	add    $0x98,%rax
ffff8000001018bf:	48 89 45 f8          	mov    %rax,-0x8(%rbp)
ffff8000001018c3:	48 83 7d e0 00       	cmpq   $0x0,-0x20(%rbp)
ffff8000001018c8:	75 2e                	jne    ffff8000001018f8 <SystemTrap+0x53>
ffff8000001018ca:	48 8b 45 f8          	mov    -0x8(%rbp),%rax
ffff8000001018ce:	48 8b 10             	mov    (%rax),%rdx
ffff8000001018d1:	48 8b 45 e8          	mov    -0x18(%rbp),%rax
ffff8000001018d5:	48 89 c6             	mov    %rax,%rsi
ffff8000001018d8:	48 bf 30 b0 10 00 00 	movabs $0xffff80000010b030,%rdi
ffff8000001018df:	80 ff ff 
ffff8000001018e2:	b8 00 00 00 00       	mov    $0x0,%eax
ffff8000001018e7:	48 b9 50 30 10 00 00 	movabs $0xffff800000103050,%rcx
ffff8000001018ee:	80 ff ff 
ffff8000001018f1:	ff d1                	callq  *%rcx
ffff8000001018f3:	e9 12 04 00 00       	jmpq   ffff800000101d0a <SystemTrap+0x465>
ffff8000001018f8:	48 83 7d e0 01       	cmpq   $0x1,-0x20(%rbp)
ffff8000001018fd:	75 2e                	jne    ffff80000010192d <SystemTrap+0x88>
ffff8000001018ff:	48 8b 45 f8          	mov    -0x8(%rbp),%rax
ffff800000101903:	48 8b 10             	mov    (%rax),%rdx
ffff800000101906:	48 8b 45 e8          	mov    -0x18(%rbp),%rax
ffff80000010190a:	48 89 c6             	mov    %rax,%rsi
ffff80000010190d:	48 bf 58 b0 10 00 00 	movabs $0xffff80000010b058,%rdi
ffff800000101914:	80 ff ff 
ffff800000101917:	b8 00 00 00 00       	mov    $0x0,%eax
ffff80000010191c:	48 b9 50 30 10 00 00 	movabs $0xffff800000103050,%rcx
ffff800000101923:	80 ff ff 
ffff800000101926:	ff d1                	callq  *%rcx
ffff800000101928:	e9 dd 03 00 00       	jmpq   ffff800000101d0a <SystemTrap+0x465>
ffff80000010192d:	48 83 7d e0 02       	cmpq   $0x2,-0x20(%rbp)
ffff800000101932:	75 2e                	jne    ffff800000101962 <SystemTrap+0xbd>
ffff800000101934:	48 8b 45 f8          	mov    -0x8(%rbp),%rax
ffff800000101938:	48 8b 10             	mov    (%rax),%rdx
ffff80000010193b:	48 8b 45 e8          	mov    -0x18(%rbp),%rax
ffff80000010193f:	48 89 c6             	mov    %rax,%rsi
ffff800000101942:	48 bf 80 b0 10 00 00 	movabs $0xffff80000010b080,%rdi
ffff800000101949:	80 ff ff 
ffff80000010194c:	b8 00 00 00 00       	mov    $0x0,%eax
ffff800000101951:	48 b9 50 30 10 00 00 	movabs $0xffff800000103050,%rcx
ffff800000101958:	80 ff ff 
ffff80000010195b:	ff d1                	callq  *%rcx
ffff80000010195d:	e9 a8 03 00 00       	jmpq   ffff800000101d0a <SystemTrap+0x465>
ffff800000101962:	48 83 7d e0 03       	cmpq   $0x3,-0x20(%rbp)
ffff800000101967:	75 2e                	jne    ffff800000101997 <SystemTrap+0xf2>
ffff800000101969:	48 8b 45 f8          	mov    -0x8(%rbp),%rax
ffff80000010196d:	48 8b 10             	mov    (%rax),%rdx
ffff800000101970:	48 8b 45 e8          	mov    -0x18(%rbp),%rax
ffff800000101974:	48 89 c6             	mov    %rax,%rsi
ffff800000101977:	48 bf a8 b0 10 00 00 	movabs $0xffff80000010b0a8,%rdi
ffff80000010197e:	80 ff ff 
ffff800000101981:	b8 00 00 00 00       	mov    $0x0,%eax
ffff800000101986:	48 b9 50 30 10 00 00 	movabs $0xffff800000103050,%rcx
ffff80000010198d:	80 ff ff 
ffff800000101990:	ff d1                	callq  *%rcx
ffff800000101992:	e9 73 03 00 00       	jmpq   ffff800000101d0a <SystemTrap+0x465>
ffff800000101997:	48 83 7d e0 04       	cmpq   $0x4,-0x20(%rbp)
ffff80000010199c:	75 2e                	jne    ffff8000001019cc <SystemTrap+0x127>
ffff80000010199e:	48 8b 45 f8          	mov    -0x8(%rbp),%rax
ffff8000001019a2:	48 8b 10             	mov    (%rax),%rdx
ffff8000001019a5:	48 8b 45 e8          	mov    -0x18(%rbp),%rax
ffff8000001019a9:	48 89 c6             	mov    %rax,%rsi
ffff8000001019ac:	48 bf c8 b0 10 00 00 	movabs $0xffff80000010b0c8,%rdi
ffff8000001019b3:	80 ff ff 
ffff8000001019b6:	b8 00 00 00 00       	mov    $0x0,%eax
ffff8000001019bb:	48 b9 50 30 10 00 00 	movabs $0xffff800000103050,%rcx
ffff8000001019c2:	80 ff ff 
ffff8000001019c5:	ff d1                	callq  *%rcx
ffff8000001019c7:	e9 3e 03 00 00       	jmpq   ffff800000101d0a <SystemTrap+0x465>
ffff8000001019cc:	48 83 7d e0 05       	cmpq   $0x5,-0x20(%rbp)
ffff8000001019d1:	75 2e                	jne    ffff800000101a01 <SystemTrap+0x15c>
ffff8000001019d3:	48 8b 45 f8          	mov    -0x8(%rbp),%rax
ffff8000001019d7:	48 8b 10             	mov    (%rax),%rdx
ffff8000001019da:	48 8b 45 e8          	mov    -0x18(%rbp),%rax
ffff8000001019de:	48 89 c6             	mov    %rax,%rsi
ffff8000001019e1:	48 bf f0 b0 10 00 00 	movabs $0xffff80000010b0f0,%rdi
ffff8000001019e8:	80 ff ff 
ffff8000001019eb:	b8 00 00 00 00       	mov    $0x0,%eax
ffff8000001019f0:	48 b9 50 30 10 00 00 	movabs $0xffff800000103050,%rcx
ffff8000001019f7:	80 ff ff 
ffff8000001019fa:	ff d1                	callq  *%rcx
ffff8000001019fc:	e9 09 03 00 00       	jmpq   ffff800000101d0a <SystemTrap+0x465>
ffff800000101a01:	48 83 7d e0 06       	cmpq   $0x6,-0x20(%rbp)
ffff800000101a06:	75 2e                	jne    ffff800000101a36 <SystemTrap+0x191>
ffff800000101a08:	48 8b 45 f8          	mov    -0x8(%rbp),%rax
ffff800000101a0c:	48 8b 10             	mov    (%rax),%rdx
ffff800000101a0f:	48 8b 45 e8          	mov    -0x18(%rbp),%rax
ffff800000101a13:	48 89 c6             	mov    %rax,%rsi
ffff800000101a16:	48 bf 18 b1 10 00 00 	movabs $0xffff80000010b118,%rdi
ffff800000101a1d:	80 ff ff 
ffff800000101a20:	b8 00 00 00 00       	mov    $0x0,%eax
ffff800000101a25:	48 b9 50 30 10 00 00 	movabs $0xffff800000103050,%rcx
ffff800000101a2c:	80 ff ff 
ffff800000101a2f:	ff d1                	callq  *%rcx
ffff800000101a31:	e9 d4 02 00 00       	jmpq   ffff800000101d0a <SystemTrap+0x465>
ffff800000101a36:	48 83 7d e0 07       	cmpq   $0x7,-0x20(%rbp)
ffff800000101a3b:	75 2e                	jne    ffff800000101a6b <SystemTrap+0x1c6>
ffff800000101a3d:	48 8b 45 f8          	mov    -0x8(%rbp),%rax
ffff800000101a41:	48 8b 10             	mov    (%rax),%rdx
ffff800000101a44:	48 8b 45 e8          	mov    -0x18(%rbp),%rax
ffff800000101a48:	48 89 c6             	mov    %rax,%rsi
ffff800000101a4b:	48 bf 40 b1 10 00 00 	movabs $0xffff80000010b140,%rdi
ffff800000101a52:	80 ff ff 
ffff800000101a55:	b8 00 00 00 00       	mov    $0x0,%eax
ffff800000101a5a:	48 b9 50 30 10 00 00 	movabs $0xffff800000103050,%rcx
ffff800000101a61:	80 ff ff 
ffff800000101a64:	ff d1                	callq  *%rcx
ffff800000101a66:	e9 9f 02 00 00       	jmpq   ffff800000101d0a <SystemTrap+0x465>
ffff800000101a6b:	48 83 7d e0 08       	cmpq   $0x8,-0x20(%rbp)
ffff800000101a70:	75 2e                	jne    ffff800000101aa0 <SystemTrap+0x1fb>
ffff800000101a72:	48 8b 45 f8          	mov    -0x8(%rbp),%rax
ffff800000101a76:	48 8b 10             	mov    (%rax),%rdx
ffff800000101a79:	48 8b 45 e8          	mov    -0x18(%rbp),%rax
ffff800000101a7d:	48 89 c6             	mov    %rax,%rsi
ffff800000101a80:	48 bf 68 b1 10 00 00 	movabs $0xffff80000010b168,%rdi
ffff800000101a87:	80 ff ff 
ffff800000101a8a:	b8 00 00 00 00       	mov    $0x0,%eax
ffff800000101a8f:	48 b9 50 30 10 00 00 	movabs $0xffff800000103050,%rcx
ffff800000101a96:	80 ff ff 
ffff800000101a99:	ff d1                	callq  *%rcx
ffff800000101a9b:	e9 6a 02 00 00       	jmpq   ffff800000101d0a <SystemTrap+0x465>
ffff800000101aa0:	48 83 7d e0 09       	cmpq   $0x9,-0x20(%rbp)
ffff800000101aa5:	75 2e                	jne    ffff800000101ad5 <SystemTrap+0x230>
ffff800000101aa7:	48 8b 45 f8          	mov    -0x8(%rbp),%rax
ffff800000101aab:	48 8b 10             	mov    (%rax),%rdx
ffff800000101aae:	48 8b 45 e8          	mov    -0x18(%rbp),%rax
ffff800000101ab2:	48 89 c6             	mov    %rax,%rsi
ffff800000101ab5:	48 bf 90 b1 10 00 00 	movabs $0xffff80000010b190,%rdi
ffff800000101abc:	80 ff ff 
ffff800000101abf:	b8 00 00 00 00       	mov    $0x0,%eax
ffff800000101ac4:	48 b9 50 30 10 00 00 	movabs $0xffff800000103050,%rcx
ffff800000101acb:	80 ff ff 
ffff800000101ace:	ff d1                	callq  *%rcx
ffff800000101ad0:	e9 35 02 00 00       	jmpq   ffff800000101d0a <SystemTrap+0x465>
ffff800000101ad5:	48 83 7d e0 0a       	cmpq   $0xa,-0x20(%rbp)
ffff800000101ada:	75 2e                	jne    ffff800000101b0a <SystemTrap+0x265>
ffff800000101adc:	48 8b 45 f8          	mov    -0x8(%rbp),%rax
ffff800000101ae0:	48 8b 10             	mov    (%rax),%rdx
ffff800000101ae3:	48 8b 45 e8          	mov    -0x18(%rbp),%rax
ffff800000101ae7:	48 89 c6             	mov    %rax,%rsi
ffff800000101aea:	48 bf c0 b1 10 00 00 	movabs $0xffff80000010b1c0,%rdi
ffff800000101af1:	80 ff ff 
ffff800000101af4:	b8 00 00 00 00       	mov    $0x0,%eax
ffff800000101af9:	48 b9 50 30 10 00 00 	movabs $0xffff800000103050,%rcx
ffff800000101b00:	80 ff ff 
ffff800000101b03:	ff d1                	callq  *%rcx
ffff800000101b05:	e9 00 02 00 00       	jmpq   ffff800000101d0a <SystemTrap+0x465>
ffff800000101b0a:	48 83 7d e0 0b       	cmpq   $0xb,-0x20(%rbp)
ffff800000101b0f:	75 2e                	jne    ffff800000101b3f <SystemTrap+0x29a>
ffff800000101b11:	48 8b 45 f8          	mov    -0x8(%rbp),%rax
ffff800000101b15:	48 8b 10             	mov    (%rax),%rdx
ffff800000101b18:	48 8b 45 e8          	mov    -0x18(%rbp),%rax
ffff800000101b1c:	48 89 c6             	mov    %rax,%rsi
ffff800000101b1f:	48 bf e8 b1 10 00 00 	movabs $0xffff80000010b1e8,%rdi
ffff800000101b26:	80 ff ff 
ffff800000101b29:	b8 00 00 00 00       	mov    $0x0,%eax
ffff800000101b2e:	48 b9 50 30 10 00 00 	movabs $0xffff800000103050,%rcx
ffff800000101b35:	80 ff ff 
ffff800000101b38:	ff d1                	callq  *%rcx
ffff800000101b3a:	e9 cb 01 00 00       	jmpq   ffff800000101d0a <SystemTrap+0x465>
ffff800000101b3f:	48 83 7d e0 0c       	cmpq   $0xc,-0x20(%rbp)
ffff800000101b44:	75 2e                	jne    ffff800000101b74 <SystemTrap+0x2cf>
ffff800000101b46:	48 8b 45 f8          	mov    -0x8(%rbp),%rax
ffff800000101b4a:	48 8b 10             	mov    (%rax),%rdx
ffff800000101b4d:	48 8b 45 e8          	mov    -0x18(%rbp),%rax
ffff800000101b51:	48 89 c6             	mov    %rax,%rsi
ffff800000101b54:	48 bf 10 b2 10 00 00 	movabs $0xffff80000010b210,%rdi
ffff800000101b5b:	80 ff ff 
ffff800000101b5e:	b8 00 00 00 00       	mov    $0x0,%eax
ffff800000101b63:	48 b9 50 30 10 00 00 	movabs $0xffff800000103050,%rcx
ffff800000101b6a:	80 ff ff 
ffff800000101b6d:	ff d1                	callq  *%rcx
ffff800000101b6f:	e9 96 01 00 00       	jmpq   ffff800000101d0a <SystemTrap+0x465>
ffff800000101b74:	48 83 7d e0 0d       	cmpq   $0xd,-0x20(%rbp)
ffff800000101b79:	75 2e                	jne    ffff800000101ba9 <SystemTrap+0x304>
ffff800000101b7b:	48 8b 45 f8          	mov    -0x8(%rbp),%rax
ffff800000101b7f:	48 8b 10             	mov    (%rax),%rdx
ffff800000101b82:	48 8b 45 e8          	mov    -0x18(%rbp),%rax
ffff800000101b86:	48 89 c6             	mov    %rax,%rsi
ffff800000101b89:	48 bf 38 b2 10 00 00 	movabs $0xffff80000010b238,%rdi
ffff800000101b90:	80 ff ff 
ffff800000101b93:	b8 00 00 00 00       	mov    $0x0,%eax
ffff800000101b98:	48 b9 50 30 10 00 00 	movabs $0xffff800000103050,%rcx
ffff800000101b9f:	80 ff ff 
ffff800000101ba2:	ff d1                	callq  *%rcx
ffff800000101ba4:	e9 61 01 00 00       	jmpq   ffff800000101d0a <SystemTrap+0x465>
ffff800000101ba9:	48 83 7d e0 0e       	cmpq   $0xe,-0x20(%rbp)
ffff800000101bae:	75 2e                	jne    ffff800000101bde <SystemTrap+0x339>
ffff800000101bb0:	48 8b 45 f8          	mov    -0x8(%rbp),%rax
ffff800000101bb4:	48 8b 10             	mov    (%rax),%rdx
ffff800000101bb7:	48 8b 45 e8          	mov    -0x18(%rbp),%rax
ffff800000101bbb:	48 89 c6             	mov    %rax,%rsi
ffff800000101bbe:	48 bf 68 b2 10 00 00 	movabs $0xffff80000010b268,%rdi
ffff800000101bc5:	80 ff ff 
ffff800000101bc8:	b8 00 00 00 00       	mov    $0x0,%eax
ffff800000101bcd:	48 b9 50 30 10 00 00 	movabs $0xffff800000103050,%rcx
ffff800000101bd4:	80 ff ff 
ffff800000101bd7:	ff d1                	callq  *%rcx
ffff800000101bd9:	e9 2c 01 00 00       	jmpq   ffff800000101d0a <SystemTrap+0x465>
ffff800000101bde:	48 83 7d e0 10       	cmpq   $0x10,-0x20(%rbp)
ffff800000101be3:	75 2e                	jne    ffff800000101c13 <SystemTrap+0x36e>
ffff800000101be5:	48 8b 45 f8          	mov    -0x8(%rbp),%rax
ffff800000101be9:	48 8b 10             	mov    (%rax),%rdx
ffff800000101bec:	48 8b 45 e8          	mov    -0x18(%rbp),%rax
ffff800000101bf0:	48 89 c6             	mov    %rax,%rsi
ffff800000101bf3:	48 bf 90 b2 10 00 00 	movabs $0xffff80000010b290,%rdi
ffff800000101bfa:	80 ff ff 
ffff800000101bfd:	b8 00 00 00 00       	mov    $0x0,%eax
ffff800000101c02:	48 b9 50 30 10 00 00 	movabs $0xffff800000103050,%rcx
ffff800000101c09:	80 ff ff 
ffff800000101c0c:	ff d1                	callq  *%rcx
ffff800000101c0e:	e9 f7 00 00 00       	jmpq   ffff800000101d0a <SystemTrap+0x465>
ffff800000101c13:	48 83 7d e0 11       	cmpq   $0x11,-0x20(%rbp)
ffff800000101c18:	75 2e                	jne    ffff800000101c48 <SystemTrap+0x3a3>
ffff800000101c1a:	48 8b 45 f8          	mov    -0x8(%rbp),%rax
ffff800000101c1e:	48 8b 10             	mov    (%rax),%rdx
ffff800000101c21:	48 8b 45 e8          	mov    -0x18(%rbp),%rax
ffff800000101c25:	48 89 c6             	mov    %rax,%rsi
ffff800000101c28:	48 bf c8 b2 10 00 00 	movabs $0xffff80000010b2c8,%rdi
ffff800000101c2f:	80 ff ff 
ffff800000101c32:	b8 00 00 00 00       	mov    $0x0,%eax
ffff800000101c37:	48 b9 50 30 10 00 00 	movabs $0xffff800000103050,%rcx
ffff800000101c3e:	80 ff ff 
ffff800000101c41:	ff d1                	callq  *%rcx
ffff800000101c43:	e9 c2 00 00 00       	jmpq   ffff800000101d0a <SystemTrap+0x465>
ffff800000101c48:	48 83 7d e0 12       	cmpq   $0x12,-0x20(%rbp)
ffff800000101c4d:	75 2e                	jne    ffff800000101c7d <SystemTrap+0x3d8>
ffff800000101c4f:	48 8b 45 f8          	mov    -0x8(%rbp),%rax
ffff800000101c53:	48 8b 10             	mov    (%rax),%rdx
ffff800000101c56:	48 8b 45 e8          	mov    -0x18(%rbp),%rax
ffff800000101c5a:	48 89 c6             	mov    %rax,%rsi
ffff800000101c5d:	48 bf f8 b2 10 00 00 	movabs $0xffff80000010b2f8,%rdi
ffff800000101c64:	80 ff ff 
ffff800000101c67:	b8 00 00 00 00       	mov    $0x0,%eax
ffff800000101c6c:	48 b9 50 30 10 00 00 	movabs $0xffff800000103050,%rcx
ffff800000101c73:	80 ff ff 
ffff800000101c76:	ff d1                	callq  *%rcx
ffff800000101c78:	e9 8d 00 00 00       	jmpq   ffff800000101d0a <SystemTrap+0x465>
ffff800000101c7d:	48 83 7d e0 13       	cmpq   $0x13,-0x20(%rbp)
ffff800000101c82:	75 2b                	jne    ffff800000101caf <SystemTrap+0x40a>
ffff800000101c84:	48 8b 45 f8          	mov    -0x8(%rbp),%rax
ffff800000101c88:	48 8b 10             	mov    (%rax),%rdx
ffff800000101c8b:	48 8b 45 e8          	mov    -0x18(%rbp),%rax
ffff800000101c8f:	48 89 c6             	mov    %rax,%rsi
ffff800000101c92:	48 bf 28 b3 10 00 00 	movabs $0xffff80000010b328,%rdi
ffff800000101c99:	80 ff ff 
ffff800000101c9c:	b8 00 00 00 00       	mov    $0x0,%eax
ffff800000101ca1:	48 b9 50 30 10 00 00 	movabs $0xffff800000103050,%rcx
ffff800000101ca8:	80 ff ff 
ffff800000101cab:	ff d1                	callq  *%rcx
ffff800000101cad:	eb 5b                	jmp    ffff800000101d0a <SystemTrap+0x465>
ffff800000101caf:	48 83 7d e0 14       	cmpq   $0x14,-0x20(%rbp)
ffff800000101cb4:	75 2b                	jne    ffff800000101ce1 <SystemTrap+0x43c>
ffff800000101cb6:	48 8b 45 f8          	mov    -0x8(%rbp),%rax
ffff800000101cba:	48 8b 10             	mov    (%rax),%rdx
ffff800000101cbd:	48 8b 45 e8          	mov    -0x18(%rbp),%rax
ffff800000101cc1:	48 89 c6             	mov    %rax,%rsi
ffff800000101cc4:	48 bf 58 b3 10 00 00 	movabs $0xffff80000010b358,%rdi
ffff800000101ccb:	80 ff ff 
ffff800000101cce:	b8 00 00 00 00       	mov    $0x0,%eax
ffff800000101cd3:	48 b9 50 30 10 00 00 	movabs $0xffff800000103050,%rcx
ffff800000101cda:	80 ff ff 
ffff800000101cdd:	ff d1                	callq  *%rcx
ffff800000101cdf:	eb 29                	jmp    ffff800000101d0a <SystemTrap+0x465>
ffff800000101ce1:	48 8b 45 f8          	mov    -0x8(%rbp),%rax
ffff800000101ce5:	48 8b 10             	mov    (%rax),%rdx
ffff800000101ce8:	48 8b 45 e8          	mov    -0x18(%rbp),%rax
ffff800000101cec:	48 89 c6             	mov    %rax,%rsi
ffff800000101cef:	48 bf 90 b3 10 00 00 	movabs $0xffff80000010b390,%rdi
ffff800000101cf6:	80 ff ff 
ffff800000101cf9:	b8 00 00 00 00       	mov    $0x0,%eax
ffff800000101cfe:	48 b9 50 30 10 00 00 	movabs $0xffff800000103050,%rcx
ffff800000101d05:	80 ff ff 
ffff800000101d08:	ff d1                	callq  *%rcx
ffff800000101d0a:	eb fe                	jmp    ffff800000101d0a <SystemTrap+0x465>

ffff800000101d0c <do_invalid_TSS>:
ffff800000101d0c:	55                   	push   %rbp
ffff800000101d0d:	48 89 e5             	mov    %rsp,%rbp
ffff800000101d10:	48 83 ec 20          	sub    $0x20,%rsp
ffff800000101d14:	48 89 7d e8          	mov    %rdi,-0x18(%rbp)
ffff800000101d18:	48 89 75 e0          	mov    %rsi,-0x20(%rbp)
ffff800000101d1c:	48 8b 45 e8          	mov    -0x18(%rbp),%rax
ffff800000101d20:	48 05 98 00 00 00    	add    $0x98,%rax
ffff800000101d26:	48 89 45 f8          	mov    %rax,-0x8(%rbp)
ffff800000101d2a:	48 8b 45 f8          	mov    -0x8(%rbp),%rax
ffff800000101d2e:	48 8b 08             	mov    (%rax),%rcx
ffff800000101d31:	48 8b 55 e8          	mov    -0x18(%rbp),%rdx
ffff800000101d35:	48 8b 45 e0          	mov    -0x20(%rbp),%rax
ffff800000101d39:	49 89 c9             	mov    %rcx,%r9
ffff800000101d3c:	49 89 d0             	mov    %rdx,%r8
ffff800000101d3f:	48 89 c1             	mov    %rax,%rcx
ffff800000101d42:	48 ba b8 b3 10 00 00 	movabs $0xffff80000010b3b8,%rdx
ffff800000101d49:	80 ff ff 
ffff800000101d4c:	be 00 00 ff 00       	mov    $0xff0000,%esi
ffff800000101d51:	bf 00 00 00 00       	mov    $0x0,%edi
ffff800000101d56:	b8 00 00 00 00       	mov    $0x0,%eax
ffff800000101d5b:	49 ba ed 27 10 00 00 	movabs $0xffff8000001027ed,%r10
ffff800000101d62:	80 ff ff 
ffff800000101d65:	41 ff d2             	callq  *%r10
ffff800000101d68:	48 8b 45 e0          	mov    -0x20(%rbp),%rax
ffff800000101d6c:	83 e0 01             	and    $0x1,%eax
ffff800000101d6f:	48 85 c0             	test   %rax,%rax
ffff800000101d72:	74 25                	je     ffff800000101d99 <do_invalid_TSS+0x8d>
ffff800000101d74:	48 ba f0 b3 10 00 00 	movabs $0xffff80000010b3f0,%rdx
ffff800000101d7b:	80 ff ff 
ffff800000101d7e:	be 00 00 ff 00       	mov    $0xff0000,%esi
ffff800000101d83:	bf 00 00 00 00       	mov    $0x0,%edi
ffff800000101d88:	b8 00 00 00 00       	mov    $0x0,%eax
ffff800000101d8d:	48 b9 ed 27 10 00 00 	movabs $0xffff8000001027ed,%rcx
ffff800000101d94:	80 ff ff 
ffff800000101d97:	ff d1                	callq  *%rcx
ffff800000101d99:	48 8b 45 e0          	mov    -0x20(%rbp),%rax
ffff800000101d9d:	83 e0 02             	and    $0x2,%eax
ffff800000101da0:	48 85 c0             	test   %rax,%rax
ffff800000101da3:	74 27                	je     ffff800000101dcc <do_invalid_TSS+0xc0>
ffff800000101da5:	48 ba 70 b4 10 00 00 	movabs $0xffff80000010b470,%rdx
ffff800000101dac:	80 ff ff 
ffff800000101daf:	be 00 00 ff 00       	mov    $0xff0000,%esi
ffff800000101db4:	bf 00 00 00 00       	mov    $0x0,%edi
ffff800000101db9:	b8 00 00 00 00       	mov    $0x0,%eax
ffff800000101dbe:	48 b9 ed 27 10 00 00 	movabs $0xffff8000001027ed,%rcx
ffff800000101dc5:	80 ff ff 
ffff800000101dc8:	ff d1                	callq  *%rcx
ffff800000101dca:	eb 25                	jmp    ffff800000101df1 <do_invalid_TSS+0xe5>
ffff800000101dcc:	48 ba a0 b4 10 00 00 	movabs $0xffff80000010b4a0,%rdx
ffff800000101dd3:	80 ff ff 
ffff800000101dd6:	be 00 00 ff 00       	mov    $0xff0000,%esi
ffff800000101ddb:	bf 00 00 00 00       	mov    $0x0,%edi
ffff800000101de0:	b8 00 00 00 00       	mov    $0x0,%eax
ffff800000101de5:	48 b9 ed 27 10 00 00 	movabs $0xffff8000001027ed,%rcx
ffff800000101dec:	80 ff ff 
ffff800000101def:	ff d1                	callq  *%rcx
ffff800000101df1:	48 8b 45 e0          	mov    -0x20(%rbp),%rax
ffff800000101df5:	83 e0 02             	and    $0x2,%eax
ffff800000101df8:	48 85 c0             	test   %rax,%rax
ffff800000101dfb:	75 58                	jne    ffff800000101e55 <do_invalid_TSS+0x149>
ffff800000101dfd:	48 8b 45 e0          	mov    -0x20(%rbp),%rax
ffff800000101e01:	83 e0 04             	and    $0x4,%eax
ffff800000101e04:	48 85 c0             	test   %rax,%rax
ffff800000101e07:	74 27                	je     ffff800000101e30 <do_invalid_TSS+0x124>
ffff800000101e09:	48 ba d8 b4 10 00 00 	movabs $0xffff80000010b4d8,%rdx
ffff800000101e10:	80 ff ff 
ffff800000101e13:	be 00 00 ff 00       	mov    $0xff0000,%esi
ffff800000101e18:	bf 00 00 00 00       	mov    $0x0,%edi
ffff800000101e1d:	b8 00 00 00 00       	mov    $0x0,%eax
ffff800000101e22:	48 b9 ed 27 10 00 00 	movabs $0xffff8000001027ed,%rcx
ffff800000101e29:	80 ff ff 
ffff800000101e2c:	ff d1                	callq  *%rcx
ffff800000101e2e:	eb 25                	jmp    ffff800000101e55 <do_invalid_TSS+0x149>
ffff800000101e30:	48 ba 10 b5 10 00 00 	movabs $0xffff80000010b510,%rdx
ffff800000101e37:	80 ff ff 
ffff800000101e3a:	be 00 00 ff 00       	mov    $0xff0000,%esi
ffff800000101e3f:	bf 00 00 00 00       	mov    $0x0,%edi
ffff800000101e44:	b8 00 00 00 00       	mov    $0x0,%eax
ffff800000101e49:	48 b9 ed 27 10 00 00 	movabs $0xffff8000001027ed,%rcx
ffff800000101e50:	80 ff ff 
ffff800000101e53:	ff d1                	callq  *%rcx
ffff800000101e55:	48 8b 45 e0          	mov    -0x20(%rbp),%rax
ffff800000101e59:	25 f8 ff 00 00       	and    $0xfff8,%eax
ffff800000101e5e:	48 89 c1             	mov    %rax,%rcx
ffff800000101e61:	48 ba 3c b5 10 00 00 	movabs $0xffff80000010b53c,%rdx
ffff800000101e68:	80 ff ff 
ffff800000101e6b:	be 00 00 ff 00       	mov    $0xff0000,%esi
ffff800000101e70:	bf 00 00 00 00       	mov    $0x0,%edi
ffff800000101e75:	b8 00 00 00 00       	mov    $0x0,%eax
ffff800000101e7a:	49 b8 ed 27 10 00 00 	movabs $0xffff8000001027ed,%r8
ffff800000101e81:	80 ff ff 
ffff800000101e84:	41 ff d0             	callq  *%r8
ffff800000101e87:	eb fe                	jmp    ffff800000101e87 <do_invalid_TSS+0x17b>

ffff800000101e89 <do_page_fault>:
ffff800000101e89:	55                   	push   %rbp
ffff800000101e8a:	48 89 e5             	mov    %rsp,%rbp
ffff800000101e8d:	48 83 ec 20          	sub    $0x20,%rsp
ffff800000101e91:	48 89 7d e8          	mov    %rdi,-0x18(%rbp)
ffff800000101e95:	48 89 75 e0          	mov    %rsi,-0x20(%rbp)
ffff800000101e99:	48 c7 45 f8 00 00 00 	movq   $0x0,-0x8(%rbp)
ffff800000101ea0:	00 
ffff800000101ea1:	48 c7 45 f0 00 00 00 	movq   $0x0,-0x10(%rbp)
ffff800000101ea8:	00 
ffff800000101ea9:	0f 20 d0             	mov    %cr2,%rax
ffff800000101eac:	48 89 45 f0          	mov    %rax,-0x10(%rbp)
ffff800000101eb0:	48 8b 45 e8          	mov    -0x18(%rbp),%rax
ffff800000101eb4:	48 05 98 00 00 00    	add    $0x98,%rax
ffff800000101eba:	48 89 45 f8          	mov    %rax,-0x8(%rbp)
ffff800000101ebe:	48 8b 45 f8          	mov    -0x8(%rbp),%rax
ffff800000101ec2:	48 8b 08             	mov    (%rax),%rcx
ffff800000101ec5:	48 8b 55 e8          	mov    -0x18(%rbp),%rdx
ffff800000101ec9:	48 8b 45 e0          	mov    -0x20(%rbp),%rax
ffff800000101ecd:	49 89 c9             	mov    %rcx,%r9
ffff800000101ed0:	49 89 d0             	mov    %rdx,%r8
ffff800000101ed3:	48 89 c1             	mov    %rax,%rcx
ffff800000101ed6:	48 ba 60 b5 10 00 00 	movabs $0xffff80000010b560,%rdx
ffff800000101edd:	80 ff ff 
ffff800000101ee0:	be 00 00 ff 00       	mov    $0xff0000,%esi
ffff800000101ee5:	bf 00 00 00 00       	mov    $0x0,%edi
ffff800000101eea:	b8 00 00 00 00       	mov    $0x0,%eax
ffff800000101eef:	49 ba ed 27 10 00 00 	movabs $0xffff8000001027ed,%r10
ffff800000101ef6:	80 ff ff 
ffff800000101ef9:	41 ff d2             	callq  *%r10
ffff800000101efc:	48 8b 45 e0          	mov    -0x20(%rbp),%rax
ffff800000101f00:	83 e0 01             	and    $0x1,%eax
ffff800000101f03:	48 85 c0             	test   %rax,%rax
ffff800000101f06:	75 25                	jne    ffff800000101f2d <do_page_fault+0xa4>
ffff800000101f08:	48 ba 95 b5 10 00 00 	movabs $0xffff80000010b595,%rdx
ffff800000101f0f:	80 ff ff 
ffff800000101f12:	be 00 00 ff 00       	mov    $0xff0000,%esi
ffff800000101f17:	bf 00 00 00 00       	mov    $0x0,%edi
ffff800000101f1c:	b8 00 00 00 00       	mov    $0x0,%eax
ffff800000101f21:	48 b9 ed 27 10 00 00 	movabs $0xffff8000001027ed,%rcx
ffff800000101f28:	80 ff ff 
ffff800000101f2b:	ff d1                	callq  *%rcx
ffff800000101f2d:	48 8b 45 e0          	mov    -0x20(%rbp),%rax
ffff800000101f31:	83 e0 02             	and    $0x2,%eax
ffff800000101f34:	48 85 c0             	test   %rax,%rax
ffff800000101f37:	74 27                	je     ffff800000101f60 <do_page_fault+0xd7>
ffff800000101f39:	48 ba a8 b5 10 00 00 	movabs $0xffff80000010b5a8,%rdx
ffff800000101f40:	80 ff ff 
ffff800000101f43:	be 00 00 ff 00       	mov    $0xff0000,%esi
ffff800000101f48:	bf 00 00 00 00       	mov    $0x0,%edi
ffff800000101f4d:	b8 00 00 00 00       	mov    $0x0,%eax
ffff800000101f52:	48 b9 ed 27 10 00 00 	movabs $0xffff8000001027ed,%rcx
ffff800000101f59:	80 ff ff 
ffff800000101f5c:	ff d1                	callq  *%rcx
ffff800000101f5e:	eb 25                	jmp    ffff800000101f85 <do_page_fault+0xfc>
ffff800000101f60:	48 ba bc b5 10 00 00 	movabs $0xffff80000010b5bc,%rdx
ffff800000101f67:	80 ff ff 
ffff800000101f6a:	be 00 00 ff 00       	mov    $0xff0000,%esi
ffff800000101f6f:	bf 00 00 00 00       	mov    $0x0,%edi
ffff800000101f74:	b8 00 00 00 00       	mov    $0x0,%eax
ffff800000101f79:	48 b9 ed 27 10 00 00 	movabs $0xffff8000001027ed,%rcx
ffff800000101f80:	80 ff ff 
ffff800000101f83:	ff d1                	callq  *%rcx
ffff800000101f85:	48 8b 45 e0          	mov    -0x20(%rbp),%rax
ffff800000101f89:	83 e0 04             	and    $0x4,%eax
ffff800000101f8c:	48 85 c0             	test   %rax,%rax
ffff800000101f8f:	74 27                	je     ffff800000101fb8 <do_page_fault+0x12f>
ffff800000101f91:	48 ba cf b5 10 00 00 	movabs $0xffff80000010b5cf,%rdx
ffff800000101f98:	80 ff ff 
ffff800000101f9b:	be 00 00 ff 00       	mov    $0xff0000,%esi
ffff800000101fa0:	bf 00 00 00 00       	mov    $0x0,%edi
ffff800000101fa5:	b8 00 00 00 00       	mov    $0x0,%eax
ffff800000101faa:	48 b9 ed 27 10 00 00 	movabs $0xffff8000001027ed,%rcx
ffff800000101fb1:	80 ff ff 
ffff800000101fb4:	ff d1                	callq  *%rcx
ffff800000101fb6:	eb 25                	jmp    ffff800000101fdd <do_page_fault+0x154>
ffff800000101fb8:	48 ba e1 b5 10 00 00 	movabs $0xffff80000010b5e1,%rdx
ffff800000101fbf:	80 ff ff 
ffff800000101fc2:	be 00 00 ff 00       	mov    $0xff0000,%esi
ffff800000101fc7:	bf 00 00 00 00       	mov    $0x0,%edi
ffff800000101fcc:	b8 00 00 00 00       	mov    $0x0,%eax
ffff800000101fd1:	48 b9 ed 27 10 00 00 	movabs $0xffff8000001027ed,%rcx
ffff800000101fd8:	80 ff ff 
ffff800000101fdb:	ff d1                	callq  *%rcx
ffff800000101fdd:	48 8b 45 e0          	mov    -0x20(%rbp),%rax
ffff800000101fe1:	83 e0 08             	and    $0x8,%eax
ffff800000101fe4:	48 85 c0             	test   %rax,%rax
ffff800000101fe7:	74 25                	je     ffff80000010200e <do_page_fault+0x185>
ffff800000101fe9:	48 ba fd b5 10 00 00 	movabs $0xffff80000010b5fd,%rdx
ffff800000101ff0:	80 ff ff 
ffff800000101ff3:	be 00 00 ff 00       	mov    $0xff0000,%esi
ffff800000101ff8:	bf 00 00 00 00       	mov    $0x0,%edi
ffff800000101ffd:	b8 00 00 00 00       	mov    $0x0,%eax
ffff800000102002:	48 b9 ed 27 10 00 00 	movabs $0xffff8000001027ed,%rcx
ffff800000102009:	80 ff ff 
ffff80000010200c:	ff d1                	callq  *%rcx
ffff80000010200e:	48 8b 45 e0          	mov    -0x20(%rbp),%rax
ffff800000102012:	83 e0 10             	and    $0x10,%eax
ffff800000102015:	48 85 c0             	test   %rax,%rax
ffff800000102018:	74 25                	je     ffff80000010203f <do_page_fault+0x1b6>
ffff80000010201a:	48 ba 18 b6 10 00 00 	movabs $0xffff80000010b618,%rdx
ffff800000102021:	80 ff ff 
ffff800000102024:	be 00 00 ff 00       	mov    $0xff0000,%esi
ffff800000102029:	bf 00 00 00 00       	mov    $0x0,%edi
ffff80000010202e:	b8 00 00 00 00       	mov    $0x0,%eax
ffff800000102033:	48 b9 ed 27 10 00 00 	movabs $0xffff8000001027ed,%rcx
ffff80000010203a:	80 ff ff 
ffff80000010203d:	ff d1                	callq  *%rcx
ffff80000010203f:	48 ba 37 b6 10 00 00 	movabs $0xffff80000010b637,%rdx
ffff800000102046:	80 ff ff 
ffff800000102049:	be 00 00 ff 00       	mov    $0xff0000,%esi
ffff80000010204e:	bf 00 00 00 00       	mov    $0x0,%edi
ffff800000102053:	b8 00 00 00 00       	mov    $0x0,%eax
ffff800000102058:	48 b9 ed 27 10 00 00 	movabs $0xffff8000001027ed,%rcx
ffff80000010205f:	80 ff ff 
ffff800000102062:	ff d1                	callq  *%rcx
ffff800000102064:	48 8b 45 f0          	mov    -0x10(%rbp),%rax
ffff800000102068:	48 89 c1             	mov    %rax,%rcx
ffff80000010206b:	48 ba 39 b6 10 00 00 	movabs $0xffff80000010b639,%rdx
ffff800000102072:	80 ff ff 
ffff800000102075:	be 00 00 ff 00       	mov    $0xff0000,%esi
ffff80000010207a:	bf 00 00 00 00       	mov    $0x0,%edi
ffff80000010207f:	b8 00 00 00 00       	mov    $0x0,%eax
ffff800000102084:	49 b8 ed 27 10 00 00 	movabs $0xffff8000001027ed,%r8
ffff80000010208b:	80 ff ff 
ffff80000010208e:	41 ff d0             	callq  *%r8
ffff800000102091:	eb fe                	jmp    ffff800000102091 <do_page_fault+0x208>

ffff800000102093 <do_nmi>:
ffff800000102093:	55                   	push   %rbp
ffff800000102094:	48 89 e5             	mov    %rsp,%rbp
ffff800000102097:	48 83 ec 20          	sub    $0x20,%rsp
ffff80000010209b:	48 89 7d e8          	mov    %rdi,-0x18(%rbp)
ffff80000010209f:	48 89 75 e0          	mov    %rsi,-0x20(%rbp)
ffff8000001020a3:	48 c7 45 f8 00 00 00 	movq   $0x0,-0x8(%rbp)
ffff8000001020aa:	00 
ffff8000001020ab:	48 8b 45 e8          	mov    -0x18(%rbp),%rax
ffff8000001020af:	48 05 98 00 00 00    	add    $0x98,%rax
ffff8000001020b5:	48 89 45 f8          	mov    %rax,-0x8(%rbp)
ffff8000001020b9:	48 8b 45 f8          	mov    -0x8(%rbp),%rax
ffff8000001020bd:	48 8b 08             	mov    (%rax),%rcx
ffff8000001020c0:	48 8b 55 e8          	mov    -0x18(%rbp),%rdx
ffff8000001020c4:	48 8b 45 e0          	mov    -0x20(%rbp),%rax
ffff8000001020c8:	49 89 c9             	mov    %rcx,%r9
ffff8000001020cb:	49 89 d0             	mov    %rdx,%r8
ffff8000001020ce:	48 89 c1             	mov    %rax,%rcx
ffff8000001020d1:	48 ba 48 b6 10 00 00 	movabs $0xffff80000010b648,%rdx
ffff8000001020d8:	80 ff ff 
ffff8000001020db:	be 00 00 ff 00       	mov    $0xff0000,%esi
ffff8000001020e0:	bf 00 00 00 00       	mov    $0x0,%edi
ffff8000001020e5:	b8 00 00 00 00       	mov    $0x0,%eax
ffff8000001020ea:	49 ba ed 27 10 00 00 	movabs $0xffff8000001027ed,%r10
ffff8000001020f1:	80 ff ff 
ffff8000001020f4:	41 ff d2             	callq  *%r10
ffff8000001020f7:	eb fe                	jmp    ffff8000001020f7 <do_nmi+0x64>

ffff8000001020f9 <do_double_fault>:
ffff8000001020f9:	55                   	push   %rbp
ffff8000001020fa:	48 89 e5             	mov    %rsp,%rbp
ffff8000001020fd:	48 83 ec 20          	sub    $0x20,%rsp
ffff800000102101:	48 89 7d e8          	mov    %rdi,-0x18(%rbp)
ffff800000102105:	48 89 75 e0          	mov    %rsi,-0x20(%rbp)
ffff800000102109:	48 c7 45 f8 00 00 00 	movq   $0x0,-0x8(%rbp)
ffff800000102110:	00 
ffff800000102111:	48 8b 45 e8          	mov    -0x18(%rbp),%rax
ffff800000102115:	48 05 98 00 00 00    	add    $0x98,%rax
ffff80000010211b:	48 89 45 f8          	mov    %rax,-0x8(%rbp)
ffff80000010211f:	48 8b 45 f8          	mov    -0x8(%rbp),%rax
ffff800000102123:	48 8b 08             	mov    (%rax),%rcx
ffff800000102126:	48 8b 55 e8          	mov    -0x18(%rbp),%rdx
ffff80000010212a:	48 8b 45 e0          	mov    -0x20(%rbp),%rax
ffff80000010212e:	49 89 c9             	mov    %rcx,%r9
ffff800000102131:	49 89 d0             	mov    %rdx,%r8
ffff800000102134:	48 89 c1             	mov    %rax,%rcx
ffff800000102137:	48 ba 78 b6 10 00 00 	movabs $0xffff80000010b678,%rdx
ffff80000010213e:	80 ff ff 
ffff800000102141:	be 00 00 ff 00       	mov    $0xff0000,%esi
ffff800000102146:	bf 00 00 00 00       	mov    $0x0,%edi
ffff80000010214b:	b8 00 00 00 00       	mov    $0x0,%eax
ffff800000102150:	49 ba ed 27 10 00 00 	movabs $0xffff8000001027ed,%r10
ffff800000102157:	80 ff ff 
ffff80000010215a:	41 ff d2             	callq  *%r10
ffff80000010215d:	eb fe                	jmp    ffff80000010215d <do_double_fault+0x64>

ffff80000010215f <do_coprocessor_segment_overrun>:
ffff80000010215f:	55                   	push   %rbp
ffff800000102160:	48 89 e5             	mov    %rsp,%rbp
ffff800000102163:	48 83 ec 20          	sub    $0x20,%rsp
ffff800000102167:	48 89 7d e8          	mov    %rdi,-0x18(%rbp)
ffff80000010216b:	48 89 75 e0          	mov    %rsi,-0x20(%rbp)
ffff80000010216f:	48 c7 45 f8 00 00 00 	movq   $0x0,-0x8(%rbp)
ffff800000102176:	00 
ffff800000102177:	48 8b 45 e8          	mov    -0x18(%rbp),%rax
ffff80000010217b:	48 05 98 00 00 00    	add    $0x98,%rax
ffff800000102181:	48 89 45 f8          	mov    %rax,-0x8(%rbp)
ffff800000102185:	48 8b 45 f8          	mov    -0x8(%rbp),%rax
ffff800000102189:	48 8b 08             	mov    (%rax),%rcx
ffff80000010218c:	48 8b 55 e8          	mov    -0x18(%rbp),%rdx
ffff800000102190:	48 8b 45 e0          	mov    -0x20(%rbp),%rax
ffff800000102194:	49 89 c9             	mov    %rcx,%r9
ffff800000102197:	49 89 d0             	mov    %rdx,%r8
ffff80000010219a:	48 89 c1             	mov    %rax,%rcx
ffff80000010219d:	48 ba b8 b6 10 00 00 	movabs $0xffff80000010b6b8,%rdx
ffff8000001021a4:	80 ff ff 
ffff8000001021a7:	be 00 00 ff 00       	mov    $0xff0000,%esi
ffff8000001021ac:	bf 00 00 00 00       	mov    $0x0,%edi
ffff8000001021b1:	b8 00 00 00 00       	mov    $0x0,%eax
ffff8000001021b6:	49 ba ed 27 10 00 00 	movabs $0xffff8000001027ed,%r10
ffff8000001021bd:	80 ff ff 
ffff8000001021c0:	41 ff d2             	callq  *%r10
ffff8000001021c3:	eb fe                	jmp    ffff8000001021c3 <do_coprocessor_segment_overrun+0x64>

ffff8000001021c5 <do_segment_not_present>:
ffff8000001021c5:	55                   	push   %rbp
ffff8000001021c6:	48 89 e5             	mov    %rsp,%rbp
ffff8000001021c9:	48 83 ec 20          	sub    $0x20,%rsp
ffff8000001021cd:	48 89 7d e8          	mov    %rdi,-0x18(%rbp)
ffff8000001021d1:	48 89 75 e0          	mov    %rsi,-0x20(%rbp)
ffff8000001021d5:	48 c7 45 f8 00 00 00 	movq   $0x0,-0x8(%rbp)
ffff8000001021dc:	00 
ffff8000001021dd:	48 8b 45 e8          	mov    -0x18(%rbp),%rax
ffff8000001021e1:	48 05 98 00 00 00    	add    $0x98,%rax
ffff8000001021e7:	48 89 45 f8          	mov    %rax,-0x8(%rbp)
ffff8000001021eb:	48 8b 45 f8          	mov    -0x8(%rbp),%rax
ffff8000001021ef:	48 8b 08             	mov    (%rax),%rcx
ffff8000001021f2:	48 8b 55 e8          	mov    -0x18(%rbp),%rdx
ffff8000001021f6:	48 8b 45 e0          	mov    -0x20(%rbp),%rax
ffff8000001021fa:	49 89 c9             	mov    %rcx,%r9
ffff8000001021fd:	49 89 d0             	mov    %rdx,%r8
ffff800000102200:	48 89 c1             	mov    %rax,%rcx
ffff800000102203:	48 ba 00 b7 10 00 00 	movabs $0xffff80000010b700,%rdx
ffff80000010220a:	80 ff ff 
ffff80000010220d:	be 00 00 ff 00       	mov    $0xff0000,%esi
ffff800000102212:	bf 00 00 00 00       	mov    $0x0,%edi
ffff800000102217:	b8 00 00 00 00       	mov    $0x0,%eax
ffff80000010221c:	49 ba ed 27 10 00 00 	movabs $0xffff8000001027ed,%r10
ffff800000102223:	80 ff ff 
ffff800000102226:	41 ff d2             	callq  *%r10
ffff800000102229:	48 8b 45 e0          	mov    -0x20(%rbp),%rax
ffff80000010222d:	83 e0 01             	and    $0x1,%eax
ffff800000102230:	48 85 c0             	test   %rax,%rax
ffff800000102233:	74 25                	je     ffff80000010225a <do_segment_not_present+0x95>
ffff800000102235:	48 ba 48 b7 10 00 00 	movabs $0xffff80000010b748,%rdx
ffff80000010223c:	80 ff ff 
ffff80000010223f:	be 00 00 ff 00       	mov    $0xff0000,%esi
ffff800000102244:	bf 00 00 00 00       	mov    $0x0,%edi
ffff800000102249:	b8 00 00 00 00       	mov    $0x0,%eax
ffff80000010224e:	48 b9 ed 27 10 00 00 	movabs $0xffff8000001027ed,%rcx
ffff800000102255:	80 ff ff 
ffff800000102258:	ff d1                	callq  *%rcx
ffff80000010225a:	48 8b 45 e0          	mov    -0x20(%rbp),%rax
ffff80000010225e:	83 e0 02             	and    $0x2,%eax
ffff800000102261:	48 85 c0             	test   %rax,%rax
ffff800000102264:	74 27                	je     ffff80000010228d <do_segment_not_present+0xc8>
ffff800000102266:	48 ba 70 b4 10 00 00 	movabs $0xffff80000010b470,%rdx
ffff80000010226d:	80 ff ff 
ffff800000102270:	be 00 00 ff 00       	mov    $0xff0000,%esi
ffff800000102275:	bf 00 00 00 00       	mov    $0x0,%edi
ffff80000010227a:	b8 00 00 00 00       	mov    $0x0,%eax
ffff80000010227f:	48 b9 ed 27 10 00 00 	movabs $0xffff8000001027ed,%rcx
ffff800000102286:	80 ff ff 
ffff800000102289:	ff d1                	callq  *%rcx
ffff80000010228b:	eb 25                	jmp    ffff8000001022b2 <do_segment_not_present+0xed>
ffff80000010228d:	48 ba a0 b4 10 00 00 	movabs $0xffff80000010b4a0,%rdx
ffff800000102294:	80 ff ff 
ffff800000102297:	be 00 00 ff 00       	mov    $0xff0000,%esi
ffff80000010229c:	bf 00 00 00 00       	mov    $0x0,%edi
ffff8000001022a1:	b8 00 00 00 00       	mov    $0x0,%eax
ffff8000001022a6:	48 b9 ed 27 10 00 00 	movabs $0xffff8000001027ed,%rcx
ffff8000001022ad:	80 ff ff 
ffff8000001022b0:	ff d1                	callq  *%rcx
ffff8000001022b2:	48 8b 45 e0          	mov    -0x20(%rbp),%rax
ffff8000001022b6:	83 e0 02             	and    $0x2,%eax
ffff8000001022b9:	48 85 c0             	test   %rax,%rax
ffff8000001022bc:	75 58                	jne    ffff800000102316 <do_segment_not_present+0x151>
ffff8000001022be:	48 8b 45 e0          	mov    -0x20(%rbp),%rax
ffff8000001022c2:	83 e0 04             	and    $0x4,%eax
ffff8000001022c5:	48 85 c0             	test   %rax,%rax
ffff8000001022c8:	74 27                	je     ffff8000001022f1 <do_segment_not_present+0x12c>
ffff8000001022ca:	48 ba d8 b4 10 00 00 	movabs $0xffff80000010b4d8,%rdx
ffff8000001022d1:	80 ff ff 
ffff8000001022d4:	be 00 00 ff 00       	mov    $0xff0000,%esi
ffff8000001022d9:	bf 00 00 00 00       	mov    $0x0,%edi
ffff8000001022de:	b8 00 00 00 00       	mov    $0x0,%eax
ffff8000001022e3:	48 b9 ed 27 10 00 00 	movabs $0xffff8000001027ed,%rcx
ffff8000001022ea:	80 ff ff 
ffff8000001022ed:	ff d1                	callq  *%rcx
ffff8000001022ef:	eb 25                	jmp    ffff800000102316 <do_segment_not_present+0x151>
ffff8000001022f1:	48 ba 10 b5 10 00 00 	movabs $0xffff80000010b510,%rdx
ffff8000001022f8:	80 ff ff 
ffff8000001022fb:	be 00 00 ff 00       	mov    $0xff0000,%esi
ffff800000102300:	bf 00 00 00 00       	mov    $0x0,%edi
ffff800000102305:	b8 00 00 00 00       	mov    $0x0,%eax
ffff80000010230a:	48 b9 ed 27 10 00 00 	movabs $0xffff8000001027ed,%rcx
ffff800000102311:	80 ff ff 
ffff800000102314:	ff d1                	callq  *%rcx
ffff800000102316:	48 8b 45 e0          	mov    -0x20(%rbp),%rax
ffff80000010231a:	25 f8 ff 00 00       	and    $0xfff8,%eax
ffff80000010231f:	48 89 c1             	mov    %rax,%rcx
ffff800000102322:	48 ba 3c b5 10 00 00 	movabs $0xffff80000010b53c,%rdx
ffff800000102329:	80 ff ff 
ffff80000010232c:	be 00 00 ff 00       	mov    $0xff0000,%esi
ffff800000102331:	bf 00 00 00 00       	mov    $0x0,%edi
ffff800000102336:	b8 00 00 00 00       	mov    $0x0,%eax
ffff80000010233b:	49 b8 ed 27 10 00 00 	movabs $0xffff8000001027ed,%r8
ffff800000102342:	80 ff ff 
ffff800000102345:	41 ff d0             	callq  *%r8
ffff800000102348:	eb fe                	jmp    ffff800000102348 <do_segment_not_present+0x183>

ffff80000010234a <do_general_protection>:
ffff80000010234a:	55                   	push   %rbp
ffff80000010234b:	48 89 e5             	mov    %rsp,%rbp
ffff80000010234e:	48 83 ec 20          	sub    $0x20,%rsp
ffff800000102352:	48 89 7d e8          	mov    %rdi,-0x18(%rbp)
ffff800000102356:	48 89 75 e0          	mov    %rsi,-0x20(%rbp)
ffff80000010235a:	48 c7 45 f8 00 00 00 	movq   $0x0,-0x8(%rbp)
ffff800000102361:	00 
ffff800000102362:	48 8b 45 e8          	mov    -0x18(%rbp),%rax
ffff800000102366:	48 05 98 00 00 00    	add    $0x98,%rax
ffff80000010236c:	48 89 45 f8          	mov    %rax,-0x8(%rbp)
ffff800000102370:	48 8b 45 f8          	mov    -0x8(%rbp),%rax
ffff800000102374:	48 8b 08             	mov    (%rax),%rcx
ffff800000102377:	48 8b 55 e8          	mov    -0x18(%rbp),%rdx
ffff80000010237b:	48 8b 45 e0          	mov    -0x20(%rbp),%rax
ffff80000010237f:	49 89 c9             	mov    %rcx,%r9
ffff800000102382:	49 89 d0             	mov    %rdx,%r8
ffff800000102385:	48 89 c1             	mov    %rax,%rcx
ffff800000102388:	48 ba c8 b7 10 00 00 	movabs $0xffff80000010b7c8,%rdx
ffff80000010238f:	80 ff ff 
ffff800000102392:	be 00 00 ff 00       	mov    $0xff0000,%esi
ffff800000102397:	bf 00 00 00 00       	mov    $0x0,%edi
ffff80000010239c:	b8 00 00 00 00       	mov    $0x0,%eax
ffff8000001023a1:	49 ba ed 27 10 00 00 	movabs $0xffff8000001027ed,%r10
ffff8000001023a8:	80 ff ff 
ffff8000001023ab:	41 ff d2             	callq  *%r10
ffff8000001023ae:	48 8b 45 e0          	mov    -0x20(%rbp),%rax
ffff8000001023b2:	83 e0 01             	and    $0x1,%eax
ffff8000001023b5:	48 85 c0             	test   %rax,%rax
ffff8000001023b8:	74 25                	je     ffff8000001023df <do_general_protection+0x95>
ffff8000001023ba:	48 ba 48 b7 10 00 00 	movabs $0xffff80000010b748,%rdx
ffff8000001023c1:	80 ff ff 
ffff8000001023c4:	be 00 00 ff 00       	mov    $0xff0000,%esi
ffff8000001023c9:	bf 00 00 00 00       	mov    $0x0,%edi
ffff8000001023ce:	b8 00 00 00 00       	mov    $0x0,%eax
ffff8000001023d3:	48 b9 ed 27 10 00 00 	movabs $0xffff8000001027ed,%rcx
ffff8000001023da:	80 ff ff 
ffff8000001023dd:	ff d1                	callq  *%rcx
ffff8000001023df:	48 8b 45 e0          	mov    -0x20(%rbp),%rax
ffff8000001023e3:	83 e0 02             	and    $0x2,%eax
ffff8000001023e6:	48 85 c0             	test   %rax,%rax
ffff8000001023e9:	74 27                	je     ffff800000102412 <do_general_protection+0xc8>
ffff8000001023eb:	48 ba 70 b4 10 00 00 	movabs $0xffff80000010b470,%rdx
ffff8000001023f2:	80 ff ff 
ffff8000001023f5:	be 00 00 ff 00       	mov    $0xff0000,%esi
ffff8000001023fa:	bf 00 00 00 00       	mov    $0x0,%edi
ffff8000001023ff:	b8 00 00 00 00       	mov    $0x0,%eax
ffff800000102404:	48 b9 ed 27 10 00 00 	movabs $0xffff8000001027ed,%rcx
ffff80000010240b:	80 ff ff 
ffff80000010240e:	ff d1                	callq  *%rcx
ffff800000102410:	eb 25                	jmp    ffff800000102437 <do_general_protection+0xed>
ffff800000102412:	48 ba a0 b4 10 00 00 	movabs $0xffff80000010b4a0,%rdx
ffff800000102419:	80 ff ff 
ffff80000010241c:	be 00 00 ff 00       	mov    $0xff0000,%esi
ffff800000102421:	bf 00 00 00 00       	mov    $0x0,%edi
ffff800000102426:	b8 00 00 00 00       	mov    $0x0,%eax
ffff80000010242b:	48 b9 ed 27 10 00 00 	movabs $0xffff8000001027ed,%rcx
ffff800000102432:	80 ff ff 
ffff800000102435:	ff d1                	callq  *%rcx
ffff800000102437:	48 8b 45 e0          	mov    -0x20(%rbp),%rax
ffff80000010243b:	83 e0 02             	and    $0x2,%eax
ffff80000010243e:	48 85 c0             	test   %rax,%rax
ffff800000102441:	75 58                	jne    ffff80000010249b <do_general_protection+0x151>
ffff800000102443:	48 8b 45 e0          	mov    -0x20(%rbp),%rax
ffff800000102447:	83 e0 04             	and    $0x4,%eax
ffff80000010244a:	48 85 c0             	test   %rax,%rax
ffff80000010244d:	74 27                	je     ffff800000102476 <do_general_protection+0x12c>
ffff80000010244f:	48 ba d8 b4 10 00 00 	movabs $0xffff80000010b4d8,%rdx
ffff800000102456:	80 ff ff 
ffff800000102459:	be 00 00 ff 00       	mov    $0xff0000,%esi
ffff80000010245e:	bf 00 00 00 00       	mov    $0x0,%edi
ffff800000102463:	b8 00 00 00 00       	mov    $0x0,%eax
ffff800000102468:	48 b9 ed 27 10 00 00 	movabs $0xffff8000001027ed,%rcx
ffff80000010246f:	80 ff ff 
ffff800000102472:	ff d1                	callq  *%rcx
ffff800000102474:	eb 25                	jmp    ffff80000010249b <do_general_protection+0x151>
ffff800000102476:	48 ba 10 b5 10 00 00 	movabs $0xffff80000010b510,%rdx
ffff80000010247d:	80 ff ff 
ffff800000102480:	be 00 00 ff 00       	mov    $0xff0000,%esi
ffff800000102485:	bf 00 00 00 00       	mov    $0x0,%edi
ffff80000010248a:	b8 00 00 00 00       	mov    $0x0,%eax
ffff80000010248f:	48 b9 ed 27 10 00 00 	movabs $0xffff8000001027ed,%rcx
ffff800000102496:	80 ff ff 
ffff800000102499:	ff d1                	callq  *%rcx
ffff80000010249b:	48 8b 45 e0          	mov    -0x20(%rbp),%rax
ffff80000010249f:	25 f8 ff 00 00       	and    $0xfff8,%eax
ffff8000001024a4:	48 89 c1             	mov    %rax,%rcx
ffff8000001024a7:	48 ba 3c b5 10 00 00 	movabs $0xffff80000010b53c,%rdx
ffff8000001024ae:	80 ff ff 
ffff8000001024b1:	be 00 00 ff 00       	mov    $0xff0000,%esi
ffff8000001024b6:	bf 00 00 00 00       	mov    $0x0,%edi
ffff8000001024bb:	b8 00 00 00 00       	mov    $0x0,%eax
ffff8000001024c0:	49 b8 ed 27 10 00 00 	movabs $0xffff8000001027ed,%r8
ffff8000001024c7:	80 ff ff 
ffff8000001024ca:	41 ff d0             	callq  *%r8
ffff8000001024cd:	eb fe                	jmp    ffff8000001024cd <do_general_protection+0x183>

ffff8000001024cf <getchar>:
ffff8000001024cf:	55                   	push   %rbp
ffff8000001024d0:	48 89 e5             	mov    %rsp,%rbp
ffff8000001024d3:	48 b8 00 11 11 00 00 	movabs $0xffff800000111100,%rax
ffff8000001024da:	80 ff ff 
ffff8000001024dd:	0f b6 00             	movzbl (%rax),%eax
ffff8000001024e0:	8d 50 01             	lea    0x1(%rax),%edx
ffff8000001024e3:	48 b9 00 11 11 00 00 	movabs $0xffff800000111100,%rcx
ffff8000001024ea:	80 ff ff 
ffff8000001024ed:	88 11                	mov    %dl,(%rcx)
ffff8000001024ef:	0f b6 c0             	movzbl %al,%eax
ffff8000001024f2:	48 ba 20 11 11 00 00 	movabs $0xffff800000111120,%rdx
ffff8000001024f9:	80 ff ff 
ffff8000001024fc:	48 98                	cltq   
ffff8000001024fe:	0f b6 04 02          	movzbl (%rdx,%rax,1),%eax
ffff800000102502:	5d                   	pop    %rbp
ffff800000102503:	c3                   	retq   

ffff800000102504 <getstr>:
ffff800000102504:	55                   	push   %rbp
ffff800000102505:	48 89 e5             	mov    %rsp,%rbp
ffff800000102508:	48 89 7d e8          	mov    %rdi,-0x18(%rbp)
ffff80000010250c:	89 75 e4             	mov    %esi,-0x1c(%rbp)
ffff80000010250f:	c7 45 fc 00 00 00 00 	movl   $0x0,-0x4(%rbp)
ffff800000102516:	eb 40                	jmp    ffff800000102558 <getstr+0x54>
ffff800000102518:	48 b8 00 11 11 00 00 	movabs $0xffff800000111100,%rax
ffff80000010251f:	80 ff ff 
ffff800000102522:	0f b6 00             	movzbl (%rax),%eax
ffff800000102525:	8d 50 01             	lea    0x1(%rax),%edx
ffff800000102528:	48 b9 00 11 11 00 00 	movabs $0xffff800000111100,%rcx
ffff80000010252f:	80 ff ff 
ffff800000102532:	88 11                	mov    %dl,(%rcx)
ffff800000102534:	0f b6 c0             	movzbl %al,%eax
ffff800000102537:	48 ba 20 11 11 00 00 	movabs $0xffff800000111120,%rdx
ffff80000010253e:	80 ff ff 
ffff800000102541:	48 98                	cltq   
ffff800000102543:	0f b6 0c 02          	movzbl (%rdx,%rax,1),%ecx
ffff800000102547:	8b 45 fc             	mov    -0x4(%rbp),%eax
ffff80000010254a:	48 63 d0             	movslq %eax,%rdx
ffff80000010254d:	48 8b 45 e8          	mov    -0x18(%rbp),%rax
ffff800000102551:	48 01 d0             	add    %rdx,%rax
ffff800000102554:	89 ca                	mov    %ecx,%edx
ffff800000102556:	88 10                	mov    %dl,(%rax)
ffff800000102558:	8b 45 fc             	mov    -0x4(%rbp),%eax
ffff80000010255b:	3b 45 e4             	cmp    -0x1c(%rbp),%eax
ffff80000010255e:	7d 70                	jge    ffff8000001025d0 <getstr+0xcc>
ffff800000102560:	48 b8 00 11 11 00 00 	movabs $0xffff800000111100,%rax
ffff800000102567:	80 ff ff 
ffff80000010256a:	0f b6 00             	movzbl (%rax),%eax
ffff80000010256d:	0f b6 c0             	movzbl %al,%eax
ffff800000102570:	48 ba 20 11 11 00 00 	movabs $0xffff800000111120,%rdx
ffff800000102577:	80 ff ff 
ffff80000010257a:	48 98                	cltq   
ffff80000010257c:	0f b6 04 02          	movzbl (%rdx,%rax,1),%eax
ffff800000102580:	84 c0                	test   %al,%al
ffff800000102582:	74 4c                	je     ffff8000001025d0 <getstr+0xcc>
ffff800000102584:	48 b8 00 11 11 00 00 	movabs $0xffff800000111100,%rax
ffff80000010258b:	80 ff ff 
ffff80000010258e:	0f b6 00             	movzbl (%rax),%eax
ffff800000102591:	0f b6 c0             	movzbl %al,%eax
ffff800000102594:	48 ba 20 11 11 00 00 	movabs $0xffff800000111120,%rdx
ffff80000010259b:	80 ff ff 
ffff80000010259e:	48 98                	cltq   
ffff8000001025a0:	0f b6 04 02          	movzbl (%rdx,%rax,1),%eax
ffff8000001025a4:	3c 0a                	cmp    $0xa,%al
ffff8000001025a6:	74 28                	je     ffff8000001025d0 <getstr+0xcc>
ffff8000001025a8:	48 b8 00 11 11 00 00 	movabs $0xffff800000111100,%rax
ffff8000001025af:	80 ff ff 
ffff8000001025b2:	0f b6 00             	movzbl (%rax),%eax
ffff8000001025b5:	0f b6 c0             	movzbl %al,%eax
ffff8000001025b8:	48 ba 20 11 11 00 00 	movabs $0xffff800000111120,%rdx
ffff8000001025bf:	80 ff ff 
ffff8000001025c2:	48 98                	cltq   
ffff8000001025c4:	0f b6 04 02          	movzbl (%rdx,%rax,1),%eax
ffff8000001025c8:	84 c0                	test   %al,%al
ffff8000001025ca:	0f 85 48 ff ff ff    	jne    ffff800000102518 <getstr+0x14>
ffff8000001025d0:	90                   	nop
ffff8000001025d1:	5d                   	pop    %rbp
ffff8000001025d2:	c3                   	retq   

ffff8000001025d3 <putchar>:
ffff8000001025d3:	55                   	push   %rbp
ffff8000001025d4:	48 89 e5             	mov    %rsp,%rbp
ffff8000001025d7:	48 83 ec 10          	sub    $0x10,%rsp
ffff8000001025db:	89 f8                	mov    %edi,%eax
ffff8000001025dd:	88 45 fc             	mov    %al,-0x4(%rbp)
ffff8000001025e0:	0f be 45 fc          	movsbl -0x4(%rbp),%eax
ffff8000001025e4:	ba ff ff ff 00       	mov    $0xffffff,%edx
ffff8000001025e9:	be 00 00 00 00       	mov    $0x0,%esi
ffff8000001025ee:	89 c7                	mov    %eax,%edi
ffff8000001025f0:	48 b8 ff 25 10 00 00 	movabs $0xffff8000001025ff,%rax
ffff8000001025f7:	80 ff ff 
ffff8000001025fa:	ff d0                	callq  *%rax
ffff8000001025fc:	90                   	nop
ffff8000001025fd:	c9                   	leaveq 
ffff8000001025fe:	c3                   	retq   

ffff8000001025ff <putchar_color>:
ffff8000001025ff:	55                   	push   %rbp
ffff800000102600:	48 89 e5             	mov    %rsp,%rbp
ffff800000102603:	48 83 ec 20          	sub    $0x20,%rsp
ffff800000102607:	89 f8                	mov    %edi,%eax
ffff800000102609:	89 75 e8             	mov    %esi,-0x18(%rbp)
ffff80000010260c:	89 55 e4             	mov    %edx,-0x1c(%rbp)
ffff80000010260f:	88 45 ec             	mov    %al,-0x14(%rbp)
ffff800000102612:	80 7d ec 0a          	cmpb   $0xa,-0x14(%rbp)
ffff800000102616:	75 68                	jne    ffff800000102680 <putchar_color+0x81>
ffff800000102618:	48 b8 e0 10 11 00 00 	movabs $0xffff8000001110e0,%rax
ffff80000010261f:	80 ff ff 
ffff800000102622:	8b 50 04             	mov    0x4(%rax),%edx
ffff800000102625:	48 b8 e0 10 11 00 00 	movabs $0xffff8000001110e0,%rax
ffff80000010262c:	80 ff ff 
ffff80000010262f:	8b 40 14             	mov    0x14(%rax),%eax
ffff800000102632:	01 c2                	add    %eax,%edx
ffff800000102634:	48 b8 e0 10 11 00 00 	movabs $0xffff8000001110e0,%rax
ffff80000010263b:	80 ff ff 
ffff80000010263e:	89 50 04             	mov    %edx,0x4(%rax)
ffff800000102641:	48 b8 e0 10 11 00 00 	movabs $0xffff8000001110e0,%rax
ffff800000102648:	80 ff ff 
ffff80000010264b:	c7 00 00 00 00 00    	movl   $0x0,(%rax)
ffff800000102651:	48 b8 e0 10 11 00 00 	movabs $0xffff8000001110e0,%rax
ffff800000102658:	80 ff ff 
ffff80000010265b:	8b 40 04             	mov    0x4(%rax),%eax
ffff80000010265e:	48 ba e0 10 11 00 00 	movabs $0xffff8000001110e0,%rdx
ffff800000102665:	80 ff ff 
ffff800000102668:	8b 4a 0c             	mov    0xc(%rdx),%ecx
ffff80000010266b:	99                   	cltd   
ffff80000010266c:	f7 f9                	idiv   %ecx
ffff80000010266e:	48 b8 e0 10 11 00 00 	movabs $0xffff8000001110e0,%rax
ffff800000102675:	80 ff ff 
ffff800000102678:	89 50 04             	mov    %edx,0x4(%rax)
ffff80000010267b:	e9 f8 00 00 00       	jmpq   ffff800000102778 <putchar_color+0x179>
ffff800000102680:	c7 45 fc 00 00 00 00 	movl   $0x0,-0x4(%rbp)
ffff800000102687:	e9 c7 00 00 00       	jmpq   ffff800000102753 <putchar_color+0x154>
ffff80000010268c:	c7 45 f4 00 01 00 00 	movl   $0x100,-0xc(%rbp)
ffff800000102693:	c7 45 f8 00 00 00 00 	movl   $0x0,-0x8(%rbp)
ffff80000010269a:	e9 a6 00 00 00       	jmpq   ffff800000102745 <putchar_color+0x146>
ffff80000010269f:	d1 7d f4             	sarl   -0xc(%rbp)
ffff8000001026a2:	0f be 45 ec          	movsbl -0x14(%rbp),%eax
ffff8000001026a6:	48 b9 e0 8f 10 00 00 	movabs $0xffff800000108fe0,%rcx
ffff8000001026ad:	80 ff ff 
ffff8000001026b0:	8b 55 fc             	mov    -0x4(%rbp),%edx
ffff8000001026b3:	48 63 d2             	movslq %edx,%rdx
ffff8000001026b6:	48 98                	cltq   
ffff8000001026b8:	48 c1 e0 04          	shl    $0x4,%rax
ffff8000001026bc:	48 01 c8             	add    %rcx,%rax
ffff8000001026bf:	48 01 d0             	add    %rdx,%rax
ffff8000001026c2:	0f b6 00             	movzbl (%rax),%eax
ffff8000001026c5:	0f b6 c0             	movzbl %al,%eax
ffff8000001026c8:	23 45 f4             	and    -0xc(%rbp),%eax
ffff8000001026cb:	85 c0                	test   %eax,%eax
ffff8000001026cd:	74 3a                	je     ffff800000102709 <putchar_color+0x10a>
ffff8000001026cf:	8b 45 e4             	mov    -0x1c(%rbp),%eax
ffff8000001026d2:	48 ba e0 10 11 00 00 	movabs $0xffff8000001110e0,%rdx
ffff8000001026d9:	80 ff ff 
ffff8000001026dc:	8b 4a 04             	mov    0x4(%rdx),%ecx
ffff8000001026df:	8b 55 fc             	mov    -0x4(%rbp),%edx
ffff8000001026e2:	8d 34 11             	lea    (%rcx,%rdx,1),%esi
ffff8000001026e5:	48 ba e0 10 11 00 00 	movabs $0xffff8000001110e0,%rdx
ffff8000001026ec:	80 ff ff 
ffff8000001026ef:	8b 0a                	mov    (%rdx),%ecx
ffff8000001026f1:	8b 55 f8             	mov    -0x8(%rbp),%edx
ffff8000001026f4:	01 d1                	add    %edx,%ecx
ffff8000001026f6:	48 89 c2             	mov    %rax,%rdx
ffff8000001026f9:	89 cf                	mov    %ecx,%edi
ffff8000001026fb:	48 b8 98 5a 10 00 00 	movabs $0xffff800000105a98,%rax
ffff800000102702:	80 ff ff 
ffff800000102705:	ff d0                	callq  *%rax
ffff800000102707:	eb 38                	jmp    ffff800000102741 <putchar_color+0x142>
ffff800000102709:	8b 45 e8             	mov    -0x18(%rbp),%eax
ffff80000010270c:	48 ba e0 10 11 00 00 	movabs $0xffff8000001110e0,%rdx
ffff800000102713:	80 ff ff 
ffff800000102716:	8b 4a 04             	mov    0x4(%rdx),%ecx
ffff800000102719:	8b 55 fc             	mov    -0x4(%rbp),%edx
ffff80000010271c:	8d 34 11             	lea    (%rcx,%rdx,1),%esi
ffff80000010271f:	48 ba e0 10 11 00 00 	movabs $0xffff8000001110e0,%rdx
ffff800000102726:	80 ff ff 
ffff800000102729:	8b 0a                	mov    (%rdx),%ecx
ffff80000010272b:	8b 55 f8             	mov    -0x8(%rbp),%edx
ffff80000010272e:	01 d1                	add    %edx,%ecx
ffff800000102730:	48 89 c2             	mov    %rax,%rdx
ffff800000102733:	89 cf                	mov    %ecx,%edi
ffff800000102735:	48 b8 98 5a 10 00 00 	movabs $0xffff800000105a98,%rax
ffff80000010273c:	80 ff ff 
ffff80000010273f:	ff d0                	callq  *%rax
ffff800000102741:	83 45 f8 01          	addl   $0x1,-0x8(%rbp)
ffff800000102745:	83 7d f8 07          	cmpl   $0x7,-0x8(%rbp)
ffff800000102749:	0f 8e 50 ff ff ff    	jle    ffff80000010269f <putchar_color+0xa0>
ffff80000010274f:	83 45 fc 01          	addl   $0x1,-0x4(%rbp)
ffff800000102753:	83 7d fc 0f          	cmpl   $0xf,-0x4(%rbp)
ffff800000102757:	0f 8e 2f ff ff ff    	jle    ffff80000010268c <putchar_color+0x8d>
ffff80000010275d:	48 b8 e0 10 11 00 00 	movabs $0xffff8000001110e0,%rax
ffff800000102764:	80 ff ff 
ffff800000102767:	8b 40 10             	mov    0x10(%rax),%eax
ffff80000010276a:	89 c7                	mov    %eax,%edi
ffff80000010276c:	48 b8 e1 5b 10 00 00 	movabs $0xffff800000105be1,%rax
ffff800000102773:	80 ff ff 
ffff800000102776:	ff d0                	callq  *%rax
ffff800000102778:	c9                   	leaveq 
ffff800000102779:	c3                   	retq   

ffff80000010277a <puts_color>:
ffff80000010277a:	55                   	push   %rbp
ffff80000010277b:	48 89 e5             	mov    %rsp,%rbp
ffff80000010277e:	48 83 ec 10          	sub    $0x10,%rsp
ffff800000102782:	48 89 7d f8          	mov    %rdi,-0x8(%rbp)
ffff800000102786:	89 75 f4             	mov    %esi,-0xc(%rbp)
ffff800000102789:	89 55 f0             	mov    %edx,-0x10(%rbp)
ffff80000010278c:	eb 25                	jmp    ffff8000001027b3 <puts_color+0x39>
ffff80000010278e:	48 8b 45 f8          	mov    -0x8(%rbp),%rax
ffff800000102792:	0f b6 00             	movzbl (%rax),%eax
ffff800000102795:	0f be c0             	movsbl %al,%eax
ffff800000102798:	8b 55 f0             	mov    -0x10(%rbp),%edx
ffff80000010279b:	8b 4d f4             	mov    -0xc(%rbp),%ecx
ffff80000010279e:	89 ce                	mov    %ecx,%esi
ffff8000001027a0:	89 c7                	mov    %eax,%edi
ffff8000001027a2:	48 b8 ff 25 10 00 00 	movabs $0xffff8000001025ff,%rax
ffff8000001027a9:	80 ff ff 
ffff8000001027ac:	ff d0                	callq  *%rax
ffff8000001027ae:	48 83 45 f8 01       	addq   $0x1,-0x8(%rbp)
ffff8000001027b3:	48 8b 45 f8          	mov    -0x8(%rbp),%rax
ffff8000001027b7:	0f b6 00             	movzbl (%rax),%eax
ffff8000001027ba:	84 c0                	test   %al,%al
ffff8000001027bc:	75 d0                	jne    ffff80000010278e <puts_color+0x14>
ffff8000001027be:	90                   	nop
ffff8000001027bf:	c9                   	leaveq 
ffff8000001027c0:	c3                   	retq   

ffff8000001027c1 <puts>:
ffff8000001027c1:	55                   	push   %rbp
ffff8000001027c2:	48 89 e5             	mov    %rsp,%rbp
ffff8000001027c5:	48 83 ec 10          	sub    $0x10,%rsp
ffff8000001027c9:	48 89 7d f8          	mov    %rdi,-0x8(%rbp)
ffff8000001027cd:	48 8b 45 f8          	mov    -0x8(%rbp),%rax
ffff8000001027d1:	ba ff ff ff 00       	mov    $0xffffff,%edx
ffff8000001027d6:	be 00 00 00 00       	mov    $0x0,%esi
ffff8000001027db:	48 89 c7             	mov    %rax,%rdi
ffff8000001027de:	48 b8 7a 27 10 00 00 	movabs $0xffff80000010277a,%rax
ffff8000001027e5:	80 ff ff 
ffff8000001027e8:	ff d0                	callq  *%rax
ffff8000001027ea:	90                   	nop
ffff8000001027eb:	c9                   	leaveq 
ffff8000001027ec:	c3                   	retq   

ffff8000001027ed <printf_color>:
ffff8000001027ed:	55                   	push   %rbp
ffff8000001027ee:	48 89 e5             	mov    %rsp,%rbp
ffff8000001027f1:	48 81 ec 20 01 00 00 	sub    $0x120,%rsp
ffff8000001027f8:	89 bd ec fe ff ff    	mov    %edi,-0x114(%rbp)
ffff8000001027fe:	89 b5 e8 fe ff ff    	mov    %esi,-0x118(%rbp)
ffff800000102804:	48 89 95 e0 fe ff ff 	mov    %rdx,-0x120(%rbp)
ffff80000010280b:	48 89 8d 68 ff ff ff 	mov    %rcx,-0x98(%rbp)
ffff800000102812:	4c 89 85 70 ff ff ff 	mov    %r8,-0x90(%rbp)
ffff800000102819:	4c 89 8d 78 ff ff ff 	mov    %r9,-0x88(%rbp)
ffff800000102820:	84 c0                	test   %al,%al
ffff800000102822:	74 20                	je     ffff800000102844 <printf_color+0x57>
ffff800000102824:	0f 29 45 80          	movaps %xmm0,-0x80(%rbp)
ffff800000102828:	0f 29 4d 90          	movaps %xmm1,-0x70(%rbp)
ffff80000010282c:	0f 29 55 a0          	movaps %xmm2,-0x60(%rbp)
ffff800000102830:	0f 29 5d b0          	movaps %xmm3,-0x50(%rbp)
ffff800000102834:	0f 29 65 c0          	movaps %xmm4,-0x40(%rbp)
ffff800000102838:	0f 29 6d d0          	movaps %xmm5,-0x30(%rbp)
ffff80000010283c:	0f 29 75 e0          	movaps %xmm6,-0x20(%rbp)
ffff800000102840:	0f 29 7d f0          	movaps %xmm7,-0x10(%rbp)
ffff800000102844:	c7 85 28 ff ff ff 18 	movl   $0x18,-0xd8(%rbp)
ffff80000010284b:	00 00 00 
ffff80000010284e:	c7 85 2c ff ff ff 30 	movl   $0x30,-0xd4(%rbp)
ffff800000102855:	00 00 00 
ffff800000102858:	48 8d 45 10          	lea    0x10(%rbp),%rax
ffff80000010285c:	48 89 85 30 ff ff ff 	mov    %rax,-0xd0(%rbp)
ffff800000102863:	48 8d 85 50 ff ff ff 	lea    -0xb0(%rbp),%rax
ffff80000010286a:	48 89 85 38 ff ff ff 	mov    %rax,-0xc8(%rbp)
ffff800000102871:	e9 c5 07 00 00       	jmpq   ffff80000010303b <st+0x7c5>

ffff800000102876 <st>:
ffff800000102876:	48 8b 85 e0 fe ff ff 	mov    -0x120(%rbp),%rax
ffff80000010287d:	0f b6 00             	movzbl (%rax),%eax
ffff800000102880:	3c 25                	cmp    $0x25,%al
ffff800000102882:	0f 85 42 06 00 00    	jne    ffff800000102eca <st+0x654>
ffff800000102888:	48 83 85 e0 fe ff ff 	addq   $0x1,-0x120(%rbp)
ffff80000010288f:	01 
ffff800000102890:	c7 85 48 ff ff ff 00 	movl   $0x0,-0xb8(%rbp)
ffff800000102897:	00 00 00 
ffff80000010289a:	8b 85 48 ff ff ff    	mov    -0xb8(%rbp),%eax
ffff8000001028a0:	89 85 4c ff ff ff    	mov    %eax,-0xb4(%rbp)
ffff8000001028a6:	48 8b 85 e0 fe ff ff 	mov    -0x120(%rbp),%rax
ffff8000001028ad:	0f b6 00             	movzbl (%rax),%eax
ffff8000001028b0:	3c 39                	cmp    $0x39,%al
ffff8000001028b2:	0f 8f 81 00 00 00    	jg     ffff800000102939 <st+0xc3>
ffff8000001028b8:	48 8b 85 e0 fe ff ff 	mov    -0x120(%rbp),%rax
ffff8000001028bf:	0f b6 00             	movzbl (%rax),%eax
ffff8000001028c2:	3c 2f                	cmp    $0x2f,%al
ffff8000001028c4:	7e 73                	jle    ffff800000102939 <st+0xc3>
ffff8000001028c6:	48 8b 85 e0 fe ff ff 	mov    -0x120(%rbp),%rax
ffff8000001028cd:	0f b6 00             	movzbl (%rax),%eax
ffff8000001028d0:	3c 30                	cmp    $0x30,%al
ffff8000001028d2:	0f 94 c0             	sete   %al
ffff8000001028d5:	0f b6 c0             	movzbl %al,%eax
ffff8000001028d8:	89 85 4c ff ff ff    	mov    %eax,-0xb4(%rbp)
ffff8000001028de:	c7 85 48 ff ff ff 00 	movl   $0x0,-0xb8(%rbp)
ffff8000001028e5:	00 00 00 
ffff8000001028e8:	eb 33                	jmp    ffff80000010291d <st+0xa7>
ffff8000001028ea:	8b 95 48 ff ff ff    	mov    -0xb8(%rbp),%edx
ffff8000001028f0:	89 d0                	mov    %edx,%eax
ffff8000001028f2:	c1 e0 02             	shl    $0x2,%eax
ffff8000001028f5:	01 d0                	add    %edx,%eax
ffff8000001028f7:	01 c0                	add    %eax,%eax
ffff8000001028f9:	89 85 48 ff ff ff    	mov    %eax,-0xb8(%rbp)
ffff8000001028ff:	48 8b 85 e0 fe ff ff 	mov    -0x120(%rbp),%rax
ffff800000102906:	0f b6 00             	movzbl (%rax),%eax
ffff800000102909:	0f be c0             	movsbl %al,%eax
ffff80000010290c:	83 e8 30             	sub    $0x30,%eax
ffff80000010290f:	01 85 48 ff ff ff    	add    %eax,-0xb8(%rbp)
ffff800000102915:	48 83 85 e0 fe ff ff 	addq   $0x1,-0x120(%rbp)
ffff80000010291c:	01 
ffff80000010291d:	48 8b 85 e0 fe ff ff 	mov    -0x120(%rbp),%rax
ffff800000102924:	0f b6 00             	movzbl (%rax),%eax
ffff800000102927:	3c 39                	cmp    $0x39,%al
ffff800000102929:	7f 0e                	jg     ffff800000102939 <st+0xc3>
ffff80000010292b:	48 8b 85 e0 fe ff ff 	mov    -0x120(%rbp),%rax
ffff800000102932:	0f b6 00             	movzbl (%rax),%eax
ffff800000102935:	84 c0                	test   %al,%al
ffff800000102937:	79 b1                	jns    ffff8000001028ea <st+0x74>
ffff800000102939:	48 8b 85 e0 fe ff ff 	mov    -0x120(%rbp),%rax
ffff800000102940:	0f b6 00             	movzbl (%rax),%eax
ffff800000102943:	3c 64                	cmp    $0x64,%al
ffff800000102945:	75 70                	jne    ffff8000001029b7 <st+0x141>
ffff800000102947:	8b 85 28 ff ff ff    	mov    -0xd8(%rbp),%eax
ffff80000010294d:	83 f8 2f             	cmp    $0x2f,%eax
ffff800000102950:	77 23                	ja     ffff800000102975 <st+0xff>
ffff800000102952:	48 8b 85 38 ff ff ff 	mov    -0xc8(%rbp),%rax
ffff800000102959:	8b 95 28 ff ff ff    	mov    -0xd8(%rbp),%edx
ffff80000010295f:	89 d2                	mov    %edx,%edx
ffff800000102961:	48 01 d0             	add    %rdx,%rax
ffff800000102964:	8b 95 28 ff ff ff    	mov    -0xd8(%rbp),%edx
ffff80000010296a:	83 c2 08             	add    $0x8,%edx
ffff80000010296d:	89 95 28 ff ff ff    	mov    %edx,-0xd8(%rbp)
ffff800000102973:	eb 12                	jmp    ffff800000102987 <st+0x111>
ffff800000102975:	48 8b 85 30 ff ff ff 	mov    -0xd0(%rbp),%rax
ffff80000010297c:	48 8d 50 08          	lea    0x8(%rax),%rdx
ffff800000102980:	48 89 95 30 ff ff ff 	mov    %rdx,-0xd0(%rbp)
ffff800000102987:	8b 00                	mov    (%rax),%eax
ffff800000102989:	8b bd 4c ff ff ff    	mov    -0xb4(%rbp),%edi
ffff80000010298f:	8b 8d 48 ff ff ff    	mov    -0xb8(%rbp),%ecx
ffff800000102995:	8b 95 e8 fe ff ff    	mov    -0x118(%rbp),%edx
ffff80000010299b:	8b b5 ec fe ff ff    	mov    -0x114(%rbp),%esi
ffff8000001029a1:	41 89 f8             	mov    %edi,%r8d
ffff8000001029a4:	89 c7                	mov    %eax,%edi
ffff8000001029a6:	48 b8 01 38 10 00 00 	movabs $0xffff800000103801,%rax
ffff8000001029ad:	80 ff ff 
ffff8000001029b0:	ff d0                	callq  *%rax
ffff8000001029b2:	e9 7c 06 00 00       	jmpq   ffff800000103033 <st+0x7bd>
ffff8000001029b7:	48 8b 85 e0 fe ff ff 	mov    -0x120(%rbp),%rax
ffff8000001029be:	0f b6 00             	movzbl (%rax),%eax
ffff8000001029c1:	3c 63                	cmp    $0x63,%al
ffff8000001029c3:	75 66                	jne    ffff800000102a2b <st+0x1b5>
ffff8000001029c5:	8b 85 28 ff ff ff    	mov    -0xd8(%rbp),%eax
ffff8000001029cb:	83 f8 2f             	cmp    $0x2f,%eax
ffff8000001029ce:	77 23                	ja     ffff8000001029f3 <st+0x17d>
ffff8000001029d0:	48 8b 85 38 ff ff ff 	mov    -0xc8(%rbp),%rax
ffff8000001029d7:	8b 95 28 ff ff ff    	mov    -0xd8(%rbp),%edx
ffff8000001029dd:	89 d2                	mov    %edx,%edx
ffff8000001029df:	48 01 d0             	add    %rdx,%rax
ffff8000001029e2:	8b 95 28 ff ff ff    	mov    -0xd8(%rbp),%edx
ffff8000001029e8:	83 c2 08             	add    $0x8,%edx
ffff8000001029eb:	89 95 28 ff ff ff    	mov    %edx,-0xd8(%rbp)
ffff8000001029f1:	eb 12                	jmp    ffff800000102a05 <st+0x18f>
ffff8000001029f3:	48 8b 85 30 ff ff ff 	mov    -0xd0(%rbp),%rax
ffff8000001029fa:	48 8d 50 08          	lea    0x8(%rax),%rdx
ffff8000001029fe:	48 89 95 30 ff ff ff 	mov    %rdx,-0xd0(%rbp)
ffff800000102a05:	8b 00                	mov    (%rax),%eax
ffff800000102a07:	0f be c0             	movsbl %al,%eax
ffff800000102a0a:	8b 95 e8 fe ff ff    	mov    -0x118(%rbp),%edx
ffff800000102a10:	8b 8d ec fe ff ff    	mov    -0x114(%rbp),%ecx
ffff800000102a16:	89 ce                	mov    %ecx,%esi
ffff800000102a18:	89 c7                	mov    %eax,%edi
ffff800000102a1a:	48 b8 ff 25 10 00 00 	movabs $0xffff8000001025ff,%rax
ffff800000102a21:	80 ff ff 
ffff800000102a24:	ff d0                	callq  *%rax
ffff800000102a26:	e9 08 06 00 00       	jmpq   ffff800000103033 <st+0x7bd>
ffff800000102a2b:	48 8b 85 e0 fe ff ff 	mov    -0x120(%rbp),%rax
ffff800000102a32:	0f b6 00             	movzbl (%rax),%eax
ffff800000102a35:	3c 73                	cmp    $0x73,%al
ffff800000102a37:	75 65                	jne    ffff800000102a9e <st+0x228>
ffff800000102a39:	8b 85 28 ff ff ff    	mov    -0xd8(%rbp),%eax
ffff800000102a3f:	83 f8 2f             	cmp    $0x2f,%eax
ffff800000102a42:	77 23                	ja     ffff800000102a67 <st+0x1f1>
ffff800000102a44:	48 8b 85 38 ff ff ff 	mov    -0xc8(%rbp),%rax
ffff800000102a4b:	8b 95 28 ff ff ff    	mov    -0xd8(%rbp),%edx
ffff800000102a51:	89 d2                	mov    %edx,%edx
ffff800000102a53:	48 01 d0             	add    %rdx,%rax
ffff800000102a56:	8b 95 28 ff ff ff    	mov    -0xd8(%rbp),%edx
ffff800000102a5c:	83 c2 08             	add    $0x8,%edx
ffff800000102a5f:	89 95 28 ff ff ff    	mov    %edx,-0xd8(%rbp)
ffff800000102a65:	eb 12                	jmp    ffff800000102a79 <st+0x203>
ffff800000102a67:	48 8b 85 30 ff ff ff 	mov    -0xd0(%rbp),%rax
ffff800000102a6e:	48 8d 50 08          	lea    0x8(%rax),%rdx
ffff800000102a72:	48 89 95 30 ff ff ff 	mov    %rdx,-0xd0(%rbp)
ffff800000102a79:	48 8b 00             	mov    (%rax),%rax
ffff800000102a7c:	8b 95 e8 fe ff ff    	mov    -0x118(%rbp),%edx
ffff800000102a82:	8b 8d ec fe ff ff    	mov    -0x114(%rbp),%ecx
ffff800000102a88:	89 ce                	mov    %ecx,%esi
ffff800000102a8a:	48 89 c7             	mov    %rax,%rdi
ffff800000102a8d:	48 b8 7a 27 10 00 00 	movabs $0xffff80000010277a,%rax
ffff800000102a94:	80 ff ff 
ffff800000102a97:	ff d0                	callq  *%rax
ffff800000102a99:	e9 95 05 00 00       	jmpq   ffff800000103033 <st+0x7bd>
ffff800000102a9e:	48 8b 85 e0 fe ff ff 	mov    -0x120(%rbp),%rax
ffff800000102aa5:	0f b6 00             	movzbl (%rax),%eax
ffff800000102aa8:	3c 78                	cmp    $0x78,%al
ffff800000102aaa:	75 7a                	jne    ffff800000102b26 <st+0x2b0>
ffff800000102aac:	8b 85 28 ff ff ff    	mov    -0xd8(%rbp),%eax
ffff800000102ab2:	83 f8 2f             	cmp    $0x2f,%eax
ffff800000102ab5:	77 23                	ja     ffff800000102ada <st+0x264>
ffff800000102ab7:	48 8b 85 38 ff ff ff 	mov    -0xc8(%rbp),%rax
ffff800000102abe:	8b 95 28 ff ff ff    	mov    -0xd8(%rbp),%edx
ffff800000102ac4:	89 d2                	mov    %edx,%edx
ffff800000102ac6:	48 01 d0             	add    %rdx,%rax
ffff800000102ac9:	8b 95 28 ff ff ff    	mov    -0xd8(%rbp),%edx
ffff800000102acf:	83 c2 08             	add    $0x8,%edx
ffff800000102ad2:	89 95 28 ff ff ff    	mov    %edx,-0xd8(%rbp)
ffff800000102ad8:	eb 12                	jmp    ffff800000102aec <st+0x276>
ffff800000102ada:	48 8b 85 30 ff ff ff 	mov    -0xd0(%rbp),%rax
ffff800000102ae1:	48 8d 50 08          	lea    0x8(%rax),%rdx
ffff800000102ae5:	48 89 95 30 ff ff ff 	mov    %rdx,-0xd0(%rbp)
ffff800000102aec:	48 8b 00             	mov    (%rax),%rax
ffff800000102aef:	8b bd 4c ff ff ff    	mov    -0xb4(%rbp),%edi
ffff800000102af5:	8b 8d 48 ff ff ff    	mov    -0xb8(%rbp),%ecx
ffff800000102afb:	8b 95 e8 fe ff ff    	mov    -0x118(%rbp),%edx
ffff800000102b01:	8b b5 ec fe ff ff    	mov    -0x114(%rbp),%esi
ffff800000102b07:	41 89 f9             	mov    %edi,%r9d
ffff800000102b0a:	41 89 c8             	mov    %ecx,%r8d
ffff800000102b0d:	b9 00 00 00 00       	mov    $0x0,%ecx
ffff800000102b12:	48 89 c7             	mov    %rax,%rdi
ffff800000102b15:	48 b8 dd 3b 10 00 00 	movabs $0xffff800000103bdd,%rax
ffff800000102b1c:	80 ff ff 
ffff800000102b1f:	ff d0                	callq  *%rax
ffff800000102b21:	e9 0d 05 00 00       	jmpq   ffff800000103033 <st+0x7bd>
ffff800000102b26:	48 8b 85 e0 fe ff ff 	mov    -0x120(%rbp),%rax
ffff800000102b2d:	0f b6 00             	movzbl (%rax),%eax
ffff800000102b30:	3c 58                	cmp    $0x58,%al
ffff800000102b32:	75 7a                	jne    ffff800000102bae <st+0x338>
ffff800000102b34:	8b 85 28 ff ff ff    	mov    -0xd8(%rbp),%eax
ffff800000102b3a:	83 f8 2f             	cmp    $0x2f,%eax
ffff800000102b3d:	77 23                	ja     ffff800000102b62 <st+0x2ec>
ffff800000102b3f:	48 8b 85 38 ff ff ff 	mov    -0xc8(%rbp),%rax
ffff800000102b46:	8b 95 28 ff ff ff    	mov    -0xd8(%rbp),%edx
ffff800000102b4c:	89 d2                	mov    %edx,%edx
ffff800000102b4e:	48 01 d0             	add    %rdx,%rax
ffff800000102b51:	8b 95 28 ff ff ff    	mov    -0xd8(%rbp),%edx
ffff800000102b57:	83 c2 08             	add    $0x8,%edx
ffff800000102b5a:	89 95 28 ff ff ff    	mov    %edx,-0xd8(%rbp)
ffff800000102b60:	eb 12                	jmp    ffff800000102b74 <st+0x2fe>
ffff800000102b62:	48 8b 85 30 ff ff ff 	mov    -0xd0(%rbp),%rax
ffff800000102b69:	48 8d 50 08          	lea    0x8(%rax),%rdx
ffff800000102b6d:	48 89 95 30 ff ff ff 	mov    %rdx,-0xd0(%rbp)
ffff800000102b74:	48 8b 00             	mov    (%rax),%rax
ffff800000102b77:	8b bd 4c ff ff ff    	mov    -0xb4(%rbp),%edi
ffff800000102b7d:	8b 8d 48 ff ff ff    	mov    -0xb8(%rbp),%ecx
ffff800000102b83:	8b 95 e8 fe ff ff    	mov    -0x118(%rbp),%edx
ffff800000102b89:	8b b5 ec fe ff ff    	mov    -0x114(%rbp),%esi
ffff800000102b8f:	41 89 f9             	mov    %edi,%r9d
ffff800000102b92:	41 89 c8             	mov    %ecx,%r8d
ffff800000102b95:	b9 01 00 00 00       	mov    $0x1,%ecx
ffff800000102b9a:	48 89 c7             	mov    %rax,%rdi
ffff800000102b9d:	48 b8 dd 3b 10 00 00 	movabs $0xffff800000103bdd,%rax
ffff800000102ba4:	80 ff ff 
ffff800000102ba7:	ff d0                	callq  *%rax
ffff800000102ba9:	e9 85 04 00 00       	jmpq   ffff800000103033 <st+0x7bd>
ffff800000102bae:	48 8b 85 e0 fe ff ff 	mov    -0x120(%rbp),%rax
ffff800000102bb5:	0f b6 00             	movzbl (%rax),%eax
ffff800000102bb8:	3c 6c                	cmp    $0x6c,%al
ffff800000102bba:	0f 85 8c 00 00 00    	jne    ffff800000102c4c <st+0x3d6>
ffff800000102bc0:	48 8b 85 e0 fe ff ff 	mov    -0x120(%rbp),%rax
ffff800000102bc7:	48 83 c0 01          	add    $0x1,%rax
ffff800000102bcb:	0f b6 00             	movzbl (%rax),%eax
ffff800000102bce:	3c 64                	cmp    $0x64,%al
ffff800000102bd0:	75 7a                	jne    ffff800000102c4c <st+0x3d6>
ffff800000102bd2:	48 83 85 e0 fe ff ff 	addq   $0x1,-0x120(%rbp)
ffff800000102bd9:	01 
ffff800000102bda:	8b 85 28 ff ff ff    	mov    -0xd8(%rbp),%eax
ffff800000102be0:	83 f8 2f             	cmp    $0x2f,%eax
ffff800000102be3:	77 23                	ja     ffff800000102c08 <st+0x392>
ffff800000102be5:	48 8b 85 38 ff ff ff 	mov    -0xc8(%rbp),%rax
ffff800000102bec:	8b 95 28 ff ff ff    	mov    -0xd8(%rbp),%edx
ffff800000102bf2:	89 d2                	mov    %edx,%edx
ffff800000102bf4:	48 01 d0             	add    %rdx,%rax
ffff800000102bf7:	8b 95 28 ff ff ff    	mov    -0xd8(%rbp),%edx
ffff800000102bfd:	83 c2 08             	add    $0x8,%edx
ffff800000102c00:	89 95 28 ff ff ff    	mov    %edx,-0xd8(%rbp)
ffff800000102c06:	eb 12                	jmp    ffff800000102c1a <st+0x3a4>
ffff800000102c08:	48 8b 85 30 ff ff ff 	mov    -0xd0(%rbp),%rax
ffff800000102c0f:	48 8d 50 08          	lea    0x8(%rax),%rdx
ffff800000102c13:	48 89 95 30 ff ff ff 	mov    %rdx,-0xd0(%rbp)
ffff800000102c1a:	48 8b 00             	mov    (%rax),%rax
ffff800000102c1d:	8b bd 4c ff ff ff    	mov    -0xb4(%rbp),%edi
ffff800000102c23:	8b 8d 48 ff ff ff    	mov    -0xb8(%rbp),%ecx
ffff800000102c29:	8b 95 e8 fe ff ff    	mov    -0x118(%rbp),%edx
ffff800000102c2f:	8b b5 ec fe ff ff    	mov    -0x114(%rbp),%esi
ffff800000102c35:	41 89 f8             	mov    %edi,%r8d
ffff800000102c38:	48 89 c7             	mov    %rax,%rdi
ffff800000102c3b:	48 b8 cd 39 10 00 00 	movabs $0xffff8000001039cd,%rax
ffff800000102c42:	80 ff ff 
ffff800000102c45:	ff d0                	callq  *%rax
ffff800000102c47:	e9 e7 03 00 00       	jmpq   ffff800000103033 <st+0x7bd>
ffff800000102c4c:	48 8b 85 e0 fe ff ff 	mov    -0x120(%rbp),%rax
ffff800000102c53:	0f b6 00             	movzbl (%rax),%eax
ffff800000102c56:	3c 75                	cmp    $0x75,%al
ffff800000102c58:	0f 85 3e 02 00 00    	jne    ffff800000102e9c <st+0x626>
ffff800000102c5e:	48 83 85 e0 fe ff ff 	addq   $0x1,-0x120(%rbp)
ffff800000102c65:	01 
ffff800000102c66:	48 8b 85 e0 fe ff ff 	mov    -0x120(%rbp),%rax
ffff800000102c6d:	0f b6 00             	movzbl (%rax),%eax
ffff800000102c70:	3c 64                	cmp    $0x64,%al
ffff800000102c72:	75 72                	jne    ffff800000102ce6 <st+0x470>
ffff800000102c74:	8b 85 28 ff ff ff    	mov    -0xd8(%rbp),%eax
ffff800000102c7a:	83 f8 2f             	cmp    $0x2f,%eax
ffff800000102c7d:	77 23                	ja     ffff800000102ca2 <st+0x42c>
ffff800000102c7f:	48 8b 85 38 ff ff ff 	mov    -0xc8(%rbp),%rax
ffff800000102c86:	8b 95 28 ff ff ff    	mov    -0xd8(%rbp),%edx
ffff800000102c8c:	89 d2                	mov    %edx,%edx
ffff800000102c8e:	48 01 d0             	add    %rdx,%rax
ffff800000102c91:	8b 95 28 ff ff ff    	mov    -0xd8(%rbp),%edx
ffff800000102c97:	83 c2 08             	add    $0x8,%edx
ffff800000102c9a:	89 95 28 ff ff ff    	mov    %edx,-0xd8(%rbp)
ffff800000102ca0:	eb 12                	jmp    ffff800000102cb4 <st+0x43e>
ffff800000102ca2:	48 8b 85 30 ff ff ff 	mov    -0xd0(%rbp),%rax
ffff800000102ca9:	48 8d 50 08          	lea    0x8(%rax),%rdx
ffff800000102cad:	48 89 95 30 ff ff ff 	mov    %rdx,-0xd0(%rbp)
ffff800000102cb4:	8b 00                	mov    (%rax),%eax
ffff800000102cb6:	89 c7                	mov    %eax,%edi
ffff800000102cb8:	8b b5 4c ff ff ff    	mov    -0xb4(%rbp),%esi
ffff800000102cbe:	8b 8d 48 ff ff ff    	mov    -0xb8(%rbp),%ecx
ffff800000102cc4:	8b 95 e8 fe ff ff    	mov    -0x118(%rbp),%edx
ffff800000102cca:	8b 85 ec fe ff ff    	mov    -0x114(%rbp),%eax
ffff800000102cd0:	41 89 f0             	mov    %esi,%r8d
ffff800000102cd3:	89 c6                	mov    %eax,%esi
ffff800000102cd5:	48 b8 86 3e 10 00 00 	movabs $0xffff800000103e86,%rax
ffff800000102cdc:	80 ff ff 
ffff800000102cdf:	ff d0                	callq  *%rax
ffff800000102ce1:	e9 4d 03 00 00       	jmpq   ffff800000103033 <st+0x7bd>
ffff800000102ce6:	48 8b 85 e0 fe ff ff 	mov    -0x120(%rbp),%rax
ffff800000102ced:	0f b6 00             	movzbl (%rax),%eax
ffff800000102cf0:	3c 78                	cmp    $0x78,%al
ffff800000102cf2:	75 7c                	jne    ffff800000102d70 <st+0x4fa>
ffff800000102cf4:	8b 85 28 ff ff ff    	mov    -0xd8(%rbp),%eax
ffff800000102cfa:	83 f8 2f             	cmp    $0x2f,%eax
ffff800000102cfd:	77 23                	ja     ffff800000102d22 <st+0x4ac>
ffff800000102cff:	48 8b 85 38 ff ff ff 	mov    -0xc8(%rbp),%rax
ffff800000102d06:	8b 95 28 ff ff ff    	mov    -0xd8(%rbp),%edx
ffff800000102d0c:	89 d2                	mov    %edx,%edx
ffff800000102d0e:	48 01 d0             	add    %rdx,%rax
ffff800000102d11:	8b 95 28 ff ff ff    	mov    -0xd8(%rbp),%edx
ffff800000102d17:	83 c2 08             	add    $0x8,%edx
ffff800000102d1a:	89 95 28 ff ff ff    	mov    %edx,-0xd8(%rbp)
ffff800000102d20:	eb 12                	jmp    ffff800000102d34 <st+0x4be>
ffff800000102d22:	48 8b 85 30 ff ff ff 	mov    -0xd0(%rbp),%rax
ffff800000102d29:	48 8d 50 08          	lea    0x8(%rax),%rdx
ffff800000102d2d:	48 89 95 30 ff ff ff 	mov    %rdx,-0xd0(%rbp)
ffff800000102d34:	48 8b 00             	mov    (%rax),%rax
ffff800000102d37:	48 89 c7             	mov    %rax,%rdi
ffff800000102d3a:	8b b5 4c ff ff ff    	mov    -0xb4(%rbp),%esi
ffff800000102d40:	8b 8d 48 ff ff ff    	mov    -0xb8(%rbp),%ecx
ffff800000102d46:	8b 95 e8 fe ff ff    	mov    -0x118(%rbp),%edx
ffff800000102d4c:	8b 85 ec fe ff ff    	mov    -0x114(%rbp),%eax
ffff800000102d52:	41 89 f1             	mov    %esi,%r9d
ffff800000102d55:	41 89 c8             	mov    %ecx,%r8d
ffff800000102d58:	b9 00 00 00 00       	mov    $0x0,%ecx
ffff800000102d5d:	89 c6                	mov    %eax,%esi
ffff800000102d5f:	48 b8 b7 41 10 00 00 	movabs $0xffff8000001041b7,%rax
ffff800000102d66:	80 ff ff 
ffff800000102d69:	ff d0                	callq  *%rax
ffff800000102d6b:	e9 c3 02 00 00       	jmpq   ffff800000103033 <st+0x7bd>
ffff800000102d70:	48 8b 85 e0 fe ff ff 	mov    -0x120(%rbp),%rax
ffff800000102d77:	0f b6 00             	movzbl (%rax),%eax
ffff800000102d7a:	3c 58                	cmp    $0x58,%al
ffff800000102d7c:	75 7c                	jne    ffff800000102dfa <st+0x584>
ffff800000102d7e:	8b 85 28 ff ff ff    	mov    -0xd8(%rbp),%eax
ffff800000102d84:	83 f8 2f             	cmp    $0x2f,%eax
ffff800000102d87:	77 23                	ja     ffff800000102dac <st+0x536>
ffff800000102d89:	48 8b 85 38 ff ff ff 	mov    -0xc8(%rbp),%rax
ffff800000102d90:	8b 95 28 ff ff ff    	mov    -0xd8(%rbp),%edx
ffff800000102d96:	89 d2                	mov    %edx,%edx
ffff800000102d98:	48 01 d0             	add    %rdx,%rax
ffff800000102d9b:	8b 95 28 ff ff ff    	mov    -0xd8(%rbp),%edx
ffff800000102da1:	83 c2 08             	add    $0x8,%edx
ffff800000102da4:	89 95 28 ff ff ff    	mov    %edx,-0xd8(%rbp)
ffff800000102daa:	eb 12                	jmp    ffff800000102dbe <st+0x548>
ffff800000102dac:	48 8b 85 30 ff ff ff 	mov    -0xd0(%rbp),%rax
ffff800000102db3:	48 8d 50 08          	lea    0x8(%rax),%rdx
ffff800000102db7:	48 89 95 30 ff ff ff 	mov    %rdx,-0xd0(%rbp)
ffff800000102dbe:	48 8b 00             	mov    (%rax),%rax
ffff800000102dc1:	48 89 c7             	mov    %rax,%rdi
ffff800000102dc4:	8b b5 4c ff ff ff    	mov    -0xb4(%rbp),%esi
ffff800000102dca:	8b 8d 48 ff ff ff    	mov    -0xb8(%rbp),%ecx
ffff800000102dd0:	8b 95 e8 fe ff ff    	mov    -0x118(%rbp),%edx
ffff800000102dd6:	8b 85 ec fe ff ff    	mov    -0x114(%rbp),%eax
ffff800000102ddc:	41 89 f1             	mov    %esi,%r9d
ffff800000102ddf:	41 89 c8             	mov    %ecx,%r8d
ffff800000102de2:	b9 01 00 00 00       	mov    $0x1,%ecx
ffff800000102de7:	89 c6                	mov    %eax,%esi
ffff800000102de9:	48 b8 b7 41 10 00 00 	movabs $0xffff8000001041b7,%rax
ffff800000102df0:	80 ff ff 
ffff800000102df3:	ff d0                	callq  *%rax
ffff800000102df5:	e9 39 02 00 00       	jmpq   ffff800000103033 <st+0x7bd>
ffff800000102dfa:	48 8b 85 e0 fe ff ff 	mov    -0x120(%rbp),%rax
ffff800000102e01:	0f b6 00             	movzbl (%rax),%eax
ffff800000102e04:	3c 6c                	cmp    $0x6c,%al
ffff800000102e06:	0f 85 27 02 00 00    	jne    ffff800000103033 <st+0x7bd>
ffff800000102e0c:	48 8b 85 e0 fe ff ff 	mov    -0x120(%rbp),%rax
ffff800000102e13:	48 83 c0 01          	add    $0x1,%rax
ffff800000102e17:	0f b6 00             	movzbl (%rax),%eax
ffff800000102e1a:	3c 64                	cmp    $0x64,%al
ffff800000102e1c:	0f 85 11 02 00 00    	jne    ffff800000103033 <st+0x7bd>
ffff800000102e22:	48 83 85 e0 fe ff ff 	addq   $0x1,-0x120(%rbp)
ffff800000102e29:	01 
ffff800000102e2a:	8b 85 28 ff ff ff    	mov    -0xd8(%rbp),%eax
ffff800000102e30:	83 f8 2f             	cmp    $0x2f,%eax
ffff800000102e33:	77 23                	ja     ffff800000102e58 <st+0x5e2>
ffff800000102e35:	48 8b 85 38 ff ff ff 	mov    -0xc8(%rbp),%rax
ffff800000102e3c:	8b 95 28 ff ff ff    	mov    -0xd8(%rbp),%edx
ffff800000102e42:	89 d2                	mov    %edx,%edx
ffff800000102e44:	48 01 d0             	add    %rdx,%rax
ffff800000102e47:	8b 95 28 ff ff ff    	mov    -0xd8(%rbp),%edx
ffff800000102e4d:	83 c2 08             	add    $0x8,%edx
ffff800000102e50:	89 95 28 ff ff ff    	mov    %edx,-0xd8(%rbp)
ffff800000102e56:	eb 12                	jmp    ffff800000102e6a <st+0x5f4>
ffff800000102e58:	48 8b 85 30 ff ff ff 	mov    -0xd0(%rbp),%rax
ffff800000102e5f:	48 8d 50 08          	lea    0x8(%rax),%rdx
ffff800000102e63:	48 89 95 30 ff ff ff 	mov    %rdx,-0xd0(%rbp)
ffff800000102e6a:	48 8b 00             	mov    (%rax),%rax
ffff800000102e6d:	8b bd 4c ff ff ff    	mov    -0xb4(%rbp),%edi
ffff800000102e73:	8b 8d 48 ff ff ff    	mov    -0xb8(%rbp),%ecx
ffff800000102e79:	8b 95 e8 fe ff ff    	mov    -0x118(%rbp),%edx
ffff800000102e7f:	8b b5 ec fe ff ff    	mov    -0x114(%rbp),%esi
ffff800000102e85:	41 89 f8             	mov    %edi,%r8d
ffff800000102e88:	48 89 c7             	mov    %rax,%rdi
ffff800000102e8b:	48 b8 cd 39 10 00 00 	movabs $0xffff8000001039cd,%rax
ffff800000102e92:	80 ff ff 
ffff800000102e95:	ff d0                	callq  *%rax
ffff800000102e97:	e9 97 01 00 00       	jmpq   ffff800000103033 <st+0x7bd>
ffff800000102e9c:	48 8b 85 e0 fe ff ff 	mov    -0x120(%rbp),%rax
ffff800000102ea3:	0f b6 00             	movzbl (%rax),%eax
ffff800000102ea6:	0f be c0             	movsbl %al,%eax
ffff800000102ea9:	8b 95 e8 fe ff ff    	mov    -0x118(%rbp),%edx
ffff800000102eaf:	8b 8d ec fe ff ff    	mov    -0x114(%rbp),%ecx
ffff800000102eb5:	89 ce                	mov    %ecx,%esi
ffff800000102eb7:	89 c7                	mov    %eax,%edi
ffff800000102eb9:	48 b8 ff 25 10 00 00 	movabs $0xffff8000001025ff,%rax
ffff800000102ec0:	80 ff ff 
ffff800000102ec3:	ff d0                	callq  *%rax
ffff800000102ec5:	e9 69 01 00 00       	jmpq   ffff800000103033 <st+0x7bd>
ffff800000102eca:	48 8b 85 e0 fe ff ff 	mov    -0x120(%rbp),%rax
ffff800000102ed1:	0f b6 00             	movzbl (%rax),%eax
ffff800000102ed4:	3c 0a                	cmp    $0xa,%al
ffff800000102ed6:	75 68                	jne    ffff800000102f40 <st+0x6ca>
ffff800000102ed8:	48 b8 e0 10 11 00 00 	movabs $0xffff8000001110e0,%rax
ffff800000102edf:	80 ff ff 
ffff800000102ee2:	8b 50 04             	mov    0x4(%rax),%edx
ffff800000102ee5:	48 b8 e0 10 11 00 00 	movabs $0xffff8000001110e0,%rax
ffff800000102eec:	80 ff ff 
ffff800000102eef:	8b 40 14             	mov    0x14(%rax),%eax
ffff800000102ef2:	01 c2                	add    %eax,%edx
ffff800000102ef4:	48 b8 e0 10 11 00 00 	movabs $0xffff8000001110e0,%rax
ffff800000102efb:	80 ff ff 
ffff800000102efe:	89 50 04             	mov    %edx,0x4(%rax)
ffff800000102f01:	48 b8 e0 10 11 00 00 	movabs $0xffff8000001110e0,%rax
ffff800000102f08:	80 ff ff 
ffff800000102f0b:	c7 00 00 00 00 00    	movl   $0x0,(%rax)
ffff800000102f11:	48 b8 e0 10 11 00 00 	movabs $0xffff8000001110e0,%rax
ffff800000102f18:	80 ff ff 
ffff800000102f1b:	8b 40 04             	mov    0x4(%rax),%eax
ffff800000102f1e:	48 ba e0 10 11 00 00 	movabs $0xffff8000001110e0,%rdx
ffff800000102f25:	80 ff ff 
ffff800000102f28:	8b 4a 0c             	mov    0xc(%rdx),%ecx
ffff800000102f2b:	99                   	cltd   
ffff800000102f2c:	f7 f9                	idiv   %ecx
ffff800000102f2e:	48 b8 e0 10 11 00 00 	movabs $0xffff8000001110e0,%rax
ffff800000102f35:	80 ff ff 
ffff800000102f38:	89 50 04             	mov    %edx,0x4(%rax)
ffff800000102f3b:	e9 f3 00 00 00       	jmpq   ffff800000103033 <st+0x7bd>
ffff800000102f40:	48 8b 85 e0 fe ff ff 	mov    -0x120(%rbp),%rax
ffff800000102f47:	0f b6 00             	movzbl (%rax),%eax
ffff800000102f4a:	3c 09                	cmp    $0x9,%al
ffff800000102f4c:	0f 85 97 00 00 00    	jne    ffff800000102fe9 <st+0x773>
ffff800000102f52:	48 b8 e0 10 11 00 00 	movabs $0xffff8000001110e0,%rax
ffff800000102f59:	80 ff ff 
ffff800000102f5c:	8b 00                	mov    (%rax),%eax
ffff800000102f5e:	48 ba e0 10 11 00 00 	movabs $0xffff8000001110e0,%rdx
ffff800000102f65:	80 ff ff 
ffff800000102f68:	8b 72 10             	mov    0x10(%rdx),%esi
ffff800000102f6b:	99                   	cltd   
ffff800000102f6c:	f7 fe                	idiv   %esi
ffff800000102f6e:	89 c2                	mov    %eax,%edx
ffff800000102f70:	89 d0                	mov    %edx,%eax
ffff800000102f72:	c1 f8 1f             	sar    $0x1f,%eax
ffff800000102f75:	c1 e8 1e             	shr    $0x1e,%eax
ffff800000102f78:	01 c2                	add    %eax,%edx
ffff800000102f7a:	83 e2 03             	and    $0x3,%edx
ffff800000102f7d:	29 c2                	sub    %eax,%edx
ffff800000102f7f:	89 d0                	mov    %edx,%eax
ffff800000102f81:	ba 04 00 00 00       	mov    $0x4,%edx
ffff800000102f86:	29 c2                	sub    %eax,%edx
ffff800000102f88:	89 d0                	mov    %edx,%eax
ffff800000102f8a:	89 85 40 ff ff ff    	mov    %eax,-0xc0(%rbp)
ffff800000102f90:	c7 85 44 ff ff ff 00 	movl   $0x0,-0xbc(%rbp)
ffff800000102f97:	00 00 00 
ffff800000102f9a:	eb 17                	jmp    ffff800000102fb3 <st+0x73d>
ffff800000102f9c:	8b 85 44 ff ff ff    	mov    -0xbc(%rbp),%eax
ffff800000102fa2:	48 98                	cltq   
ffff800000102fa4:	c6 84 05 f0 fe ff ff 	movb   $0x20,-0x110(%rbp,%rax,1)
ffff800000102fab:	20 
ffff800000102fac:	83 85 44 ff ff ff 01 	addl   $0x1,-0xbc(%rbp)
ffff800000102fb3:	8b 85 44 ff ff ff    	mov    -0xbc(%rbp),%eax
ffff800000102fb9:	3b 85 40 ff ff ff    	cmp    -0xc0(%rbp),%eax
ffff800000102fbf:	7c db                	jl     ffff800000102f9c <st+0x726>
ffff800000102fc1:	8b 85 44 ff ff ff    	mov    -0xbc(%rbp),%eax
ffff800000102fc7:	48 98                	cltq   
ffff800000102fc9:	c6 84 05 f0 fe ff ff 	movb   $0x0,-0x110(%rbp,%rax,1)
ffff800000102fd0:	00 
ffff800000102fd1:	48 8d 85 f0 fe ff ff 	lea    -0x110(%rbp),%rax
ffff800000102fd8:	48 89 c7             	mov    %rax,%rdi
ffff800000102fdb:	48 b8 c1 27 10 00 00 	movabs $0xffff8000001027c1,%rax
ffff800000102fe2:	80 ff ff 
ffff800000102fe5:	ff d0                	callq  *%rax
ffff800000102fe7:	eb 4a                	jmp    ffff800000103033 <st+0x7bd>
ffff800000102fe9:	48 8b 85 e0 fe ff ff 	mov    -0x120(%rbp),%rax
ffff800000102ff0:	0f b6 00             	movzbl (%rax),%eax
ffff800000102ff3:	3c 08                	cmp    $0x8,%al
ffff800000102ff5:	75 13                	jne    ffff80000010300a <st+0x794>
ffff800000102ff7:	bf ff ff ff ff       	mov    $0xffffffff,%edi
ffff800000102ffc:	48 b8 e1 5b 10 00 00 	movabs $0xffff800000105be1,%rax
ffff800000103003:	80 ff ff 
ffff800000103006:	ff d0                	callq  *%rax
ffff800000103008:	eb 29                	jmp    ffff800000103033 <st+0x7bd>
ffff80000010300a:	48 8b 85 e0 fe ff ff 	mov    -0x120(%rbp),%rax
ffff800000103011:	0f b6 00             	movzbl (%rax),%eax
ffff800000103014:	0f be c0             	movsbl %al,%eax
ffff800000103017:	8b 95 e8 fe ff ff    	mov    -0x118(%rbp),%edx
ffff80000010301d:	8b 8d ec fe ff ff    	mov    -0x114(%rbp),%ecx
ffff800000103023:	89 ce                	mov    %ecx,%esi
ffff800000103025:	89 c7                	mov    %eax,%edi
ffff800000103027:	48 b8 ff 25 10 00 00 	movabs $0xffff8000001025ff,%rax
ffff80000010302e:	80 ff ff 
ffff800000103031:	ff d0                	callq  *%rax
ffff800000103033:	48 83 85 e0 fe ff ff 	addq   $0x1,-0x120(%rbp)
ffff80000010303a:	01 
ffff80000010303b:	48 8b 85 e0 fe ff ff 	mov    -0x120(%rbp),%rax
ffff800000103042:	0f b6 00             	movzbl (%rax),%eax
ffff800000103045:	84 c0                	test   %al,%al
ffff800000103047:	0f 85 29 f8 ff ff    	jne    ffff800000102876 <st>
ffff80000010304d:	90                   	nop
ffff80000010304e:	c9                   	leaveq 
ffff80000010304f:	c3                   	retq   

ffff800000103050 <printf>:
ffff800000103050:	55                   	push   %rbp
ffff800000103051:	48 89 e5             	mov    %rsp,%rbp
ffff800000103054:	48 81 ec 20 01 00 00 	sub    $0x120,%rsp
ffff80000010305b:	48 89 bd e8 fe ff ff 	mov    %rdi,-0x118(%rbp)
ffff800000103062:	48 89 b5 58 ff ff ff 	mov    %rsi,-0xa8(%rbp)
ffff800000103069:	48 89 95 60 ff ff ff 	mov    %rdx,-0xa0(%rbp)
ffff800000103070:	48 89 8d 68 ff ff ff 	mov    %rcx,-0x98(%rbp)
ffff800000103077:	4c 89 85 70 ff ff ff 	mov    %r8,-0x90(%rbp)
ffff80000010307e:	4c 89 8d 78 ff ff ff 	mov    %r9,-0x88(%rbp)
ffff800000103085:	84 c0                	test   %al,%al
ffff800000103087:	74 20                	je     ffff8000001030a9 <printf+0x59>
ffff800000103089:	0f 29 45 80          	movaps %xmm0,-0x80(%rbp)
ffff80000010308d:	0f 29 4d 90          	movaps %xmm1,-0x70(%rbp)
ffff800000103091:	0f 29 55 a0          	movaps %xmm2,-0x60(%rbp)
ffff800000103095:	0f 29 5d b0          	movaps %xmm3,-0x50(%rbp)
ffff800000103099:	0f 29 65 c0          	movaps %xmm4,-0x40(%rbp)
ffff80000010309d:	0f 29 6d d0          	movaps %xmm5,-0x30(%rbp)
ffff8000001030a1:	0f 29 75 e0          	movaps %xmm6,-0x20(%rbp)
ffff8000001030a5:	0f 29 7d f0          	movaps %xmm7,-0x10(%rbp)
ffff8000001030a9:	c7 85 28 ff ff ff 08 	movl   $0x8,-0xd8(%rbp)
ffff8000001030b0:	00 00 00 
ffff8000001030b3:	c7 85 2c ff ff ff 30 	movl   $0x30,-0xd4(%rbp)
ffff8000001030ba:	00 00 00 
ffff8000001030bd:	48 8d 45 10          	lea    0x10(%rbp),%rax
ffff8000001030c1:	48 89 85 30 ff ff ff 	mov    %rax,-0xd0(%rbp)
ffff8000001030c8:	48 8d 85 50 ff ff ff 	lea    -0xb0(%rbp),%rax
ffff8000001030cf:	48 89 85 38 ff ff ff 	mov    %rax,-0xc8(%rbp)
ffff8000001030d6:	e9 11 07 00 00       	jmpq   ffff8000001037ec <printf+0x79c>
ffff8000001030db:	48 8b 85 e8 fe ff ff 	mov    -0x118(%rbp),%rax
ffff8000001030e2:	0f b6 00             	movzbl (%rax),%eax
ffff8000001030e5:	3c 25                	cmp    $0x25,%al
ffff8000001030e7:	0f 85 9c 05 00 00    	jne    ffff800000103689 <printf+0x639>
ffff8000001030ed:	48 83 85 e8 fe ff ff 	addq   $0x1,-0x118(%rbp)
ffff8000001030f4:	01 
ffff8000001030f5:	c7 85 48 ff ff ff 00 	movl   $0x0,-0xb8(%rbp)
ffff8000001030fc:	00 00 00 
ffff8000001030ff:	8b 85 48 ff ff ff    	mov    -0xb8(%rbp),%eax
ffff800000103105:	89 85 4c ff ff ff    	mov    %eax,-0xb4(%rbp)
ffff80000010310b:	48 8b 85 e8 fe ff ff 	mov    -0x118(%rbp),%rax
ffff800000103112:	0f b6 00             	movzbl (%rax),%eax
ffff800000103115:	3c 39                	cmp    $0x39,%al
ffff800000103117:	0f 8f 81 00 00 00    	jg     ffff80000010319e <printf+0x14e>
ffff80000010311d:	48 8b 85 e8 fe ff ff 	mov    -0x118(%rbp),%rax
ffff800000103124:	0f b6 00             	movzbl (%rax),%eax
ffff800000103127:	3c 2f                	cmp    $0x2f,%al
ffff800000103129:	7e 73                	jle    ffff80000010319e <printf+0x14e>
ffff80000010312b:	48 8b 85 e8 fe ff ff 	mov    -0x118(%rbp),%rax
ffff800000103132:	0f b6 00             	movzbl (%rax),%eax
ffff800000103135:	3c 30                	cmp    $0x30,%al
ffff800000103137:	0f 94 c0             	sete   %al
ffff80000010313a:	0f b6 c0             	movzbl %al,%eax
ffff80000010313d:	89 85 4c ff ff ff    	mov    %eax,-0xb4(%rbp)
ffff800000103143:	c7 85 48 ff ff ff 00 	movl   $0x0,-0xb8(%rbp)
ffff80000010314a:	00 00 00 
ffff80000010314d:	eb 33                	jmp    ffff800000103182 <printf+0x132>
ffff80000010314f:	8b 95 48 ff ff ff    	mov    -0xb8(%rbp),%edx
ffff800000103155:	89 d0                	mov    %edx,%eax
ffff800000103157:	c1 e0 02             	shl    $0x2,%eax
ffff80000010315a:	01 d0                	add    %edx,%eax
ffff80000010315c:	01 c0                	add    %eax,%eax
ffff80000010315e:	89 85 48 ff ff ff    	mov    %eax,-0xb8(%rbp)
ffff800000103164:	48 8b 85 e8 fe ff ff 	mov    -0x118(%rbp),%rax
ffff80000010316b:	0f b6 00             	movzbl (%rax),%eax
ffff80000010316e:	0f be c0             	movsbl %al,%eax
ffff800000103171:	83 e8 30             	sub    $0x30,%eax
ffff800000103174:	01 85 48 ff ff ff    	add    %eax,-0xb8(%rbp)
ffff80000010317a:	48 83 85 e8 fe ff ff 	addq   $0x1,-0x118(%rbp)
ffff800000103181:	01 
ffff800000103182:	48 8b 85 e8 fe ff ff 	mov    -0x118(%rbp),%rax
ffff800000103189:	0f b6 00             	movzbl (%rax),%eax
ffff80000010318c:	3c 39                	cmp    $0x39,%al
ffff80000010318e:	7f 0e                	jg     ffff80000010319e <printf+0x14e>
ffff800000103190:	48 8b 85 e8 fe ff ff 	mov    -0x118(%rbp),%rax
ffff800000103197:	0f b6 00             	movzbl (%rax),%eax
ffff80000010319a:	84 c0                	test   %al,%al
ffff80000010319c:	79 b1                	jns    ffff80000010314f <printf+0xff>
ffff80000010319e:	48 8b 85 e8 fe ff ff 	mov    -0x118(%rbp),%rax
ffff8000001031a5:	0f b6 00             	movzbl (%rax),%eax
ffff8000001031a8:	3c 64                	cmp    $0x64,%al
ffff8000001031aa:	75 63                	jne    ffff80000010320f <printf+0x1bf>
ffff8000001031ac:	8b 85 28 ff ff ff    	mov    -0xd8(%rbp),%eax
ffff8000001031b2:	83 f8 2f             	cmp    $0x2f,%eax
ffff8000001031b5:	77 23                	ja     ffff8000001031da <printf+0x18a>
ffff8000001031b7:	48 8b 85 38 ff ff ff 	mov    -0xc8(%rbp),%rax
ffff8000001031be:	8b 95 28 ff ff ff    	mov    -0xd8(%rbp),%edx
ffff8000001031c4:	89 d2                	mov    %edx,%edx
ffff8000001031c6:	48 01 d0             	add    %rdx,%rax
ffff8000001031c9:	8b 95 28 ff ff ff    	mov    -0xd8(%rbp),%edx
ffff8000001031cf:	83 c2 08             	add    $0x8,%edx
ffff8000001031d2:	89 95 28 ff ff ff    	mov    %edx,-0xd8(%rbp)
ffff8000001031d8:	eb 12                	jmp    ffff8000001031ec <printf+0x19c>
ffff8000001031da:	48 8b 85 30 ff ff ff 	mov    -0xd0(%rbp),%rax
ffff8000001031e1:	48 8d 50 08          	lea    0x8(%rax),%rdx
ffff8000001031e5:	48 89 95 30 ff ff ff 	mov    %rdx,-0xd0(%rbp)
ffff8000001031ec:	8b 00                	mov    (%rax),%eax
ffff8000001031ee:	8b 95 4c ff ff ff    	mov    -0xb4(%rbp),%edx
ffff8000001031f4:	8b 8d 48 ff ff ff    	mov    -0xb8(%rbp),%ecx
ffff8000001031fa:	89 ce                	mov    %ecx,%esi
ffff8000001031fc:	89 c7                	mov    %eax,%edi
ffff8000001031fe:	48 b8 93 39 10 00 00 	movabs $0xffff800000103993,%rax
ffff800000103205:	80 ff ff 
ffff800000103208:	ff d0                	callq  *%rax
ffff80000010320a:	e9 d5 05 00 00       	jmpq   ffff8000001037e4 <printf+0x794>
ffff80000010320f:	48 8b 85 e8 fe ff ff 	mov    -0x118(%rbp),%rax
ffff800000103216:	0f b6 00             	movzbl (%rax),%eax
ffff800000103219:	3c 63                	cmp    $0x63,%al
ffff80000010321b:	75 58                	jne    ffff800000103275 <printf+0x225>
ffff80000010321d:	8b 85 28 ff ff ff    	mov    -0xd8(%rbp),%eax
ffff800000103223:	83 f8 2f             	cmp    $0x2f,%eax
ffff800000103226:	77 23                	ja     ffff80000010324b <printf+0x1fb>
ffff800000103228:	48 8b 85 38 ff ff ff 	mov    -0xc8(%rbp),%rax
ffff80000010322f:	8b 95 28 ff ff ff    	mov    -0xd8(%rbp),%edx
ffff800000103235:	89 d2                	mov    %edx,%edx
ffff800000103237:	48 01 d0             	add    %rdx,%rax
ffff80000010323a:	8b 95 28 ff ff ff    	mov    -0xd8(%rbp),%edx
ffff800000103240:	83 c2 08             	add    $0x8,%edx
ffff800000103243:	89 95 28 ff ff ff    	mov    %edx,-0xd8(%rbp)
ffff800000103249:	eb 12                	jmp    ffff80000010325d <printf+0x20d>
ffff80000010324b:	48 8b 85 30 ff ff ff 	mov    -0xd0(%rbp),%rax
ffff800000103252:	48 8d 50 08          	lea    0x8(%rax),%rdx
ffff800000103256:	48 89 95 30 ff ff ff 	mov    %rdx,-0xd0(%rbp)
ffff80000010325d:	8b 00                	mov    (%rax),%eax
ffff80000010325f:	0f be c0             	movsbl %al,%eax
ffff800000103262:	89 c7                	mov    %eax,%edi
ffff800000103264:	48 b8 d3 25 10 00 00 	movabs $0xffff8000001025d3,%rax
ffff80000010326b:	80 ff ff 
ffff80000010326e:	ff d0                	callq  *%rax
ffff800000103270:	e9 6f 05 00 00       	jmpq   ffff8000001037e4 <printf+0x794>
ffff800000103275:	48 8b 85 e8 fe ff ff 	mov    -0x118(%rbp),%rax
ffff80000010327c:	0f b6 00             	movzbl (%rax),%eax
ffff80000010327f:	3c 73                	cmp    $0x73,%al
ffff800000103281:	75 57                	jne    ffff8000001032da <printf+0x28a>
ffff800000103283:	8b 85 28 ff ff ff    	mov    -0xd8(%rbp),%eax
ffff800000103289:	83 f8 2f             	cmp    $0x2f,%eax
ffff80000010328c:	77 23                	ja     ffff8000001032b1 <printf+0x261>
ffff80000010328e:	48 8b 85 38 ff ff ff 	mov    -0xc8(%rbp),%rax
ffff800000103295:	8b 95 28 ff ff ff    	mov    -0xd8(%rbp),%edx
ffff80000010329b:	89 d2                	mov    %edx,%edx
ffff80000010329d:	48 01 d0             	add    %rdx,%rax
ffff8000001032a0:	8b 95 28 ff ff ff    	mov    -0xd8(%rbp),%edx
ffff8000001032a6:	83 c2 08             	add    $0x8,%edx
ffff8000001032a9:	89 95 28 ff ff ff    	mov    %edx,-0xd8(%rbp)
ffff8000001032af:	eb 12                	jmp    ffff8000001032c3 <printf+0x273>
ffff8000001032b1:	48 8b 85 30 ff ff ff 	mov    -0xd0(%rbp),%rax
ffff8000001032b8:	48 8d 50 08          	lea    0x8(%rax),%rdx
ffff8000001032bc:	48 89 95 30 ff ff ff 	mov    %rdx,-0xd0(%rbp)
ffff8000001032c3:	48 8b 00             	mov    (%rax),%rax
ffff8000001032c6:	48 89 c7             	mov    %rax,%rdi
ffff8000001032c9:	48 b8 c1 27 10 00 00 	movabs $0xffff8000001027c1,%rax
ffff8000001032d0:	80 ff ff 
ffff8000001032d3:	ff d0                	callq  *%rax
ffff8000001032d5:	e9 0a 05 00 00       	jmpq   ffff8000001037e4 <printf+0x794>
ffff8000001032da:	48 8b 85 e8 fe ff ff 	mov    -0x118(%rbp),%rax
ffff8000001032e1:	0f b6 00             	movzbl (%rax),%eax
ffff8000001032e4:	3c 78                	cmp    $0x78,%al
ffff8000001032e6:	75 68                	jne    ffff800000103350 <printf+0x300>
ffff8000001032e8:	8b 85 28 ff ff ff    	mov    -0xd8(%rbp),%eax
ffff8000001032ee:	83 f8 2f             	cmp    $0x2f,%eax
ffff8000001032f1:	77 23                	ja     ffff800000103316 <printf+0x2c6>
ffff8000001032f3:	48 8b 85 38 ff ff ff 	mov    -0xc8(%rbp),%rax
ffff8000001032fa:	8b 95 28 ff ff ff    	mov    -0xd8(%rbp),%edx
ffff800000103300:	89 d2                	mov    %edx,%edx
ffff800000103302:	48 01 d0             	add    %rdx,%rax
ffff800000103305:	8b 95 28 ff ff ff    	mov    -0xd8(%rbp),%edx
ffff80000010330b:	83 c2 08             	add    $0x8,%edx
ffff80000010330e:	89 95 28 ff ff ff    	mov    %edx,-0xd8(%rbp)
ffff800000103314:	eb 12                	jmp    ffff800000103328 <printf+0x2d8>
ffff800000103316:	48 8b 85 30 ff ff ff 	mov    -0xd0(%rbp),%rax
ffff80000010331d:	48 8d 50 08          	lea    0x8(%rax),%rdx
ffff800000103321:	48 89 95 30 ff ff ff 	mov    %rdx,-0xd0(%rbp)
ffff800000103328:	48 8b 00             	mov    (%rax),%rax
ffff80000010332b:	8b 8d 4c ff ff ff    	mov    -0xb4(%rbp),%ecx
ffff800000103331:	8b 95 48 ff ff ff    	mov    -0xb8(%rbp),%edx
ffff800000103337:	be 00 00 00 00       	mov    $0x0,%esi
ffff80000010333c:	48 89 c7             	mov    %rax,%rdi
ffff80000010333f:	48 b8 40 3e 10 00 00 	movabs $0xffff800000103e40,%rax
ffff800000103346:	80 ff ff 
ffff800000103349:	ff d0                	callq  *%rax
ffff80000010334b:	e9 94 04 00 00       	jmpq   ffff8000001037e4 <printf+0x794>
ffff800000103350:	48 8b 85 e8 fe ff ff 	mov    -0x118(%rbp),%rax
ffff800000103357:	0f b6 00             	movzbl (%rax),%eax
ffff80000010335a:	3c 58                	cmp    $0x58,%al
ffff80000010335c:	75 68                	jne    ffff8000001033c6 <printf+0x376>
ffff80000010335e:	8b 85 28 ff ff ff    	mov    -0xd8(%rbp),%eax
ffff800000103364:	83 f8 2f             	cmp    $0x2f,%eax
ffff800000103367:	77 23                	ja     ffff80000010338c <printf+0x33c>
ffff800000103369:	48 8b 85 38 ff ff ff 	mov    -0xc8(%rbp),%rax
ffff800000103370:	8b 95 28 ff ff ff    	mov    -0xd8(%rbp),%edx
ffff800000103376:	89 d2                	mov    %edx,%edx
ffff800000103378:	48 01 d0             	add    %rdx,%rax
ffff80000010337b:	8b 95 28 ff ff ff    	mov    -0xd8(%rbp),%edx
ffff800000103381:	83 c2 08             	add    $0x8,%edx
ffff800000103384:	89 95 28 ff ff ff    	mov    %edx,-0xd8(%rbp)
ffff80000010338a:	eb 12                	jmp    ffff80000010339e <printf+0x34e>
ffff80000010338c:	48 8b 85 30 ff ff ff 	mov    -0xd0(%rbp),%rax
ffff800000103393:	48 8d 50 08          	lea    0x8(%rax),%rdx
ffff800000103397:	48 89 95 30 ff ff ff 	mov    %rdx,-0xd0(%rbp)
ffff80000010339e:	48 8b 00             	mov    (%rax),%rax
ffff8000001033a1:	8b 8d 4c ff ff ff    	mov    -0xb4(%rbp),%ecx
ffff8000001033a7:	8b 95 48 ff ff ff    	mov    -0xb8(%rbp),%edx
ffff8000001033ad:	be 01 00 00 00       	mov    $0x1,%esi
ffff8000001033b2:	48 89 c7             	mov    %rax,%rdi
ffff8000001033b5:	48 b8 40 3e 10 00 00 	movabs $0xffff800000103e40,%rax
ffff8000001033bc:	80 ff ff 
ffff8000001033bf:	ff d0                	callq  *%rax
ffff8000001033c1:	e9 1e 04 00 00       	jmpq   ffff8000001037e4 <printf+0x794>
ffff8000001033c6:	48 8b 85 e8 fe ff ff 	mov    -0x118(%rbp),%rax
ffff8000001033cd:	0f b6 00             	movzbl (%rax),%eax
ffff8000001033d0:	3c 6c                	cmp    $0x6c,%al
ffff8000001033d2:	75 7f                	jne    ffff800000103453 <printf+0x403>
ffff8000001033d4:	48 8b 85 e8 fe ff ff 	mov    -0x118(%rbp),%rax
ffff8000001033db:	48 83 c0 01          	add    $0x1,%rax
ffff8000001033df:	0f b6 00             	movzbl (%rax),%eax
ffff8000001033e2:	3c 64                	cmp    $0x64,%al
ffff8000001033e4:	75 6d                	jne    ffff800000103453 <printf+0x403>
ffff8000001033e6:	48 83 85 e8 fe ff ff 	addq   $0x1,-0x118(%rbp)
ffff8000001033ed:	01 
ffff8000001033ee:	8b 85 28 ff ff ff    	mov    -0xd8(%rbp),%eax
ffff8000001033f4:	83 f8 2f             	cmp    $0x2f,%eax
ffff8000001033f7:	77 23                	ja     ffff80000010341c <printf+0x3cc>
ffff8000001033f9:	48 8b 85 38 ff ff ff 	mov    -0xc8(%rbp),%rax
ffff800000103400:	8b 95 28 ff ff ff    	mov    -0xd8(%rbp),%edx
ffff800000103406:	89 d2                	mov    %edx,%edx
ffff800000103408:	48 01 d0             	add    %rdx,%rax
ffff80000010340b:	8b 95 28 ff ff ff    	mov    -0xd8(%rbp),%edx
ffff800000103411:	83 c2 08             	add    $0x8,%edx
ffff800000103414:	89 95 28 ff ff ff    	mov    %edx,-0xd8(%rbp)
ffff80000010341a:	eb 12                	jmp    ffff80000010342e <printf+0x3de>
ffff80000010341c:	48 8b 85 30 ff ff ff 	mov    -0xd0(%rbp),%rax
ffff800000103423:	48 8d 50 08          	lea    0x8(%rax),%rdx
ffff800000103427:	48 89 95 30 ff ff ff 	mov    %rdx,-0xd0(%rbp)
ffff80000010342e:	48 8b 00             	mov    (%rax),%rax
ffff800000103431:	8b 95 4c ff ff ff    	mov    -0xb4(%rbp),%edx
ffff800000103437:	8b 8d 48 ff ff ff    	mov    -0xb8(%rbp),%ecx
ffff80000010343d:	89 ce                	mov    %ecx,%esi
ffff80000010343f:	48 89 c7             	mov    %rax,%rdi
ffff800000103442:	48 b8 a0 3b 10 00 00 	movabs $0xffff800000103ba0,%rax
ffff800000103449:	80 ff ff 
ffff80000010344c:	ff d0                	callq  *%rax
ffff80000010344e:	e9 91 03 00 00       	jmpq   ffff8000001037e4 <printf+0x794>
ffff800000103453:	48 8b 85 e8 fe ff ff 	mov    -0x118(%rbp),%rax
ffff80000010345a:	0f b6 00             	movzbl (%rax),%eax
ffff80000010345d:	3c 75                	cmp    $0x75,%al
ffff80000010345f:	0f 85 04 02 00 00    	jne    ffff800000103669 <printf+0x619>
ffff800000103465:	48 83 85 e8 fe ff ff 	addq   $0x1,-0x118(%rbp)
ffff80000010346c:	01 
ffff80000010346d:	48 8b 85 e8 fe ff ff 	mov    -0x118(%rbp),%rax
ffff800000103474:	0f b6 00             	movzbl (%rax),%eax
ffff800000103477:	3c 64                	cmp    $0x64,%al
ffff800000103479:	75 65                	jne    ffff8000001034e0 <printf+0x490>
ffff80000010347b:	8b 85 28 ff ff ff    	mov    -0xd8(%rbp),%eax
ffff800000103481:	83 f8 2f             	cmp    $0x2f,%eax
ffff800000103484:	77 23                	ja     ffff8000001034a9 <printf+0x459>
ffff800000103486:	48 8b 85 38 ff ff ff 	mov    -0xc8(%rbp),%rax
ffff80000010348d:	8b 95 28 ff ff ff    	mov    -0xd8(%rbp),%edx
ffff800000103493:	89 d2                	mov    %edx,%edx
ffff800000103495:	48 01 d0             	add    %rdx,%rax
ffff800000103498:	8b 95 28 ff ff ff    	mov    -0xd8(%rbp),%edx
ffff80000010349e:	83 c2 08             	add    $0x8,%edx
ffff8000001034a1:	89 95 28 ff ff ff    	mov    %edx,-0xd8(%rbp)
ffff8000001034a7:	eb 12                	jmp    ffff8000001034bb <printf+0x46b>
ffff8000001034a9:	48 8b 85 30 ff ff ff 	mov    -0xd0(%rbp),%rax
ffff8000001034b0:	48 8d 50 08          	lea    0x8(%rax),%rdx
ffff8000001034b4:	48 89 95 30 ff ff ff 	mov    %rdx,-0xd0(%rbp)
ffff8000001034bb:	8b 00                	mov    (%rax),%eax
ffff8000001034bd:	89 c1                	mov    %eax,%ecx
ffff8000001034bf:	8b 95 4c ff ff ff    	mov    -0xb4(%rbp),%edx
ffff8000001034c5:	8b 85 48 ff ff ff    	mov    -0xb8(%rbp),%eax
ffff8000001034cb:	89 c6                	mov    %eax,%esi
ffff8000001034cd:	89 cf                	mov    %ecx,%edi
ffff8000001034cf:	48 b8 ce 3f 10 00 00 	movabs $0xffff800000103fce,%rax
ffff8000001034d6:	80 ff ff 
ffff8000001034d9:	ff d0                	callq  *%rax
ffff8000001034db:	e9 04 03 00 00       	jmpq   ffff8000001037e4 <printf+0x794>
ffff8000001034e0:	48 8b 85 e8 fe ff ff 	mov    -0x118(%rbp),%rax
ffff8000001034e7:	0f b6 00             	movzbl (%rax),%eax
ffff8000001034ea:	3c 78                	cmp    $0x78,%al
ffff8000001034ec:	75 6c                	jne    ffff80000010355a <printf+0x50a>
ffff8000001034ee:	8b 85 28 ff ff ff    	mov    -0xd8(%rbp),%eax
ffff8000001034f4:	83 f8 2f             	cmp    $0x2f,%eax
ffff8000001034f7:	77 23                	ja     ffff80000010351c <printf+0x4cc>
ffff8000001034f9:	48 8b 85 38 ff ff ff 	mov    -0xc8(%rbp),%rax
ffff800000103500:	8b 95 28 ff ff ff    	mov    -0xd8(%rbp),%edx
ffff800000103506:	89 d2                	mov    %edx,%edx
ffff800000103508:	48 01 d0             	add    %rdx,%rax
ffff80000010350b:	8b 95 28 ff ff ff    	mov    -0xd8(%rbp),%edx
ffff800000103511:	83 c2 08             	add    $0x8,%edx
ffff800000103514:	89 95 28 ff ff ff    	mov    %edx,-0xd8(%rbp)
ffff80000010351a:	eb 12                	jmp    ffff80000010352e <printf+0x4de>
ffff80000010351c:	48 8b 85 30 ff ff ff 	mov    -0xd0(%rbp),%rax
ffff800000103523:	48 8d 50 08          	lea    0x8(%rax),%rdx
ffff800000103527:	48 89 95 30 ff ff ff 	mov    %rdx,-0xd0(%rbp)
ffff80000010352e:	48 8b 00             	mov    (%rax),%rax
ffff800000103531:	48 89 c7             	mov    %rax,%rdi
ffff800000103534:	8b 95 4c ff ff ff    	mov    -0xb4(%rbp),%edx
ffff80000010353a:	8b 85 48 ff ff ff    	mov    -0xb8(%rbp),%eax
ffff800000103540:	89 d1                	mov    %edx,%ecx
ffff800000103542:	89 c2                	mov    %eax,%edx
ffff800000103544:	be 00 00 00 00       	mov    $0x0,%esi
ffff800000103549:	48 b8 6b 43 10 00 00 	movabs $0xffff80000010436b,%rax
ffff800000103550:	80 ff ff 
ffff800000103553:	ff d0                	callq  *%rax
ffff800000103555:	e9 8a 02 00 00       	jmpq   ffff8000001037e4 <printf+0x794>
ffff80000010355a:	48 8b 85 e8 fe ff ff 	mov    -0x118(%rbp),%rax
ffff800000103561:	0f b6 00             	movzbl (%rax),%eax
ffff800000103564:	3c 58                	cmp    $0x58,%al
ffff800000103566:	75 6c                	jne    ffff8000001035d4 <printf+0x584>
ffff800000103568:	8b 85 28 ff ff ff    	mov    -0xd8(%rbp),%eax
ffff80000010356e:	83 f8 2f             	cmp    $0x2f,%eax
ffff800000103571:	77 23                	ja     ffff800000103596 <printf+0x546>
ffff800000103573:	48 8b 85 38 ff ff ff 	mov    -0xc8(%rbp),%rax
ffff80000010357a:	8b 95 28 ff ff ff    	mov    -0xd8(%rbp),%edx
ffff800000103580:	89 d2                	mov    %edx,%edx
ffff800000103582:	48 01 d0             	add    %rdx,%rax
ffff800000103585:	8b 95 28 ff ff ff    	mov    -0xd8(%rbp),%edx
ffff80000010358b:	83 c2 08             	add    $0x8,%edx
ffff80000010358e:	89 95 28 ff ff ff    	mov    %edx,-0xd8(%rbp)
ffff800000103594:	eb 12                	jmp    ffff8000001035a8 <printf+0x558>
ffff800000103596:	48 8b 85 30 ff ff ff 	mov    -0xd0(%rbp),%rax
ffff80000010359d:	48 8d 50 08          	lea    0x8(%rax),%rdx
ffff8000001035a1:	48 89 95 30 ff ff ff 	mov    %rdx,-0xd0(%rbp)
ffff8000001035a8:	48 8b 00             	mov    (%rax),%rax
ffff8000001035ab:	48 89 c7             	mov    %rax,%rdi
ffff8000001035ae:	8b 95 4c ff ff ff    	mov    -0xb4(%rbp),%edx
ffff8000001035b4:	8b 85 48 ff ff ff    	mov    -0xb8(%rbp),%eax
ffff8000001035ba:	89 d1                	mov    %edx,%ecx
ffff8000001035bc:	89 c2                	mov    %eax,%edx
ffff8000001035be:	be 01 00 00 00       	mov    $0x1,%esi
ffff8000001035c3:	48 b8 6b 43 10 00 00 	movabs $0xffff80000010436b,%rax
ffff8000001035ca:	80 ff ff 
ffff8000001035cd:	ff d0                	callq  *%rax
ffff8000001035cf:	e9 10 02 00 00       	jmpq   ffff8000001037e4 <printf+0x794>
ffff8000001035d4:	48 8b 85 e8 fe ff ff 	mov    -0x118(%rbp),%rax
ffff8000001035db:	0f b6 00             	movzbl (%rax),%eax
ffff8000001035de:	3c 6c                	cmp    $0x6c,%al
ffff8000001035e0:	0f 85 fe 01 00 00    	jne    ffff8000001037e4 <printf+0x794>
ffff8000001035e6:	48 8b 85 e8 fe ff ff 	mov    -0x118(%rbp),%rax
ffff8000001035ed:	48 83 c0 01          	add    $0x1,%rax
ffff8000001035f1:	0f b6 00             	movzbl (%rax),%eax
ffff8000001035f4:	3c 64                	cmp    $0x64,%al
ffff8000001035f6:	0f 85 e8 01 00 00    	jne    ffff8000001037e4 <printf+0x794>
ffff8000001035fc:	48 83 85 e8 fe ff ff 	addq   $0x1,-0x118(%rbp)
ffff800000103603:	01 
ffff800000103604:	8b 85 28 ff ff ff    	mov    -0xd8(%rbp),%eax
ffff80000010360a:	83 f8 2f             	cmp    $0x2f,%eax
ffff80000010360d:	77 23                	ja     ffff800000103632 <printf+0x5e2>
ffff80000010360f:	48 8b 85 38 ff ff ff 	mov    -0xc8(%rbp),%rax
ffff800000103616:	8b 95 28 ff ff ff    	mov    -0xd8(%rbp),%edx
ffff80000010361c:	89 d2                	mov    %edx,%edx
ffff80000010361e:	48 01 d0             	add    %rdx,%rax
ffff800000103621:	8b 95 28 ff ff ff    	mov    -0xd8(%rbp),%edx
ffff800000103627:	83 c2 08             	add    $0x8,%edx
ffff80000010362a:	89 95 28 ff ff ff    	mov    %edx,-0xd8(%rbp)
ffff800000103630:	eb 12                	jmp    ffff800000103644 <printf+0x5f4>
ffff800000103632:	48 8b 85 30 ff ff ff 	mov    -0xd0(%rbp),%rax
ffff800000103639:	48 8d 50 08          	lea    0x8(%rax),%rdx
ffff80000010363d:	48 89 95 30 ff ff ff 	mov    %rdx,-0xd0(%rbp)
ffff800000103644:	48 8b 00             	mov    (%rax),%rax
ffff800000103647:	8b 95 4c ff ff ff    	mov    -0xb4(%rbp),%edx
ffff80000010364d:	8b 8d 48 ff ff ff    	mov    -0xb8(%rbp),%ecx
ffff800000103653:	89 ce                	mov    %ecx,%esi
ffff800000103655:	48 89 c7             	mov    %rax,%rdi
ffff800000103658:	48 b8 a0 3b 10 00 00 	movabs $0xffff800000103ba0,%rax
ffff80000010365f:	80 ff ff 
ffff800000103662:	ff d0                	callq  *%rax
ffff800000103664:	e9 7b 01 00 00       	jmpq   ffff8000001037e4 <printf+0x794>
ffff800000103669:	48 8b 85 e8 fe ff ff 	mov    -0x118(%rbp),%rax
ffff800000103670:	0f b6 00             	movzbl (%rax),%eax
ffff800000103673:	0f be c0             	movsbl %al,%eax
ffff800000103676:	89 c7                	mov    %eax,%edi
ffff800000103678:	48 b8 d3 25 10 00 00 	movabs $0xffff8000001025d3,%rax
ffff80000010367f:	80 ff ff 
ffff800000103682:	ff d0                	callq  *%rax
ffff800000103684:	e9 5b 01 00 00       	jmpq   ffff8000001037e4 <printf+0x794>
ffff800000103689:	48 8b 85 e8 fe ff ff 	mov    -0x118(%rbp),%rax
ffff800000103690:	0f b6 00             	movzbl (%rax),%eax
ffff800000103693:	3c 0a                	cmp    $0xa,%al
ffff800000103695:	75 68                	jne    ffff8000001036ff <printf+0x6af>
ffff800000103697:	48 b8 e0 10 11 00 00 	movabs $0xffff8000001110e0,%rax
ffff80000010369e:	80 ff ff 
ffff8000001036a1:	8b 50 04             	mov    0x4(%rax),%edx
ffff8000001036a4:	48 b8 e0 10 11 00 00 	movabs $0xffff8000001110e0,%rax
ffff8000001036ab:	80 ff ff 
ffff8000001036ae:	8b 40 14             	mov    0x14(%rax),%eax
ffff8000001036b1:	01 c2                	add    %eax,%edx
ffff8000001036b3:	48 b8 e0 10 11 00 00 	movabs $0xffff8000001110e0,%rax
ffff8000001036ba:	80 ff ff 
ffff8000001036bd:	89 50 04             	mov    %edx,0x4(%rax)
ffff8000001036c0:	48 b8 e0 10 11 00 00 	movabs $0xffff8000001110e0,%rax
ffff8000001036c7:	80 ff ff 
ffff8000001036ca:	c7 00 00 00 00 00    	movl   $0x0,(%rax)
ffff8000001036d0:	48 b8 e0 10 11 00 00 	movabs $0xffff8000001110e0,%rax
ffff8000001036d7:	80 ff ff 
ffff8000001036da:	8b 40 04             	mov    0x4(%rax),%eax
ffff8000001036dd:	48 ba e0 10 11 00 00 	movabs $0xffff8000001110e0,%rdx
ffff8000001036e4:	80 ff ff 
ffff8000001036e7:	8b 4a 0c             	mov    0xc(%rdx),%ecx
ffff8000001036ea:	99                   	cltd   
ffff8000001036eb:	f7 f9                	idiv   %ecx
ffff8000001036ed:	48 b8 e0 10 11 00 00 	movabs $0xffff8000001110e0,%rax
ffff8000001036f4:	80 ff ff 
ffff8000001036f7:	89 50 04             	mov    %edx,0x4(%rax)
ffff8000001036fa:	e9 e5 00 00 00       	jmpq   ffff8000001037e4 <printf+0x794>
ffff8000001036ff:	48 8b 85 e8 fe ff ff 	mov    -0x118(%rbp),%rax
ffff800000103706:	0f b6 00             	movzbl (%rax),%eax
ffff800000103709:	3c 09                	cmp    $0x9,%al
ffff80000010370b:	0f 85 97 00 00 00    	jne    ffff8000001037a8 <printf+0x758>
ffff800000103711:	48 b8 e0 10 11 00 00 	movabs $0xffff8000001110e0,%rax
ffff800000103718:	80 ff ff 
ffff80000010371b:	8b 00                	mov    (%rax),%eax
ffff80000010371d:	48 ba e0 10 11 00 00 	movabs $0xffff8000001110e0,%rdx
ffff800000103724:	80 ff ff 
ffff800000103727:	8b 72 10             	mov    0x10(%rdx),%esi
ffff80000010372a:	99                   	cltd   
ffff80000010372b:	f7 fe                	idiv   %esi
ffff80000010372d:	89 c2                	mov    %eax,%edx
ffff80000010372f:	89 d0                	mov    %edx,%eax
ffff800000103731:	c1 f8 1f             	sar    $0x1f,%eax
ffff800000103734:	c1 e8 1e             	shr    $0x1e,%eax
ffff800000103737:	01 c2                	add    %eax,%edx
ffff800000103739:	83 e2 03             	and    $0x3,%edx
ffff80000010373c:	29 c2                	sub    %eax,%edx
ffff80000010373e:	89 d0                	mov    %edx,%eax
ffff800000103740:	ba 04 00 00 00       	mov    $0x4,%edx
ffff800000103745:	29 c2                	sub    %eax,%edx
ffff800000103747:	89 d0                	mov    %edx,%eax
ffff800000103749:	89 85 40 ff ff ff    	mov    %eax,-0xc0(%rbp)
ffff80000010374f:	c7 85 44 ff ff ff 00 	movl   $0x0,-0xbc(%rbp)
ffff800000103756:	00 00 00 
ffff800000103759:	eb 17                	jmp    ffff800000103772 <printf+0x722>
ffff80000010375b:	8b 85 44 ff ff ff    	mov    -0xbc(%rbp),%eax
ffff800000103761:	48 98                	cltq   
ffff800000103763:	c6 84 05 f0 fe ff ff 	movb   $0x20,-0x110(%rbp,%rax,1)
ffff80000010376a:	20 
ffff80000010376b:	83 85 44 ff ff ff 01 	addl   $0x1,-0xbc(%rbp)
ffff800000103772:	8b 85 44 ff ff ff    	mov    -0xbc(%rbp),%eax
ffff800000103778:	3b 85 40 ff ff ff    	cmp    -0xc0(%rbp),%eax
ffff80000010377e:	7c db                	jl     ffff80000010375b <printf+0x70b>
ffff800000103780:	8b 85 44 ff ff ff    	mov    -0xbc(%rbp),%eax
ffff800000103786:	48 98                	cltq   
ffff800000103788:	c6 84 05 f0 fe ff ff 	movb   $0x0,-0x110(%rbp,%rax,1)
ffff80000010378f:	00 
ffff800000103790:	48 8d 85 f0 fe ff ff 	lea    -0x110(%rbp),%rax
ffff800000103797:	48 89 c7             	mov    %rax,%rdi
ffff80000010379a:	48 b8 c1 27 10 00 00 	movabs $0xffff8000001027c1,%rax
ffff8000001037a1:	80 ff ff 
ffff8000001037a4:	ff d0                	callq  *%rax
ffff8000001037a6:	eb 3c                	jmp    ffff8000001037e4 <printf+0x794>
ffff8000001037a8:	48 8b 85 e8 fe ff ff 	mov    -0x118(%rbp),%rax
ffff8000001037af:	0f b6 00             	movzbl (%rax),%eax
ffff8000001037b2:	3c 08                	cmp    $0x8,%al
ffff8000001037b4:	75 13                	jne    ffff8000001037c9 <printf+0x779>
ffff8000001037b6:	bf ff ff ff ff       	mov    $0xffffffff,%edi
ffff8000001037bb:	48 b8 e1 5b 10 00 00 	movabs $0xffff800000105be1,%rax
ffff8000001037c2:	80 ff ff 
ffff8000001037c5:	ff d0                	callq  *%rax
ffff8000001037c7:	eb 1b                	jmp    ffff8000001037e4 <printf+0x794>
ffff8000001037c9:	48 8b 85 e8 fe ff ff 	mov    -0x118(%rbp),%rax
ffff8000001037d0:	0f b6 00             	movzbl (%rax),%eax
ffff8000001037d3:	0f be c0             	movsbl %al,%eax
ffff8000001037d6:	89 c7                	mov    %eax,%edi
ffff8000001037d8:	48 b8 d3 25 10 00 00 	movabs $0xffff8000001025d3,%rax
ffff8000001037df:	80 ff ff 
ffff8000001037e2:	ff d0                	callq  *%rax
ffff8000001037e4:	48 83 85 e8 fe ff ff 	addq   $0x1,-0x118(%rbp)
ffff8000001037eb:	01 
ffff8000001037ec:	48 8b 85 e8 fe ff ff 	mov    -0x118(%rbp),%rax
ffff8000001037f3:	0f b6 00             	movzbl (%rax),%eax
ffff8000001037f6:	84 c0                	test   %al,%al
ffff8000001037f8:	0f 85 dd f8 ff ff    	jne    ffff8000001030db <printf+0x8b>
ffff8000001037fe:	90                   	nop
ffff8000001037ff:	c9                   	leaveq 
ffff800000103800:	c3                   	retq   

ffff800000103801 <puti_color>:
ffff800000103801:	55                   	push   %rbp
ffff800000103802:	48 89 e5             	mov    %rsp,%rbp
ffff800000103805:	48 83 ec 50          	sub    $0x50,%rsp
ffff800000103809:	89 7d cc             	mov    %edi,-0x34(%rbp)
ffff80000010380c:	89 75 c8             	mov    %esi,-0x38(%rbp)
ffff80000010380f:	89 55 c4             	mov    %edx,-0x3c(%rbp)
ffff800000103812:	89 4d c0             	mov    %ecx,-0x40(%rbp)
ffff800000103815:	44 89 45 bc          	mov    %r8d,-0x44(%rbp)
ffff800000103819:	c7 45 fc 00 00 00 00 	movl   $0x0,-0x4(%rbp)
ffff800000103820:	8b 45 cc             	mov    -0x34(%rbp),%eax
ffff800000103823:	89 45 f0             	mov    %eax,-0x10(%rbp)
ffff800000103826:	8b 45 cc             	mov    -0x34(%rbp),%eax
ffff800000103829:	c1 f8 1f             	sar    $0x1f,%eax
ffff80000010382c:	31 45 cc             	xor    %eax,-0x34(%rbp)
ffff80000010382f:	29 45 cc             	sub    %eax,-0x34(%rbp)
ffff800000103832:	eb 54                	jmp    ffff800000103888 <puti_color+0x87>
ffff800000103834:	8b 4d cc             	mov    -0x34(%rbp),%ecx
ffff800000103837:	ba 67 66 66 66       	mov    $0x66666667,%edx
ffff80000010383c:	89 c8                	mov    %ecx,%eax
ffff80000010383e:	f7 ea                	imul   %edx
ffff800000103840:	c1 fa 02             	sar    $0x2,%edx
ffff800000103843:	89 c8                	mov    %ecx,%eax
ffff800000103845:	c1 f8 1f             	sar    $0x1f,%eax
ffff800000103848:	29 c2                	sub    %eax,%edx
ffff80000010384a:	89 d0                	mov    %edx,%eax
ffff80000010384c:	c1 e0 02             	shl    $0x2,%eax
ffff80000010384f:	01 d0                	add    %edx,%eax
ffff800000103851:	01 c0                	add    %eax,%eax
ffff800000103853:	29 c1                	sub    %eax,%ecx
ffff800000103855:	89 ca                	mov    %ecx,%edx
ffff800000103857:	89 d0                	mov    %edx,%eax
ffff800000103859:	8d 48 30             	lea    0x30(%rax),%ecx
ffff80000010385c:	8b 45 fc             	mov    -0x4(%rbp),%eax
ffff80000010385f:	8d 50 01             	lea    0x1(%rax),%edx
ffff800000103862:	89 55 fc             	mov    %edx,-0x4(%rbp)
ffff800000103865:	89 ca                	mov    %ecx,%edx
ffff800000103867:	48 98                	cltq   
ffff800000103869:	88 54 05 d0          	mov    %dl,-0x30(%rbp,%rax,1)
ffff80000010386d:	8b 4d cc             	mov    -0x34(%rbp),%ecx
ffff800000103870:	ba 67 66 66 66       	mov    $0x66666667,%edx
ffff800000103875:	89 c8                	mov    %ecx,%eax
ffff800000103877:	f7 ea                	imul   %edx
ffff800000103879:	c1 fa 02             	sar    $0x2,%edx
ffff80000010387c:	89 c8                	mov    %ecx,%eax
ffff80000010387e:	c1 f8 1f             	sar    $0x1f,%eax
ffff800000103881:	29 c2                	sub    %eax,%edx
ffff800000103883:	89 d0                	mov    %edx,%eax
ffff800000103885:	89 45 cc             	mov    %eax,-0x34(%rbp)
ffff800000103888:	8b 45 cc             	mov    -0x34(%rbp),%eax
ffff80000010388b:	83 c0 09             	add    $0x9,%eax
ffff80000010388e:	83 f8 12             	cmp    $0x12,%eax
ffff800000103891:	77 a1                	ja     ffff800000103834 <puti_color+0x33>
ffff800000103893:	8b 4d cc             	mov    -0x34(%rbp),%ecx
ffff800000103896:	ba 67 66 66 66       	mov    $0x66666667,%edx
ffff80000010389b:	89 c8                	mov    %ecx,%eax
ffff80000010389d:	f7 ea                	imul   %edx
ffff80000010389f:	c1 fa 02             	sar    $0x2,%edx
ffff8000001038a2:	89 c8                	mov    %ecx,%eax
ffff8000001038a4:	c1 f8 1f             	sar    $0x1f,%eax
ffff8000001038a7:	29 c2                	sub    %eax,%edx
ffff8000001038a9:	89 d0                	mov    %edx,%eax
ffff8000001038ab:	c1 e0 02             	shl    $0x2,%eax
ffff8000001038ae:	01 d0                	add    %edx,%eax
ffff8000001038b0:	01 c0                	add    %eax,%eax
ffff8000001038b2:	29 c1                	sub    %eax,%ecx
ffff8000001038b4:	89 ca                	mov    %ecx,%edx
ffff8000001038b6:	89 d0                	mov    %edx,%eax
ffff8000001038b8:	8d 48 30             	lea    0x30(%rax),%ecx
ffff8000001038bb:	8b 45 fc             	mov    -0x4(%rbp),%eax
ffff8000001038be:	8d 50 01             	lea    0x1(%rax),%edx
ffff8000001038c1:	89 55 fc             	mov    %edx,-0x4(%rbp)
ffff8000001038c4:	89 ca                	mov    %ecx,%edx
ffff8000001038c6:	48 98                	cltq   
ffff8000001038c8:	88 54 05 d0          	mov    %dl,-0x30(%rbp,%rax,1)
ffff8000001038cc:	eb 28                	jmp    ffff8000001038f6 <puti_color+0xf5>
ffff8000001038ce:	83 7d bc 00          	cmpl   $0x0,-0x44(%rbp)
ffff8000001038d2:	74 12                	je     ffff8000001038e6 <puti_color+0xe5>
ffff8000001038d4:	8b 45 fc             	mov    -0x4(%rbp),%eax
ffff8000001038d7:	8d 50 01             	lea    0x1(%rax),%edx
ffff8000001038da:	89 55 fc             	mov    %edx,-0x4(%rbp)
ffff8000001038dd:	48 98                	cltq   
ffff8000001038df:	c6 44 05 d0 30       	movb   $0x30,-0x30(%rbp,%rax,1)
ffff8000001038e4:	eb 10                	jmp    ffff8000001038f6 <puti_color+0xf5>
ffff8000001038e6:	8b 45 fc             	mov    -0x4(%rbp),%eax
ffff8000001038e9:	8d 50 01             	lea    0x1(%rax),%edx
ffff8000001038ec:	89 55 fc             	mov    %edx,-0x4(%rbp)
ffff8000001038ef:	48 98                	cltq   
ffff8000001038f1:	c6 44 05 d0 20       	movb   $0x20,-0x30(%rbp,%rax,1)
ffff8000001038f6:	8b 45 c0             	mov    -0x40(%rbp),%eax
ffff8000001038f9:	3b 45 fc             	cmp    -0x4(%rbp),%eax
ffff8000001038fc:	7f d0                	jg     ffff8000001038ce <puti_color+0xcd>
ffff8000001038fe:	83 7d f0 00          	cmpl   $0x0,-0x10(%rbp)
ffff800000103902:	79 10                	jns    ffff800000103914 <puti_color+0x113>
ffff800000103904:	8b 45 fc             	mov    -0x4(%rbp),%eax
ffff800000103907:	8d 50 01             	lea    0x1(%rax),%edx
ffff80000010390a:	89 55 fc             	mov    %edx,-0x4(%rbp)
ffff80000010390d:	48 98                	cltq   
ffff80000010390f:	c6 44 05 d0 2d       	movb   $0x2d,-0x30(%rbp,%rax,1)
ffff800000103914:	8b 45 fc             	mov    -0x4(%rbp),%eax
ffff800000103917:	83 e8 01             	sub    $0x1,%eax
ffff80000010391a:	89 45 f4             	mov    %eax,-0xc(%rbp)
ffff80000010391d:	c7 45 f8 00 00 00 00 	movl   $0x0,-0x8(%rbp)
ffff800000103924:	eb 3d                	jmp    ffff800000103963 <puti_color+0x162>
ffff800000103926:	8b 45 fc             	mov    -0x4(%rbp),%eax
ffff800000103929:	2b 45 f8             	sub    -0x8(%rbp),%eax
ffff80000010392c:	83 e8 01             	sub    $0x1,%eax
ffff80000010392f:	89 45 f4             	mov    %eax,-0xc(%rbp)
ffff800000103932:	8b 45 f8             	mov    -0x8(%rbp),%eax
ffff800000103935:	48 98                	cltq   
ffff800000103937:	0f b6 44 05 d0       	movzbl -0x30(%rbp,%rax,1),%eax
ffff80000010393c:	88 45 ef             	mov    %al,-0x11(%rbp)
ffff80000010393f:	8b 45 f4             	mov    -0xc(%rbp),%eax
ffff800000103942:	48 98                	cltq   
ffff800000103944:	0f b6 54 05 d0       	movzbl -0x30(%rbp,%rax,1),%edx
ffff800000103949:	8b 45 f8             	mov    -0x8(%rbp),%eax
ffff80000010394c:	48 98                	cltq   
ffff80000010394e:	88 54 05 d0          	mov    %dl,-0x30(%rbp,%rax,1)
ffff800000103952:	8b 45 f4             	mov    -0xc(%rbp),%eax
ffff800000103955:	48 98                	cltq   
ffff800000103957:	0f b6 55 ef          	movzbl -0x11(%rbp),%edx
ffff80000010395b:	88 54 05 d0          	mov    %dl,-0x30(%rbp,%rax,1)
ffff80000010395f:	83 45 f8 01          	addl   $0x1,-0x8(%rbp)
ffff800000103963:	8b 45 f8             	mov    -0x8(%rbp),%eax
ffff800000103966:	3b 45 f4             	cmp    -0xc(%rbp),%eax
ffff800000103969:	7c bb                	jl     ffff800000103926 <puti_color+0x125>
ffff80000010396b:	8b 45 fc             	mov    -0x4(%rbp),%eax
ffff80000010396e:	48 98                	cltq   
ffff800000103970:	c6 44 05 d0 00       	movb   $0x0,-0x30(%rbp,%rax,1)
ffff800000103975:	8b 55 c4             	mov    -0x3c(%rbp),%edx
ffff800000103978:	8b 4d c8             	mov    -0x38(%rbp),%ecx
ffff80000010397b:	48 8d 45 d0          	lea    -0x30(%rbp),%rax
ffff80000010397f:	89 ce                	mov    %ecx,%esi
ffff800000103981:	48 89 c7             	mov    %rax,%rdi
ffff800000103984:	48 b8 7a 27 10 00 00 	movabs $0xffff80000010277a,%rax
ffff80000010398b:	80 ff ff 
ffff80000010398e:	ff d0                	callq  *%rax
ffff800000103990:	90                   	nop
ffff800000103991:	c9                   	leaveq 
ffff800000103992:	c3                   	retq   

ffff800000103993 <puti>:
ffff800000103993:	55                   	push   %rbp
ffff800000103994:	48 89 e5             	mov    %rsp,%rbp
ffff800000103997:	48 83 ec 10          	sub    $0x10,%rsp
ffff80000010399b:	89 7d fc             	mov    %edi,-0x4(%rbp)
ffff80000010399e:	89 75 f8             	mov    %esi,-0x8(%rbp)
ffff8000001039a1:	89 55 f4             	mov    %edx,-0xc(%rbp)
ffff8000001039a4:	8b 4d f4             	mov    -0xc(%rbp),%ecx
ffff8000001039a7:	8b 55 f8             	mov    -0x8(%rbp),%edx
ffff8000001039aa:	8b 45 fc             	mov    -0x4(%rbp),%eax
ffff8000001039ad:	41 89 c8             	mov    %ecx,%r8d
ffff8000001039b0:	89 d1                	mov    %edx,%ecx
ffff8000001039b2:	ba ff ff ff 00       	mov    $0xffffff,%edx
ffff8000001039b7:	be 00 00 00 00       	mov    $0x0,%esi
ffff8000001039bc:	89 c7                	mov    %eax,%edi
ffff8000001039be:	48 b8 01 38 10 00 00 	movabs $0xffff800000103801,%rax
ffff8000001039c5:	80 ff ff 
ffff8000001039c8:	ff d0                	callq  *%rax
ffff8000001039ca:	90                   	nop
ffff8000001039cb:	c9                   	leaveq 
ffff8000001039cc:	c3                   	retq   

ffff8000001039cd <putl_color>:
ffff8000001039cd:	55                   	push   %rbp
ffff8000001039ce:	48 89 e5             	mov    %rsp,%rbp
ffff8000001039d1:	48 83 ec 60          	sub    $0x60,%rsp
ffff8000001039d5:	48 89 7d b8          	mov    %rdi,-0x48(%rbp)
ffff8000001039d9:	89 75 b4             	mov    %esi,-0x4c(%rbp)
ffff8000001039dc:	89 55 b0             	mov    %edx,-0x50(%rbp)
ffff8000001039df:	89 4d ac             	mov    %ecx,-0x54(%rbp)
ffff8000001039e2:	44 89 45 a8          	mov    %r8d,-0x58(%rbp)
ffff8000001039e6:	c7 45 fc 00 00 00 00 	movl   $0x0,-0x4(%rbp)
ffff8000001039ed:	48 8b 45 b8          	mov    -0x48(%rbp),%rax
ffff8000001039f1:	48 89 45 e8          	mov    %rax,-0x18(%rbp)
ffff8000001039f5:	48 8b 45 b8          	mov    -0x48(%rbp),%rax
ffff8000001039f9:	48 c1 f8 3f          	sar    $0x3f,%rax
ffff8000001039fd:	48 31 45 b8          	xor    %rax,-0x48(%rbp)
ffff800000103a01:	48 29 45 b8          	sub    %rax,-0x48(%rbp)
ffff800000103a05:	eb 74                	jmp    ffff800000103a7b <putl_color+0xae>
ffff800000103a07:	48 8b 4d b8          	mov    -0x48(%rbp),%rcx
ffff800000103a0b:	48 ba 67 66 66 66 66 	movabs $0x6666666666666667,%rdx
ffff800000103a12:	66 66 66 
ffff800000103a15:	48 89 c8             	mov    %rcx,%rax
ffff800000103a18:	48 f7 ea             	imul   %rdx
ffff800000103a1b:	48 c1 fa 02          	sar    $0x2,%rdx
ffff800000103a1f:	48 89 c8             	mov    %rcx,%rax
ffff800000103a22:	48 c1 f8 3f          	sar    $0x3f,%rax
ffff800000103a26:	48 29 c2             	sub    %rax,%rdx
ffff800000103a29:	48 89 d0             	mov    %rdx,%rax
ffff800000103a2c:	48 c1 e0 02          	shl    $0x2,%rax
ffff800000103a30:	48 01 d0             	add    %rdx,%rax
ffff800000103a33:	48 01 c0             	add    %rax,%rax
ffff800000103a36:	48 29 c1             	sub    %rax,%rcx
ffff800000103a39:	48 89 ca             	mov    %rcx,%rdx
ffff800000103a3c:	89 d0                	mov    %edx,%eax
ffff800000103a3e:	8d 48 30             	lea    0x30(%rax),%ecx
ffff800000103a41:	8b 45 fc             	mov    -0x4(%rbp),%eax
ffff800000103a44:	8d 50 01             	lea    0x1(%rax),%edx
ffff800000103a47:	89 55 fc             	mov    %edx,-0x4(%rbp)
ffff800000103a4a:	89 ca                	mov    %ecx,%edx
ffff800000103a4c:	48 98                	cltq   
ffff800000103a4e:	88 54 05 c0          	mov    %dl,-0x40(%rbp,%rax,1)
ffff800000103a52:	48 8b 4d b8          	mov    -0x48(%rbp),%rcx
ffff800000103a56:	48 ba 67 66 66 66 66 	movabs $0x6666666666666667,%rdx
ffff800000103a5d:	66 66 66 
ffff800000103a60:	48 89 c8             	mov    %rcx,%rax
ffff800000103a63:	48 f7 ea             	imul   %rdx
ffff800000103a66:	48 c1 fa 02          	sar    $0x2,%rdx
ffff800000103a6a:	48 89 c8             	mov    %rcx,%rax
ffff800000103a6d:	48 c1 f8 3f          	sar    $0x3f,%rax
ffff800000103a71:	48 29 c2             	sub    %rax,%rdx
ffff800000103a74:	48 89 d0             	mov    %rdx,%rax
ffff800000103a77:	48 89 45 b8          	mov    %rax,-0x48(%rbp)
ffff800000103a7b:	48 8b 45 b8          	mov    -0x48(%rbp),%rax
ffff800000103a7f:	48 83 c0 09          	add    $0x9,%rax
ffff800000103a83:	48 83 f8 12          	cmp    $0x12,%rax
ffff800000103a87:	0f 87 7a ff ff ff    	ja     ffff800000103a07 <putl_color+0x3a>
ffff800000103a8d:	48 8b 4d b8          	mov    -0x48(%rbp),%rcx
ffff800000103a91:	48 ba 67 66 66 66 66 	movabs $0x6666666666666667,%rdx
ffff800000103a98:	66 66 66 
ffff800000103a9b:	48 89 c8             	mov    %rcx,%rax
ffff800000103a9e:	48 f7 ea             	imul   %rdx
ffff800000103aa1:	48 c1 fa 02          	sar    $0x2,%rdx
ffff800000103aa5:	48 89 c8             	mov    %rcx,%rax
ffff800000103aa8:	48 c1 f8 3f          	sar    $0x3f,%rax
ffff800000103aac:	48 29 c2             	sub    %rax,%rdx
ffff800000103aaf:	48 89 d0             	mov    %rdx,%rax
ffff800000103ab2:	48 c1 e0 02          	shl    $0x2,%rax
ffff800000103ab6:	48 01 d0             	add    %rdx,%rax
ffff800000103ab9:	48 01 c0             	add    %rax,%rax
ffff800000103abc:	48 29 c1             	sub    %rax,%rcx
ffff800000103abf:	48 89 ca             	mov    %rcx,%rdx
ffff800000103ac2:	89 d0                	mov    %edx,%eax
ffff800000103ac4:	8d 48 30             	lea    0x30(%rax),%ecx
ffff800000103ac7:	8b 45 fc             	mov    -0x4(%rbp),%eax
ffff800000103aca:	8d 50 01             	lea    0x1(%rax),%edx
ffff800000103acd:	89 55 fc             	mov    %edx,-0x4(%rbp)
ffff800000103ad0:	89 ca                	mov    %ecx,%edx
ffff800000103ad2:	48 98                	cltq   
ffff800000103ad4:	88 54 05 c0          	mov    %dl,-0x40(%rbp,%rax,1)
ffff800000103ad8:	eb 28                	jmp    ffff800000103b02 <putl_color+0x135>
ffff800000103ada:	83 7d a8 00          	cmpl   $0x0,-0x58(%rbp)
ffff800000103ade:	74 12                	je     ffff800000103af2 <putl_color+0x125>
ffff800000103ae0:	8b 45 fc             	mov    -0x4(%rbp),%eax
ffff800000103ae3:	8d 50 01             	lea    0x1(%rax),%edx
ffff800000103ae6:	89 55 fc             	mov    %edx,-0x4(%rbp)
ffff800000103ae9:	48 98                	cltq   
ffff800000103aeb:	c6 44 05 c0 30       	movb   $0x30,-0x40(%rbp,%rax,1)
ffff800000103af0:	eb 10                	jmp    ffff800000103b02 <putl_color+0x135>
ffff800000103af2:	8b 45 fc             	mov    -0x4(%rbp),%eax
ffff800000103af5:	8d 50 01             	lea    0x1(%rax),%edx
ffff800000103af8:	89 55 fc             	mov    %edx,-0x4(%rbp)
ffff800000103afb:	48 98                	cltq   
ffff800000103afd:	c6 44 05 c0 20       	movb   $0x20,-0x40(%rbp,%rax,1)
ffff800000103b02:	8b 45 ac             	mov    -0x54(%rbp),%eax
ffff800000103b05:	3b 45 fc             	cmp    -0x4(%rbp),%eax
ffff800000103b08:	7f d0                	jg     ffff800000103ada <putl_color+0x10d>
ffff800000103b0a:	48 83 7d e8 00       	cmpq   $0x0,-0x18(%rbp)
ffff800000103b0f:	79 10                	jns    ffff800000103b21 <putl_color+0x154>
ffff800000103b11:	8b 45 fc             	mov    -0x4(%rbp),%eax
ffff800000103b14:	8d 50 01             	lea    0x1(%rax),%edx
ffff800000103b17:	89 55 fc             	mov    %edx,-0x4(%rbp)
ffff800000103b1a:	48 98                	cltq   
ffff800000103b1c:	c6 44 05 c0 2d       	movb   $0x2d,-0x40(%rbp,%rax,1)
ffff800000103b21:	8b 45 fc             	mov    -0x4(%rbp),%eax
ffff800000103b24:	83 e8 01             	sub    $0x1,%eax
ffff800000103b27:	89 45 f4             	mov    %eax,-0xc(%rbp)
ffff800000103b2a:	c7 45 f8 00 00 00 00 	movl   $0x0,-0x8(%rbp)
ffff800000103b31:	eb 3d                	jmp    ffff800000103b70 <putl_color+0x1a3>
ffff800000103b33:	8b 45 fc             	mov    -0x4(%rbp),%eax
ffff800000103b36:	2b 45 f8             	sub    -0x8(%rbp),%eax
ffff800000103b39:	83 e8 01             	sub    $0x1,%eax
ffff800000103b3c:	89 45 f4             	mov    %eax,-0xc(%rbp)
ffff800000103b3f:	8b 45 f8             	mov    -0x8(%rbp),%eax
ffff800000103b42:	48 98                	cltq   
ffff800000103b44:	0f b6 44 05 c0       	movzbl -0x40(%rbp,%rax,1),%eax
ffff800000103b49:	88 45 e7             	mov    %al,-0x19(%rbp)
ffff800000103b4c:	8b 45 f4             	mov    -0xc(%rbp),%eax
ffff800000103b4f:	48 98                	cltq   
ffff800000103b51:	0f b6 54 05 c0       	movzbl -0x40(%rbp,%rax,1),%edx
ffff800000103b56:	8b 45 f8             	mov    -0x8(%rbp),%eax
ffff800000103b59:	48 98                	cltq   
ffff800000103b5b:	88 54 05 c0          	mov    %dl,-0x40(%rbp,%rax,1)
ffff800000103b5f:	8b 45 f4             	mov    -0xc(%rbp),%eax
ffff800000103b62:	48 98                	cltq   
ffff800000103b64:	0f b6 55 e7          	movzbl -0x19(%rbp),%edx
ffff800000103b68:	88 54 05 c0          	mov    %dl,-0x40(%rbp,%rax,1)
ffff800000103b6c:	83 45 f8 01          	addl   $0x1,-0x8(%rbp)
ffff800000103b70:	8b 45 f8             	mov    -0x8(%rbp),%eax
ffff800000103b73:	3b 45 f4             	cmp    -0xc(%rbp),%eax
ffff800000103b76:	7c bb                	jl     ffff800000103b33 <putl_color+0x166>
ffff800000103b78:	8b 45 fc             	mov    -0x4(%rbp),%eax
ffff800000103b7b:	48 98                	cltq   
ffff800000103b7d:	c6 44 05 c0 00       	movb   $0x0,-0x40(%rbp,%rax,1)
ffff800000103b82:	8b 55 b0             	mov    -0x50(%rbp),%edx
ffff800000103b85:	8b 4d b4             	mov    -0x4c(%rbp),%ecx
ffff800000103b88:	48 8d 45 c0          	lea    -0x40(%rbp),%rax
ffff800000103b8c:	89 ce                	mov    %ecx,%esi
ffff800000103b8e:	48 89 c7             	mov    %rax,%rdi
ffff800000103b91:	48 b8 7a 27 10 00 00 	movabs $0xffff80000010277a,%rax
ffff800000103b98:	80 ff ff 
ffff800000103b9b:	ff d0                	callq  *%rax
ffff800000103b9d:	90                   	nop
ffff800000103b9e:	c9                   	leaveq 
ffff800000103b9f:	c3                   	retq   

ffff800000103ba0 <putl>:
ffff800000103ba0:	55                   	push   %rbp
ffff800000103ba1:	48 89 e5             	mov    %rsp,%rbp
ffff800000103ba4:	48 83 ec 10          	sub    $0x10,%rsp
ffff800000103ba8:	48 89 7d f8          	mov    %rdi,-0x8(%rbp)
ffff800000103bac:	89 75 f4             	mov    %esi,-0xc(%rbp)
ffff800000103baf:	89 55 f0             	mov    %edx,-0x10(%rbp)
ffff800000103bb2:	8b 4d f0             	mov    -0x10(%rbp),%ecx
ffff800000103bb5:	8b 55 f4             	mov    -0xc(%rbp),%edx
ffff800000103bb8:	48 8b 45 f8          	mov    -0x8(%rbp),%rax
ffff800000103bbc:	41 89 c8             	mov    %ecx,%r8d
ffff800000103bbf:	89 d1                	mov    %edx,%ecx
ffff800000103bc1:	ba ff ff ff 00       	mov    $0xffffff,%edx
ffff800000103bc6:	be 00 00 00 00       	mov    $0x0,%esi
ffff800000103bcb:	48 89 c7             	mov    %rax,%rdi
ffff800000103bce:	48 b8 cd 39 10 00 00 	movabs $0xffff8000001039cd,%rax
ffff800000103bd5:	80 ff ff 
ffff800000103bd8:	ff d0                	callq  *%rax
ffff800000103bda:	90                   	nop
ffff800000103bdb:	c9                   	leaveq 
ffff800000103bdc:	c3                   	retq   

ffff800000103bdd <putx_color>:
ffff800000103bdd:	55                   	push   %rbp
ffff800000103bde:	48 89 e5             	mov    %rsp,%rbp
ffff800000103be1:	48 83 ec 50          	sub    $0x50,%rsp
ffff800000103be5:	48 89 7d c8          	mov    %rdi,-0x38(%rbp)
ffff800000103be9:	89 75 c4             	mov    %esi,-0x3c(%rbp)
ffff800000103bec:	89 55 c0             	mov    %edx,-0x40(%rbp)
ffff800000103bef:	89 4d bc             	mov    %ecx,-0x44(%rbp)
ffff800000103bf2:	44 89 45 b8          	mov    %r8d,-0x48(%rbp)
ffff800000103bf6:	44 89 4d b4          	mov    %r9d,-0x4c(%rbp)
ffff800000103bfa:	c7 45 fc 00 00 00 00 	movl   $0x0,-0x4(%rbp)
ffff800000103c01:	48 8b 45 c8          	mov    -0x38(%rbp),%rax
ffff800000103c05:	89 45 f0             	mov    %eax,-0x10(%rbp)
ffff800000103c08:	48 8b 45 c8          	mov    -0x38(%rbp),%rax
ffff800000103c0c:	48 c1 f8 3f          	sar    $0x3f,%rax
ffff800000103c10:	48 31 45 c8          	xor    %rax,-0x38(%rbp)
ffff800000103c14:	48 29 45 c8          	sub    %rax,-0x38(%rbp)
ffff800000103c18:	e9 af 00 00 00       	jmpq   ffff800000103ccc <putx_color+0xef>
ffff800000103c1d:	48 8b 45 c8          	mov    -0x38(%rbp),%rax
ffff800000103c21:	48 99                	cqto   
ffff800000103c23:	48 c1 ea 3c          	shr    $0x3c,%rdx
ffff800000103c27:	48 01 d0             	add    %rdx,%rax
ffff800000103c2a:	83 e0 0f             	and    $0xf,%eax
ffff800000103c2d:	48 29 d0             	sub    %rdx,%rax
ffff800000103c30:	48 83 f8 09          	cmp    $0x9,%rax
ffff800000103c34:	7f 29                	jg     ffff800000103c5f <putx_color+0x82>
ffff800000103c36:	48 8b 45 c8          	mov    -0x38(%rbp),%rax
ffff800000103c3a:	48 99                	cqto   
ffff800000103c3c:	48 c1 ea 3c          	shr    $0x3c,%rdx
ffff800000103c40:	48 01 d0             	add    %rdx,%rax
ffff800000103c43:	83 e0 0f             	and    $0xf,%eax
ffff800000103c46:	48 29 d0             	sub    %rdx,%rax
ffff800000103c49:	8d 48 30             	lea    0x30(%rax),%ecx
ffff800000103c4c:	8b 45 fc             	mov    -0x4(%rbp),%eax
ffff800000103c4f:	8d 50 01             	lea    0x1(%rax),%edx
ffff800000103c52:	89 55 fc             	mov    %edx,-0x4(%rbp)
ffff800000103c55:	89 ca                	mov    %ecx,%edx
ffff800000103c57:	48 98                	cltq   
ffff800000103c59:	88 54 05 d0          	mov    %dl,-0x30(%rbp,%rax,1)
ffff800000103c5d:	eb 56                	jmp    ffff800000103cb5 <putx_color+0xd8>
ffff800000103c5f:	83 7d bc 00          	cmpl   $0x0,-0x44(%rbp)
ffff800000103c63:	74 29                	je     ffff800000103c8e <putx_color+0xb1>
ffff800000103c65:	48 8b 45 c8          	mov    -0x38(%rbp),%rax
ffff800000103c69:	48 99                	cqto   
ffff800000103c6b:	48 c1 ea 3c          	shr    $0x3c,%rdx
ffff800000103c6f:	48 01 d0             	add    %rdx,%rax
ffff800000103c72:	83 e0 0f             	and    $0xf,%eax
ffff800000103c75:	48 29 d0             	sub    %rdx,%rax
ffff800000103c78:	8d 48 37             	lea    0x37(%rax),%ecx
ffff800000103c7b:	8b 45 fc             	mov    -0x4(%rbp),%eax
ffff800000103c7e:	8d 50 01             	lea    0x1(%rax),%edx
ffff800000103c81:	89 55 fc             	mov    %edx,-0x4(%rbp)
ffff800000103c84:	89 ca                	mov    %ecx,%edx
ffff800000103c86:	48 98                	cltq   
ffff800000103c88:	88 54 05 d0          	mov    %dl,-0x30(%rbp,%rax,1)
ffff800000103c8c:	eb 27                	jmp    ffff800000103cb5 <putx_color+0xd8>
ffff800000103c8e:	48 8b 45 c8          	mov    -0x38(%rbp),%rax
ffff800000103c92:	48 99                	cqto   
ffff800000103c94:	48 c1 ea 3c          	shr    $0x3c,%rdx
ffff800000103c98:	48 01 d0             	add    %rdx,%rax
ffff800000103c9b:	83 e0 0f             	and    $0xf,%eax
ffff800000103c9e:	48 29 d0             	sub    %rdx,%rax
ffff800000103ca1:	8d 48 57             	lea    0x57(%rax),%ecx
ffff800000103ca4:	8b 45 fc             	mov    -0x4(%rbp),%eax
ffff800000103ca7:	8d 50 01             	lea    0x1(%rax),%edx
ffff800000103caa:	89 55 fc             	mov    %edx,-0x4(%rbp)
ffff800000103cad:	89 ca                	mov    %ecx,%edx
ffff800000103caf:	48 98                	cltq   
ffff800000103cb1:	88 54 05 d0          	mov    %dl,-0x30(%rbp,%rax,1)
ffff800000103cb5:	48 8b 45 c8          	mov    -0x38(%rbp),%rax
ffff800000103cb9:	48 8d 50 0f          	lea    0xf(%rax),%rdx
ffff800000103cbd:	48 85 c0             	test   %rax,%rax
ffff800000103cc0:	48 0f 48 c2          	cmovs  %rdx,%rax
ffff800000103cc4:	48 c1 f8 04          	sar    $0x4,%rax
ffff800000103cc8:	48 89 45 c8          	mov    %rax,-0x38(%rbp)
ffff800000103ccc:	48 8b 45 c8          	mov    -0x38(%rbp),%rax
ffff800000103cd0:	48 83 c0 0f          	add    $0xf,%rax
ffff800000103cd4:	48 83 f8 1e          	cmp    $0x1e,%rax
ffff800000103cd8:	0f 87 3f ff ff ff    	ja     ffff800000103c1d <putx_color+0x40>
ffff800000103cde:	48 8b 45 c8          	mov    -0x38(%rbp),%rax
ffff800000103ce2:	48 99                	cqto   
ffff800000103ce4:	48 c1 ea 3c          	shr    $0x3c,%rdx
ffff800000103ce8:	48 01 d0             	add    %rdx,%rax
ffff800000103ceb:	83 e0 0f             	and    $0xf,%eax
ffff800000103cee:	48 29 d0             	sub    %rdx,%rax
ffff800000103cf1:	48 83 f8 09          	cmp    $0x9,%rax
ffff800000103cf5:	7f 2c                	jg     ffff800000103d23 <putx_color+0x146>
ffff800000103cf7:	48 8b 45 c8          	mov    -0x38(%rbp),%rax
ffff800000103cfb:	48 99                	cqto   
ffff800000103cfd:	48 c1 ea 3c          	shr    $0x3c,%rdx
ffff800000103d01:	48 01 d0             	add    %rdx,%rax
ffff800000103d04:	83 e0 0f             	and    $0xf,%eax
ffff800000103d07:	48 29 d0             	sub    %rdx,%rax
ffff800000103d0a:	8d 48 30             	lea    0x30(%rax),%ecx
ffff800000103d0d:	8b 45 fc             	mov    -0x4(%rbp),%eax
ffff800000103d10:	8d 50 01             	lea    0x1(%rax),%edx
ffff800000103d13:	89 55 fc             	mov    %edx,-0x4(%rbp)
ffff800000103d16:	89 ca                	mov    %ecx,%edx
ffff800000103d18:	48 98                	cltq   
ffff800000103d1a:	88 54 05 d0          	mov    %dl,-0x30(%rbp,%rax,1)
ffff800000103d1e:	e9 80 00 00 00       	jmpq   ffff800000103da3 <putx_color+0x1c6>
ffff800000103d23:	83 7d bc 00          	cmpl   $0x0,-0x44(%rbp)
ffff800000103d27:	74 29                	je     ffff800000103d52 <putx_color+0x175>
ffff800000103d29:	48 8b 45 c8          	mov    -0x38(%rbp),%rax
ffff800000103d2d:	48 99                	cqto   
ffff800000103d2f:	48 c1 ea 3c          	shr    $0x3c,%rdx
ffff800000103d33:	48 01 d0             	add    %rdx,%rax
ffff800000103d36:	83 e0 0f             	and    $0xf,%eax
ffff800000103d39:	48 29 d0             	sub    %rdx,%rax
ffff800000103d3c:	8d 48 37             	lea    0x37(%rax),%ecx
ffff800000103d3f:	8b 45 fc             	mov    -0x4(%rbp),%eax
ffff800000103d42:	8d 50 01             	lea    0x1(%rax),%edx
ffff800000103d45:	89 55 fc             	mov    %edx,-0x4(%rbp)
ffff800000103d48:	89 ca                	mov    %ecx,%edx
ffff800000103d4a:	48 98                	cltq   
ffff800000103d4c:	88 54 05 d0          	mov    %dl,-0x30(%rbp,%rax,1)
ffff800000103d50:	eb 51                	jmp    ffff800000103da3 <putx_color+0x1c6>
ffff800000103d52:	48 8b 45 c8          	mov    -0x38(%rbp),%rax
ffff800000103d56:	48 99                	cqto   
ffff800000103d58:	48 c1 ea 3c          	shr    $0x3c,%rdx
ffff800000103d5c:	48 01 d0             	add    %rdx,%rax
ffff800000103d5f:	83 e0 0f             	and    $0xf,%eax
ffff800000103d62:	48 29 d0             	sub    %rdx,%rax
ffff800000103d65:	8d 48 57             	lea    0x57(%rax),%ecx
ffff800000103d68:	8b 45 fc             	mov    -0x4(%rbp),%eax
ffff800000103d6b:	8d 50 01             	lea    0x1(%rax),%edx
ffff800000103d6e:	89 55 fc             	mov    %edx,-0x4(%rbp)
ffff800000103d71:	89 ca                	mov    %ecx,%edx
ffff800000103d73:	48 98                	cltq   
ffff800000103d75:	88 54 05 d0          	mov    %dl,-0x30(%rbp,%rax,1)
ffff800000103d79:	eb 28                	jmp    ffff800000103da3 <putx_color+0x1c6>
ffff800000103d7b:	83 7d b4 00          	cmpl   $0x0,-0x4c(%rbp)
ffff800000103d7f:	74 12                	je     ffff800000103d93 <putx_color+0x1b6>
ffff800000103d81:	8b 45 fc             	mov    -0x4(%rbp),%eax
ffff800000103d84:	8d 50 01             	lea    0x1(%rax),%edx
ffff800000103d87:	89 55 fc             	mov    %edx,-0x4(%rbp)
ffff800000103d8a:	48 98                	cltq   
ffff800000103d8c:	c6 44 05 d0 30       	movb   $0x30,-0x30(%rbp,%rax,1)
ffff800000103d91:	eb 10                	jmp    ffff800000103da3 <putx_color+0x1c6>
ffff800000103d93:	8b 45 fc             	mov    -0x4(%rbp),%eax
ffff800000103d96:	8d 50 01             	lea    0x1(%rax),%edx
ffff800000103d99:	89 55 fc             	mov    %edx,-0x4(%rbp)
ffff800000103d9c:	48 98                	cltq   
ffff800000103d9e:	c6 44 05 d0 20       	movb   $0x20,-0x30(%rbp,%rax,1)
ffff800000103da3:	8b 45 b8             	mov    -0x48(%rbp),%eax
ffff800000103da6:	3b 45 fc             	cmp    -0x4(%rbp),%eax
ffff800000103da9:	7f d0                	jg     ffff800000103d7b <putx_color+0x19e>
ffff800000103dab:	83 7d f0 00          	cmpl   $0x0,-0x10(%rbp)
ffff800000103daf:	79 10                	jns    ffff800000103dc1 <putx_color+0x1e4>
ffff800000103db1:	8b 45 fc             	mov    -0x4(%rbp),%eax
ffff800000103db4:	8d 50 01             	lea    0x1(%rax),%edx
ffff800000103db7:	89 55 fc             	mov    %edx,-0x4(%rbp)
ffff800000103dba:	48 98                	cltq   
ffff800000103dbc:	c6 44 05 d0 2d       	movb   $0x2d,-0x30(%rbp,%rax,1)
ffff800000103dc1:	8b 45 fc             	mov    -0x4(%rbp),%eax
ffff800000103dc4:	83 e8 01             	sub    $0x1,%eax
ffff800000103dc7:	89 45 f4             	mov    %eax,-0xc(%rbp)
ffff800000103dca:	c7 45 f8 00 00 00 00 	movl   $0x0,-0x8(%rbp)
ffff800000103dd1:	eb 3d                	jmp    ffff800000103e10 <putx_color+0x233>
ffff800000103dd3:	8b 45 fc             	mov    -0x4(%rbp),%eax
ffff800000103dd6:	2b 45 f8             	sub    -0x8(%rbp),%eax
ffff800000103dd9:	83 e8 01             	sub    $0x1,%eax
ffff800000103ddc:	89 45 f4             	mov    %eax,-0xc(%rbp)
ffff800000103ddf:	8b 45 f8             	mov    -0x8(%rbp),%eax
ffff800000103de2:	48 98                	cltq   
ffff800000103de4:	0f b6 44 05 d0       	movzbl -0x30(%rbp,%rax,1),%eax
ffff800000103de9:	88 45 ef             	mov    %al,-0x11(%rbp)
ffff800000103dec:	8b 45 f4             	mov    -0xc(%rbp),%eax
ffff800000103def:	48 98                	cltq   
ffff800000103df1:	0f b6 54 05 d0       	movzbl -0x30(%rbp,%rax,1),%edx
ffff800000103df6:	8b 45 f8             	mov    -0x8(%rbp),%eax
ffff800000103df9:	48 98                	cltq   
ffff800000103dfb:	88 54 05 d0          	mov    %dl,-0x30(%rbp,%rax,1)
ffff800000103dff:	8b 45 f4             	mov    -0xc(%rbp),%eax
ffff800000103e02:	48 98                	cltq   
ffff800000103e04:	0f b6 55 ef          	movzbl -0x11(%rbp),%edx
ffff800000103e08:	88 54 05 d0          	mov    %dl,-0x30(%rbp,%rax,1)
ffff800000103e0c:	83 45 f8 01          	addl   $0x1,-0x8(%rbp)
ffff800000103e10:	8b 45 f8             	mov    -0x8(%rbp),%eax
ffff800000103e13:	3b 45 f4             	cmp    -0xc(%rbp),%eax
ffff800000103e16:	7c bb                	jl     ffff800000103dd3 <putx_color+0x1f6>
ffff800000103e18:	8b 45 fc             	mov    -0x4(%rbp),%eax
ffff800000103e1b:	48 98                	cltq   
ffff800000103e1d:	c6 44 05 d0 00       	movb   $0x0,-0x30(%rbp,%rax,1)
ffff800000103e22:	8b 55 c0             	mov    -0x40(%rbp),%edx
ffff800000103e25:	8b 4d c4             	mov    -0x3c(%rbp),%ecx
ffff800000103e28:	48 8d 45 d0          	lea    -0x30(%rbp),%rax
ffff800000103e2c:	89 ce                	mov    %ecx,%esi
ffff800000103e2e:	48 89 c7             	mov    %rax,%rdi
ffff800000103e31:	48 b8 7a 27 10 00 00 	movabs $0xffff80000010277a,%rax
ffff800000103e38:	80 ff ff 
ffff800000103e3b:	ff d0                	callq  *%rax
ffff800000103e3d:	90                   	nop
ffff800000103e3e:	c9                   	leaveq 
ffff800000103e3f:	c3                   	retq   

ffff800000103e40 <putx>:
ffff800000103e40:	55                   	push   %rbp
ffff800000103e41:	48 89 e5             	mov    %rsp,%rbp
ffff800000103e44:	48 83 ec 20          	sub    $0x20,%rsp
ffff800000103e48:	48 89 7d f8          	mov    %rdi,-0x8(%rbp)
ffff800000103e4c:	89 75 f4             	mov    %esi,-0xc(%rbp)
ffff800000103e4f:	89 55 f0             	mov    %edx,-0x10(%rbp)
ffff800000103e52:	89 4d ec             	mov    %ecx,-0x14(%rbp)
ffff800000103e55:	8b 75 ec             	mov    -0x14(%rbp),%esi
ffff800000103e58:	8b 4d f0             	mov    -0x10(%rbp),%ecx
ffff800000103e5b:	8b 55 f4             	mov    -0xc(%rbp),%edx
ffff800000103e5e:	48 8b 45 f8          	mov    -0x8(%rbp),%rax
ffff800000103e62:	41 89 f1             	mov    %esi,%r9d
ffff800000103e65:	41 89 c8             	mov    %ecx,%r8d
ffff800000103e68:	89 d1                	mov    %edx,%ecx
ffff800000103e6a:	ba ff ff ff 00       	mov    $0xffffff,%edx
ffff800000103e6f:	be 00 00 00 00       	mov    $0x0,%esi
ffff800000103e74:	48 89 c7             	mov    %rax,%rdi
ffff800000103e77:	48 b8 dd 3b 10 00 00 	movabs $0xffff800000103bdd,%rax
ffff800000103e7e:	80 ff ff 
ffff800000103e81:	ff d0                	callq  *%rax
ffff800000103e83:	90                   	nop
ffff800000103e84:	c9                   	leaveq 
ffff800000103e85:	c3                   	retq   

ffff800000103e86 <putui_color>:
ffff800000103e86:	55                   	push   %rbp
ffff800000103e87:	48 89 e5             	mov    %rsp,%rbp
ffff800000103e8a:	48 83 ec 50          	sub    $0x50,%rsp
ffff800000103e8e:	89 7d cc             	mov    %edi,-0x34(%rbp)
ffff800000103e91:	89 75 c8             	mov    %esi,-0x38(%rbp)
ffff800000103e94:	89 55 c4             	mov    %edx,-0x3c(%rbp)
ffff800000103e97:	89 4d c0             	mov    %ecx,-0x40(%rbp)
ffff800000103e9a:	44 89 45 bc          	mov    %r8d,-0x44(%rbp)
ffff800000103e9e:	c7 45 fc 00 00 00 00 	movl   $0x0,-0x4(%rbp)
ffff800000103ea5:	eb 44                	jmp    ffff800000103eeb <putui_color+0x65>
ffff800000103ea7:	8b 4d cc             	mov    -0x34(%rbp),%ecx
ffff800000103eaa:	ba cd cc cc cc       	mov    $0xcccccccd,%edx
ffff800000103eaf:	89 c8                	mov    %ecx,%eax
ffff800000103eb1:	f7 e2                	mul    %edx
ffff800000103eb3:	c1 ea 03             	shr    $0x3,%edx
ffff800000103eb6:	89 d0                	mov    %edx,%eax
ffff800000103eb8:	c1 e0 02             	shl    $0x2,%eax
ffff800000103ebb:	01 d0                	add    %edx,%eax
ffff800000103ebd:	01 c0                	add    %eax,%eax
ffff800000103ebf:	29 c1                	sub    %eax,%ecx
ffff800000103ec1:	89 ca                	mov    %ecx,%edx
ffff800000103ec3:	89 d0                	mov    %edx,%eax
ffff800000103ec5:	8d 48 30             	lea    0x30(%rax),%ecx
ffff800000103ec8:	8b 45 fc             	mov    -0x4(%rbp),%eax
ffff800000103ecb:	8d 50 01             	lea    0x1(%rax),%edx
ffff800000103ece:	89 55 fc             	mov    %edx,-0x4(%rbp)
ffff800000103ed1:	89 ca                	mov    %ecx,%edx
ffff800000103ed3:	89 c0                	mov    %eax,%eax
ffff800000103ed5:	88 54 05 d0          	mov    %dl,-0x30(%rbp,%rax,1)
ffff800000103ed9:	8b 45 cc             	mov    -0x34(%rbp),%eax
ffff800000103edc:	ba cd cc cc cc       	mov    $0xcccccccd,%edx
ffff800000103ee1:	f7 e2                	mul    %edx
ffff800000103ee3:	89 d0                	mov    %edx,%eax
ffff800000103ee5:	c1 e8 03             	shr    $0x3,%eax
ffff800000103ee8:	89 45 cc             	mov    %eax,-0x34(%rbp)
ffff800000103eeb:	83 7d cc 09          	cmpl   $0x9,-0x34(%rbp)
ffff800000103eef:	77 b6                	ja     ffff800000103ea7 <putui_color+0x21>
ffff800000103ef1:	8b 4d cc             	mov    -0x34(%rbp),%ecx
ffff800000103ef4:	ba cd cc cc cc       	mov    $0xcccccccd,%edx
ffff800000103ef9:	89 c8                	mov    %ecx,%eax
ffff800000103efb:	f7 e2                	mul    %edx
ffff800000103efd:	c1 ea 03             	shr    $0x3,%edx
ffff800000103f00:	89 d0                	mov    %edx,%eax
ffff800000103f02:	c1 e0 02             	shl    $0x2,%eax
ffff800000103f05:	01 d0                	add    %edx,%eax
ffff800000103f07:	01 c0                	add    %eax,%eax
ffff800000103f09:	29 c1                	sub    %eax,%ecx
ffff800000103f0b:	89 ca                	mov    %ecx,%edx
ffff800000103f0d:	89 d0                	mov    %edx,%eax
ffff800000103f0f:	8d 48 30             	lea    0x30(%rax),%ecx
ffff800000103f12:	8b 45 fc             	mov    -0x4(%rbp),%eax
ffff800000103f15:	8d 50 01             	lea    0x1(%rax),%edx
ffff800000103f18:	89 55 fc             	mov    %edx,-0x4(%rbp)
ffff800000103f1b:	89 ca                	mov    %ecx,%edx
ffff800000103f1d:	89 c0                	mov    %eax,%eax
ffff800000103f1f:	88 54 05 d0          	mov    %dl,-0x30(%rbp,%rax,1)
ffff800000103f23:	eb 28                	jmp    ffff800000103f4d <putui_color+0xc7>
ffff800000103f25:	83 7d bc 00          	cmpl   $0x0,-0x44(%rbp)
ffff800000103f29:	74 12                	je     ffff800000103f3d <putui_color+0xb7>
ffff800000103f2b:	8b 45 fc             	mov    -0x4(%rbp),%eax
ffff800000103f2e:	8d 50 01             	lea    0x1(%rax),%edx
ffff800000103f31:	89 55 fc             	mov    %edx,-0x4(%rbp)
ffff800000103f34:	89 c0                	mov    %eax,%eax
ffff800000103f36:	c6 44 05 d0 30       	movb   $0x30,-0x30(%rbp,%rax,1)
ffff800000103f3b:	eb 10                	jmp    ffff800000103f4d <putui_color+0xc7>
ffff800000103f3d:	8b 45 fc             	mov    -0x4(%rbp),%eax
ffff800000103f40:	8d 50 01             	lea    0x1(%rax),%edx
ffff800000103f43:	89 55 fc             	mov    %edx,-0x4(%rbp)
ffff800000103f46:	89 c0                	mov    %eax,%eax
ffff800000103f48:	c6 44 05 d0 20       	movb   $0x20,-0x30(%rbp,%rax,1)
ffff800000103f4d:	8b 45 c0             	mov    -0x40(%rbp),%eax
ffff800000103f50:	39 45 fc             	cmp    %eax,-0x4(%rbp)
ffff800000103f53:	72 d0                	jb     ffff800000103f25 <putui_color+0x9f>
ffff800000103f55:	8b 45 fc             	mov    -0x4(%rbp),%eax
ffff800000103f58:	83 e8 01             	sub    $0x1,%eax
ffff800000103f5b:	89 45 f4             	mov    %eax,-0xc(%rbp)
ffff800000103f5e:	c7 45 f8 00 00 00 00 	movl   $0x0,-0x8(%rbp)
ffff800000103f65:	eb 39                	jmp    ffff800000103fa0 <putui_color+0x11a>
ffff800000103f67:	8b 45 fc             	mov    -0x4(%rbp),%eax
ffff800000103f6a:	2b 45 f8             	sub    -0x8(%rbp),%eax
ffff800000103f6d:	83 e8 01             	sub    $0x1,%eax
ffff800000103f70:	89 45 f4             	mov    %eax,-0xc(%rbp)
ffff800000103f73:	8b 45 f8             	mov    -0x8(%rbp),%eax
ffff800000103f76:	0f b6 44 05 d0       	movzbl -0x30(%rbp,%rax,1),%eax
ffff800000103f7b:	88 45 f3             	mov    %al,-0xd(%rbp)
ffff800000103f7e:	8b 45 f4             	mov    -0xc(%rbp),%eax
ffff800000103f81:	48 98                	cltq   
ffff800000103f83:	0f b6 54 05 d0       	movzbl -0x30(%rbp,%rax,1),%edx
ffff800000103f88:	8b 45 f8             	mov    -0x8(%rbp),%eax
ffff800000103f8b:	88 54 05 d0          	mov    %dl,-0x30(%rbp,%rax,1)
ffff800000103f8f:	8b 45 f4             	mov    -0xc(%rbp),%eax
ffff800000103f92:	48 98                	cltq   
ffff800000103f94:	0f b6 55 f3          	movzbl -0xd(%rbp),%edx
ffff800000103f98:	88 54 05 d0          	mov    %dl,-0x30(%rbp,%rax,1)
ffff800000103f9c:	83 45 f8 01          	addl   $0x1,-0x8(%rbp)
ffff800000103fa0:	8b 45 f4             	mov    -0xc(%rbp),%eax
ffff800000103fa3:	39 45 f8             	cmp    %eax,-0x8(%rbp)
ffff800000103fa6:	72 bf                	jb     ffff800000103f67 <putui_color+0xe1>
ffff800000103fa8:	8b 45 fc             	mov    -0x4(%rbp),%eax
ffff800000103fab:	c6 44 05 d0 00       	movb   $0x0,-0x30(%rbp,%rax,1)
ffff800000103fb0:	8b 55 c4             	mov    -0x3c(%rbp),%edx
ffff800000103fb3:	8b 4d c8             	mov    -0x38(%rbp),%ecx
ffff800000103fb6:	48 8d 45 d0          	lea    -0x30(%rbp),%rax
ffff800000103fba:	89 ce                	mov    %ecx,%esi
ffff800000103fbc:	48 89 c7             	mov    %rax,%rdi
ffff800000103fbf:	48 b8 7a 27 10 00 00 	movabs $0xffff80000010277a,%rax
ffff800000103fc6:	80 ff ff 
ffff800000103fc9:	ff d0                	callq  *%rax
ffff800000103fcb:	90                   	nop
ffff800000103fcc:	c9                   	leaveq 
ffff800000103fcd:	c3                   	retq   

ffff800000103fce <putui>:
ffff800000103fce:	55                   	push   %rbp
ffff800000103fcf:	48 89 e5             	mov    %rsp,%rbp
ffff800000103fd2:	48 83 ec 10          	sub    $0x10,%rsp
ffff800000103fd6:	89 7d fc             	mov    %edi,-0x4(%rbp)
ffff800000103fd9:	89 75 f8             	mov    %esi,-0x8(%rbp)
ffff800000103fdc:	89 55 f4             	mov    %edx,-0xc(%rbp)
ffff800000103fdf:	8b 4d f4             	mov    -0xc(%rbp),%ecx
ffff800000103fe2:	8b 55 f8             	mov    -0x8(%rbp),%edx
ffff800000103fe5:	8b 45 fc             	mov    -0x4(%rbp),%eax
ffff800000103fe8:	41 89 c8             	mov    %ecx,%r8d
ffff800000103feb:	89 d1                	mov    %edx,%ecx
ffff800000103fed:	ba ff ff ff 00       	mov    $0xffffff,%edx
ffff800000103ff2:	be 00 00 00 00       	mov    $0x0,%esi
ffff800000103ff7:	89 c7                	mov    %eax,%edi
ffff800000103ff9:	48 b8 86 3e 10 00 00 	movabs $0xffff800000103e86,%rax
ffff800000104000:	80 ff ff 
ffff800000104003:	ff d0                	callq  *%rax
ffff800000104005:	90                   	nop
ffff800000104006:	c9                   	leaveq 
ffff800000104007:	c3                   	retq   

ffff800000104008 <putul_color>:
ffff800000104008:	55                   	push   %rbp
ffff800000104009:	48 89 e5             	mov    %rsp,%rbp
ffff80000010400c:	48 83 ec 50          	sub    $0x50,%rsp
ffff800000104010:	48 89 7d c8          	mov    %rdi,-0x38(%rbp)
ffff800000104014:	89 75 c4             	mov    %esi,-0x3c(%rbp)
ffff800000104017:	89 55 c0             	mov    %edx,-0x40(%rbp)
ffff80000010401a:	89 4d bc             	mov    %ecx,-0x44(%rbp)
ffff80000010401d:	44 89 45 b8          	mov    %r8d,-0x48(%rbp)
ffff800000104021:	c7 45 fc 00 00 00 00 	movl   $0x0,-0x4(%rbp)
ffff800000104028:	eb 5d                	jmp    ffff800000104087 <putul_color+0x7f>
ffff80000010402a:	48 8b 4d c8          	mov    -0x38(%rbp),%rcx
ffff80000010402e:	48 ba cd cc cc cc cc 	movabs $0xcccccccccccccccd,%rdx
ffff800000104035:	cc cc cc 
ffff800000104038:	48 89 c8             	mov    %rcx,%rax
ffff80000010403b:	48 f7 e2             	mul    %rdx
ffff80000010403e:	48 c1 ea 03          	shr    $0x3,%rdx
ffff800000104042:	48 89 d0             	mov    %rdx,%rax
ffff800000104045:	48 c1 e0 02          	shl    $0x2,%rax
ffff800000104049:	48 01 d0             	add    %rdx,%rax
ffff80000010404c:	48 01 c0             	add    %rax,%rax
ffff80000010404f:	48 29 c1             	sub    %rax,%rcx
ffff800000104052:	48 89 ca             	mov    %rcx,%rdx
ffff800000104055:	89 d0                	mov    %edx,%eax
ffff800000104057:	8d 48 30             	lea    0x30(%rax),%ecx
ffff80000010405a:	8b 45 fc             	mov    -0x4(%rbp),%eax
ffff80000010405d:	8d 50 01             	lea    0x1(%rax),%edx
ffff800000104060:	89 55 fc             	mov    %edx,-0x4(%rbp)
ffff800000104063:	89 ca                	mov    %ecx,%edx
ffff800000104065:	89 c0                	mov    %eax,%eax
ffff800000104067:	88 54 05 d0          	mov    %dl,-0x30(%rbp,%rax,1)
ffff80000010406b:	48 8b 45 c8          	mov    -0x38(%rbp),%rax
ffff80000010406f:	48 ba cd cc cc cc cc 	movabs $0xcccccccccccccccd,%rdx
ffff800000104076:	cc cc cc 
ffff800000104079:	48 f7 e2             	mul    %rdx
ffff80000010407c:	48 89 d0             	mov    %rdx,%rax
ffff80000010407f:	48 c1 e8 03          	shr    $0x3,%rax
ffff800000104083:	48 89 45 c8          	mov    %rax,-0x38(%rbp)
ffff800000104087:	48 83 7d c8 09       	cmpq   $0x9,-0x38(%rbp)
ffff80000010408c:	77 9c                	ja     ffff80000010402a <putul_color+0x22>
ffff80000010408e:	48 8b 4d c8          	mov    -0x38(%rbp),%rcx
ffff800000104092:	48 ba cd cc cc cc cc 	movabs $0xcccccccccccccccd,%rdx
ffff800000104099:	cc cc cc 
ffff80000010409c:	48 89 c8             	mov    %rcx,%rax
ffff80000010409f:	48 f7 e2             	mul    %rdx
ffff8000001040a2:	48 c1 ea 03          	shr    $0x3,%rdx
ffff8000001040a6:	48 89 d0             	mov    %rdx,%rax
ffff8000001040a9:	48 c1 e0 02          	shl    $0x2,%rax
ffff8000001040ad:	48 01 d0             	add    %rdx,%rax
ffff8000001040b0:	48 01 c0             	add    %rax,%rax
ffff8000001040b3:	48 29 c1             	sub    %rax,%rcx
ffff8000001040b6:	48 89 ca             	mov    %rcx,%rdx
ffff8000001040b9:	89 d0                	mov    %edx,%eax
ffff8000001040bb:	8d 48 30             	lea    0x30(%rax),%ecx
ffff8000001040be:	8b 45 fc             	mov    -0x4(%rbp),%eax
ffff8000001040c1:	8d 50 01             	lea    0x1(%rax),%edx
ffff8000001040c4:	89 55 fc             	mov    %edx,-0x4(%rbp)
ffff8000001040c7:	89 ca                	mov    %ecx,%edx
ffff8000001040c9:	89 c0                	mov    %eax,%eax
ffff8000001040cb:	88 54 05 d0          	mov    %dl,-0x30(%rbp,%rax,1)
ffff8000001040cf:	eb 28                	jmp    ffff8000001040f9 <putul_color+0xf1>
ffff8000001040d1:	83 7d b8 00          	cmpl   $0x0,-0x48(%rbp)
ffff8000001040d5:	74 12                	je     ffff8000001040e9 <putul_color+0xe1>
ffff8000001040d7:	8b 45 fc             	mov    -0x4(%rbp),%eax
ffff8000001040da:	8d 50 01             	lea    0x1(%rax),%edx
ffff8000001040dd:	89 55 fc             	mov    %edx,-0x4(%rbp)
ffff8000001040e0:	89 c0                	mov    %eax,%eax
ffff8000001040e2:	c6 44 05 d0 30       	movb   $0x30,-0x30(%rbp,%rax,1)
ffff8000001040e7:	eb 10                	jmp    ffff8000001040f9 <putul_color+0xf1>
ffff8000001040e9:	8b 45 fc             	mov    -0x4(%rbp),%eax
ffff8000001040ec:	8d 50 01             	lea    0x1(%rax),%edx
ffff8000001040ef:	89 55 fc             	mov    %edx,-0x4(%rbp)
ffff8000001040f2:	89 c0                	mov    %eax,%eax
ffff8000001040f4:	c6 44 05 d0 20       	movb   $0x20,-0x30(%rbp,%rax,1)
ffff8000001040f9:	8b 45 bc             	mov    -0x44(%rbp),%eax
ffff8000001040fc:	39 45 fc             	cmp    %eax,-0x4(%rbp)
ffff8000001040ff:	72 d0                	jb     ffff8000001040d1 <putul_color+0xc9>
ffff800000104101:	8b 45 fc             	mov    -0x4(%rbp),%eax
ffff800000104104:	83 e8 01             	sub    $0x1,%eax
ffff800000104107:	89 45 f4             	mov    %eax,-0xc(%rbp)
ffff80000010410a:	c7 45 f8 00 00 00 00 	movl   $0x0,-0x8(%rbp)
ffff800000104111:	eb 39                	jmp    ffff80000010414c <putul_color+0x144>
ffff800000104113:	8b 45 fc             	mov    -0x4(%rbp),%eax
ffff800000104116:	2b 45 f8             	sub    -0x8(%rbp),%eax
ffff800000104119:	83 e8 01             	sub    $0x1,%eax
ffff80000010411c:	89 45 f4             	mov    %eax,-0xc(%rbp)
ffff80000010411f:	8b 45 f8             	mov    -0x8(%rbp),%eax
ffff800000104122:	0f b6 44 05 d0       	movzbl -0x30(%rbp,%rax,1),%eax
ffff800000104127:	88 45 f3             	mov    %al,-0xd(%rbp)
ffff80000010412a:	8b 45 f4             	mov    -0xc(%rbp),%eax
ffff80000010412d:	48 98                	cltq   
ffff80000010412f:	0f b6 54 05 d0       	movzbl -0x30(%rbp,%rax,1),%edx
ffff800000104134:	8b 45 f8             	mov    -0x8(%rbp),%eax
ffff800000104137:	88 54 05 d0          	mov    %dl,-0x30(%rbp,%rax,1)
ffff80000010413b:	8b 45 f4             	mov    -0xc(%rbp),%eax
ffff80000010413e:	48 98                	cltq   
ffff800000104140:	0f b6 55 f3          	movzbl -0xd(%rbp),%edx
ffff800000104144:	88 54 05 d0          	mov    %dl,-0x30(%rbp,%rax,1)
ffff800000104148:	83 45 f8 01          	addl   $0x1,-0x8(%rbp)
ffff80000010414c:	8b 45 f4             	mov    -0xc(%rbp),%eax
ffff80000010414f:	39 45 f8             	cmp    %eax,-0x8(%rbp)
ffff800000104152:	72 bf                	jb     ffff800000104113 <putul_color+0x10b>
ffff800000104154:	8b 45 fc             	mov    -0x4(%rbp),%eax
ffff800000104157:	c6 44 05 d0 00       	movb   $0x0,-0x30(%rbp,%rax,1)
ffff80000010415c:	8b 55 c0             	mov    -0x40(%rbp),%edx
ffff80000010415f:	8b 4d c4             	mov    -0x3c(%rbp),%ecx
ffff800000104162:	48 8d 45 d0          	lea    -0x30(%rbp),%rax
ffff800000104166:	89 ce                	mov    %ecx,%esi
ffff800000104168:	48 89 c7             	mov    %rax,%rdi
ffff80000010416b:	48 b8 7a 27 10 00 00 	movabs $0xffff80000010277a,%rax
ffff800000104172:	80 ff ff 
ffff800000104175:	ff d0                	callq  *%rax
ffff800000104177:	90                   	nop
ffff800000104178:	c9                   	leaveq 
ffff800000104179:	c3                   	retq   

ffff80000010417a <putul>:
ffff80000010417a:	55                   	push   %rbp
ffff80000010417b:	48 89 e5             	mov    %rsp,%rbp
ffff80000010417e:	48 83 ec 10          	sub    $0x10,%rsp
ffff800000104182:	48 89 7d f8          	mov    %rdi,-0x8(%rbp)
ffff800000104186:	89 75 f4             	mov    %esi,-0xc(%rbp)
ffff800000104189:	89 55 f0             	mov    %edx,-0x10(%rbp)
ffff80000010418c:	8b 4d f0             	mov    -0x10(%rbp),%ecx
ffff80000010418f:	8b 55 f4             	mov    -0xc(%rbp),%edx
ffff800000104192:	48 8b 45 f8          	mov    -0x8(%rbp),%rax
ffff800000104196:	41 89 c8             	mov    %ecx,%r8d
ffff800000104199:	89 d1                	mov    %edx,%ecx
ffff80000010419b:	ba ff ff ff 00       	mov    $0xffffff,%edx
ffff8000001041a0:	be 00 00 00 00       	mov    $0x0,%esi
ffff8000001041a5:	48 89 c7             	mov    %rax,%rdi
ffff8000001041a8:	48 b8 08 40 10 00 00 	movabs $0xffff800000104008,%rax
ffff8000001041af:	80 ff ff 
ffff8000001041b2:	ff d0                	callq  *%rax
ffff8000001041b4:	90                   	nop
ffff8000001041b5:	c9                   	leaveq 
ffff8000001041b6:	c3                   	retq   

ffff8000001041b7 <putux_color>:
ffff8000001041b7:	55                   	push   %rbp
ffff8000001041b8:	48 89 e5             	mov    %rsp,%rbp
ffff8000001041bb:	48 83 ec 50          	sub    $0x50,%rsp
ffff8000001041bf:	48 89 7d c8          	mov    %rdi,-0x38(%rbp)
ffff8000001041c3:	89 75 c4             	mov    %esi,-0x3c(%rbp)
ffff8000001041c6:	89 55 c0             	mov    %edx,-0x40(%rbp)
ffff8000001041c9:	89 4d bc             	mov    %ecx,-0x44(%rbp)
ffff8000001041cc:	44 89 45 b8          	mov    %r8d,-0x48(%rbp)
ffff8000001041d0:	44 89 4d b4          	mov    %r9d,-0x4c(%rbp)
ffff8000001041d4:	c7 45 fc 00 00 00 00 	movl   $0x0,-0x4(%rbp)
ffff8000001041db:	eb 74                	jmp    ffff800000104251 <putux_color+0x9a>
ffff8000001041dd:	48 8b 45 c8          	mov    -0x38(%rbp),%rax
ffff8000001041e1:	83 e0 0f             	and    $0xf,%eax
ffff8000001041e4:	48 83 f8 09          	cmp    $0x9,%rax
ffff8000001041e8:	77 1d                	ja     ffff800000104207 <putux_color+0x50>
ffff8000001041ea:	48 8b 45 c8          	mov    -0x38(%rbp),%rax
ffff8000001041ee:	83 e0 0f             	and    $0xf,%eax
ffff8000001041f1:	8d 48 30             	lea    0x30(%rax),%ecx
ffff8000001041f4:	8b 45 fc             	mov    -0x4(%rbp),%eax
ffff8000001041f7:	8d 50 01             	lea    0x1(%rax),%edx
ffff8000001041fa:	89 55 fc             	mov    %edx,-0x4(%rbp)
ffff8000001041fd:	89 ca                	mov    %ecx,%edx
ffff8000001041ff:	89 c0                	mov    %eax,%eax
ffff800000104201:	88 54 05 d0          	mov    %dl,-0x30(%rbp,%rax,1)
ffff800000104205:	eb 3e                	jmp    ffff800000104245 <putux_color+0x8e>
ffff800000104207:	83 7d bc 00          	cmpl   $0x0,-0x44(%rbp)
ffff80000010420b:	74 1d                	je     ffff80000010422a <putux_color+0x73>
ffff80000010420d:	48 8b 45 c8          	mov    -0x38(%rbp),%rax
ffff800000104211:	83 e0 0f             	and    $0xf,%eax
ffff800000104214:	8d 48 37             	lea    0x37(%rax),%ecx
ffff800000104217:	8b 45 fc             	mov    -0x4(%rbp),%eax
ffff80000010421a:	8d 50 01             	lea    0x1(%rax),%edx
ffff80000010421d:	89 55 fc             	mov    %edx,-0x4(%rbp)
ffff800000104220:	89 ca                	mov    %ecx,%edx
ffff800000104222:	89 c0                	mov    %eax,%eax
ffff800000104224:	88 54 05 d0          	mov    %dl,-0x30(%rbp,%rax,1)
ffff800000104228:	eb 1b                	jmp    ffff800000104245 <putux_color+0x8e>
ffff80000010422a:	48 8b 45 c8          	mov    -0x38(%rbp),%rax
ffff80000010422e:	83 e0 0f             	and    $0xf,%eax
ffff800000104231:	8d 48 57             	lea    0x57(%rax),%ecx
ffff800000104234:	8b 45 fc             	mov    -0x4(%rbp),%eax
ffff800000104237:	8d 50 01             	lea    0x1(%rax),%edx
ffff80000010423a:	89 55 fc             	mov    %edx,-0x4(%rbp)
ffff80000010423d:	89 ca                	mov    %ecx,%edx
ffff80000010423f:	89 c0                	mov    %eax,%eax
ffff800000104241:	88 54 05 d0          	mov    %dl,-0x30(%rbp,%rax,1)
ffff800000104245:	48 8b 45 c8          	mov    -0x38(%rbp),%rax
ffff800000104249:	48 c1 e8 04          	shr    $0x4,%rax
ffff80000010424d:	48 89 45 c8          	mov    %rax,-0x38(%rbp)
ffff800000104251:	48 83 7d c8 0f       	cmpq   $0xf,-0x38(%rbp)
ffff800000104256:	77 85                	ja     ffff8000001041dd <putux_color+0x26>
ffff800000104258:	48 8b 45 c8          	mov    -0x38(%rbp),%rax
ffff80000010425c:	83 e0 0f             	and    $0xf,%eax
ffff80000010425f:	48 83 f8 09          	cmp    $0x9,%rax
ffff800000104263:	77 1d                	ja     ffff800000104282 <putux_color+0xcb>
ffff800000104265:	48 8b 45 c8          	mov    -0x38(%rbp),%rax
ffff800000104269:	83 e0 0f             	and    $0xf,%eax
ffff80000010426c:	8d 48 30             	lea    0x30(%rax),%ecx
ffff80000010426f:	8b 45 fc             	mov    -0x4(%rbp),%eax
ffff800000104272:	8d 50 01             	lea    0x1(%rax),%edx
ffff800000104275:	89 55 fc             	mov    %edx,-0x4(%rbp)
ffff800000104278:	89 ca                	mov    %ecx,%edx
ffff80000010427a:	89 c0                	mov    %eax,%eax
ffff80000010427c:	88 54 05 d0          	mov    %dl,-0x30(%rbp,%rax,1)
ffff800000104280:	eb 68                	jmp    ffff8000001042ea <putux_color+0x133>
ffff800000104282:	83 7d bc 00          	cmpl   $0x0,-0x44(%rbp)
ffff800000104286:	74 1d                	je     ffff8000001042a5 <putux_color+0xee>
ffff800000104288:	48 8b 45 c8          	mov    -0x38(%rbp),%rax
ffff80000010428c:	83 e0 0f             	and    $0xf,%eax
ffff80000010428f:	8d 48 37             	lea    0x37(%rax),%ecx
ffff800000104292:	8b 45 fc             	mov    -0x4(%rbp),%eax
ffff800000104295:	8d 50 01             	lea    0x1(%rax),%edx
ffff800000104298:	89 55 fc             	mov    %edx,-0x4(%rbp)
ffff80000010429b:	89 ca                	mov    %ecx,%edx
ffff80000010429d:	89 c0                	mov    %eax,%eax
ffff80000010429f:	88 54 05 d0          	mov    %dl,-0x30(%rbp,%rax,1)
ffff8000001042a3:	eb 45                	jmp    ffff8000001042ea <putux_color+0x133>
ffff8000001042a5:	48 8b 45 c8          	mov    -0x38(%rbp),%rax
ffff8000001042a9:	83 e0 0f             	and    $0xf,%eax
ffff8000001042ac:	8d 48 57             	lea    0x57(%rax),%ecx
ffff8000001042af:	8b 45 fc             	mov    -0x4(%rbp),%eax
ffff8000001042b2:	8d 50 01             	lea    0x1(%rax),%edx
ffff8000001042b5:	89 55 fc             	mov    %edx,-0x4(%rbp)
ffff8000001042b8:	89 ca                	mov    %ecx,%edx
ffff8000001042ba:	89 c0                	mov    %eax,%eax
ffff8000001042bc:	88 54 05 d0          	mov    %dl,-0x30(%rbp,%rax,1)
ffff8000001042c0:	eb 28                	jmp    ffff8000001042ea <putux_color+0x133>
ffff8000001042c2:	83 7d b4 00          	cmpl   $0x0,-0x4c(%rbp)
ffff8000001042c6:	74 12                	je     ffff8000001042da <putux_color+0x123>
ffff8000001042c8:	8b 45 fc             	mov    -0x4(%rbp),%eax
ffff8000001042cb:	8d 50 01             	lea    0x1(%rax),%edx
ffff8000001042ce:	89 55 fc             	mov    %edx,-0x4(%rbp)
ffff8000001042d1:	89 c0                	mov    %eax,%eax
ffff8000001042d3:	c6 44 05 d0 30       	movb   $0x30,-0x30(%rbp,%rax,1)
ffff8000001042d8:	eb 10                	jmp    ffff8000001042ea <putux_color+0x133>
ffff8000001042da:	8b 45 fc             	mov    -0x4(%rbp),%eax
ffff8000001042dd:	8d 50 01             	lea    0x1(%rax),%edx
ffff8000001042e0:	89 55 fc             	mov    %edx,-0x4(%rbp)
ffff8000001042e3:	89 c0                	mov    %eax,%eax
ffff8000001042e5:	c6 44 05 d0 20       	movb   $0x20,-0x30(%rbp,%rax,1)
ffff8000001042ea:	8b 45 b8             	mov    -0x48(%rbp),%eax
ffff8000001042ed:	39 45 fc             	cmp    %eax,-0x4(%rbp)
ffff8000001042f0:	72 d0                	jb     ffff8000001042c2 <putux_color+0x10b>
ffff8000001042f2:	8b 45 fc             	mov    -0x4(%rbp),%eax
ffff8000001042f5:	83 e8 01             	sub    $0x1,%eax
ffff8000001042f8:	89 45 f4             	mov    %eax,-0xc(%rbp)
ffff8000001042fb:	c7 45 f8 00 00 00 00 	movl   $0x0,-0x8(%rbp)
ffff800000104302:	eb 39                	jmp    ffff80000010433d <putux_color+0x186>
ffff800000104304:	8b 45 fc             	mov    -0x4(%rbp),%eax
ffff800000104307:	2b 45 f8             	sub    -0x8(%rbp),%eax
ffff80000010430a:	83 e8 01             	sub    $0x1,%eax
ffff80000010430d:	89 45 f4             	mov    %eax,-0xc(%rbp)
ffff800000104310:	8b 45 f8             	mov    -0x8(%rbp),%eax
ffff800000104313:	0f b6 44 05 d0       	movzbl -0x30(%rbp,%rax,1),%eax
ffff800000104318:	88 45 f3             	mov    %al,-0xd(%rbp)
ffff80000010431b:	8b 45 f4             	mov    -0xc(%rbp),%eax
ffff80000010431e:	48 98                	cltq   
ffff800000104320:	0f b6 54 05 d0       	movzbl -0x30(%rbp,%rax,1),%edx
ffff800000104325:	8b 45 f8             	mov    -0x8(%rbp),%eax
ffff800000104328:	88 54 05 d0          	mov    %dl,-0x30(%rbp,%rax,1)
ffff80000010432c:	8b 45 f4             	mov    -0xc(%rbp),%eax
ffff80000010432f:	48 98                	cltq   
ffff800000104331:	0f b6 55 f3          	movzbl -0xd(%rbp),%edx
ffff800000104335:	88 54 05 d0          	mov    %dl,-0x30(%rbp,%rax,1)
ffff800000104339:	83 45 f8 01          	addl   $0x1,-0x8(%rbp)
ffff80000010433d:	8b 45 f4             	mov    -0xc(%rbp),%eax
ffff800000104340:	39 45 f8             	cmp    %eax,-0x8(%rbp)
ffff800000104343:	72 bf                	jb     ffff800000104304 <putux_color+0x14d>
ffff800000104345:	8b 45 fc             	mov    -0x4(%rbp),%eax
ffff800000104348:	c6 44 05 d0 00       	movb   $0x0,-0x30(%rbp,%rax,1)
ffff80000010434d:	8b 55 c0             	mov    -0x40(%rbp),%edx
ffff800000104350:	8b 4d c4             	mov    -0x3c(%rbp),%ecx
ffff800000104353:	48 8d 45 d0          	lea    -0x30(%rbp),%rax
ffff800000104357:	89 ce                	mov    %ecx,%esi
ffff800000104359:	48 89 c7             	mov    %rax,%rdi
ffff80000010435c:	48 b8 7a 27 10 00 00 	movabs $0xffff80000010277a,%rax
ffff800000104363:	80 ff ff 
ffff800000104366:	ff d0                	callq  *%rax
ffff800000104368:	90                   	nop
ffff800000104369:	c9                   	leaveq 
ffff80000010436a:	c3                   	retq   

ffff80000010436b <putux>:
ffff80000010436b:	55                   	push   %rbp
ffff80000010436c:	48 89 e5             	mov    %rsp,%rbp
ffff80000010436f:	48 83 ec 20          	sub    $0x20,%rsp
ffff800000104373:	48 89 7d f8          	mov    %rdi,-0x8(%rbp)
ffff800000104377:	89 75 f4             	mov    %esi,-0xc(%rbp)
ffff80000010437a:	89 55 f0             	mov    %edx,-0x10(%rbp)
ffff80000010437d:	89 4d ec             	mov    %ecx,-0x14(%rbp)
ffff800000104380:	8b 75 ec             	mov    -0x14(%rbp),%esi
ffff800000104383:	8b 4d f0             	mov    -0x10(%rbp),%ecx
ffff800000104386:	8b 55 f4             	mov    -0xc(%rbp),%edx
ffff800000104389:	48 8b 45 f8          	mov    -0x8(%rbp),%rax
ffff80000010438d:	41 89 f1             	mov    %esi,%r9d
ffff800000104390:	41 89 c8             	mov    %ecx,%r8d
ffff800000104393:	89 d1                	mov    %edx,%ecx
ffff800000104395:	ba ff ff ff 00       	mov    $0xffffff,%edx
ffff80000010439a:	be 00 00 00 00       	mov    $0x0,%esi
ffff80000010439f:	48 89 c7             	mov    %rax,%rdi
ffff8000001043a2:	48 b8 b7 41 10 00 00 	movabs $0xffff8000001041b7,%rax
ffff8000001043a9:	80 ff ff 
ffff8000001043ac:	ff d0                	callq  *%rax
ffff8000001043ae:	90                   	nop
ffff8000001043af:	c9                   	leaveq 
ffff8000001043b0:	c3                   	retq   

ffff8000001043b1 <memset>:
ffff8000001043b1:	55                   	push   %rbp
ffff8000001043b2:	48 89 e5             	mov    %rsp,%rbp
ffff8000001043b5:	48 89 7d e8          	mov    %rdi,-0x18(%rbp)
ffff8000001043b9:	89 f0                	mov    %esi,%eax
ffff8000001043bb:	48 89 55 d8          	mov    %rdx,-0x28(%rbp)
ffff8000001043bf:	88 45 e4             	mov    %al,-0x1c(%rbp)
ffff8000001043c2:	48 8b 45 e8          	mov    -0x18(%rbp),%rax
ffff8000001043c6:	48 89 45 f0          	mov    %rax,-0x10(%rbp)
ffff8000001043ca:	48 c7 45 f8 00 00 00 	movq   $0x0,-0x8(%rbp)
ffff8000001043d1:	00 
ffff8000001043d2:	eb 1c                	jmp    ffff8000001043f0 <memset+0x3f>
ffff8000001043d4:	48 8b 45 f8          	mov    -0x8(%rbp),%rax
ffff8000001043d8:	48 8d 50 01          	lea    0x1(%rax),%rdx
ffff8000001043dc:	48 89 55 f8          	mov    %rdx,-0x8(%rbp)
ffff8000001043e0:	48 89 c2             	mov    %rax,%rdx
ffff8000001043e3:	48 8b 45 f0          	mov    -0x10(%rbp),%rax
ffff8000001043e7:	48 01 c2             	add    %rax,%rdx
ffff8000001043ea:	0f b6 45 e4          	movzbl -0x1c(%rbp),%eax
ffff8000001043ee:	88 02                	mov    %al,(%rdx)
ffff8000001043f0:	48 8b 45 f8          	mov    -0x8(%rbp),%rax
ffff8000001043f4:	48 3b 45 d8          	cmp    -0x28(%rbp),%rax
ffff8000001043f8:	7c da                	jl     ffff8000001043d4 <memset+0x23>
ffff8000001043fa:	90                   	nop
ffff8000001043fb:	5d                   	pop    %rbp
ffff8000001043fc:	c3                   	retq   

ffff8000001043fd <InitInterrupt>:
ffff8000001043fd:	55                   	push   %rbp
ffff8000001043fe:	48 89 e5             	mov    %rsp,%rbp
ffff800000104401:	48 83 ec 10          	sub    $0x10,%rsp
ffff800000104405:	48 ba 02 b8 10 00 00 	movabs $0xffff80000010b802,%rdx
ffff80000010440c:	80 ff ff 
ffff80000010440f:	be ff ff 00 00       	mov    $0xffff,%esi
ffff800000104414:	bf 00 00 00 00       	mov    $0x0,%edi
ffff800000104419:	b8 00 00 00 00       	mov    $0x0,%eax
ffff80000010441e:	48 b9 ed 27 10 00 00 	movabs $0xffff8000001027ed,%rcx
ffff800000104425:	80 ff ff 
ffff800000104428:	ff d1                	callq  *%rcx
ffff80000010442a:	48 b8 40 14 11 00 00 	movabs $0xffff800000111440,%rax
ffff800000104431:	80 ff ff 
ffff800000104434:	48 b9 8e 13 10 00 00 	movabs $0xffff80000010138e,%rcx
ffff80000010443b:	80 ff ff 
ffff80000010443e:	48 89 08             	mov    %rcx,(%rax)
ffff800000104441:	48 b8 40 14 11 00 00 	movabs $0xffff800000111440,%rax
ffff800000104448:	80 ff ff 
ffff80000010444b:	48 b9 9e 13 10 00 00 	movabs $0xffff80000010139e,%rcx
ffff800000104452:	80 ff ff 
ffff800000104455:	48 89 48 08          	mov    %rcx,0x8(%rax)
ffff800000104459:	48 b8 40 14 11 00 00 	movabs $0xffff800000111440,%rax
ffff800000104460:	80 ff ff 
ffff800000104463:	48 b9 ae 13 10 00 00 	movabs $0xffff8000001013ae,%rcx
ffff80000010446a:	80 ff ff 
ffff80000010446d:	48 89 48 10          	mov    %rcx,0x10(%rax)
ffff800000104471:	48 b8 40 14 11 00 00 	movabs $0xffff800000111440,%rax
ffff800000104478:	80 ff ff 
ffff80000010447b:	48 b9 be 13 10 00 00 	movabs $0xffff8000001013be,%rcx
ffff800000104482:	80 ff ff 
ffff800000104485:	48 89 48 18          	mov    %rcx,0x18(%rax)
ffff800000104489:	48 b8 40 14 11 00 00 	movabs $0xffff800000111440,%rax
ffff800000104490:	80 ff ff 
ffff800000104493:	48 ba d1 13 10 00 00 	movabs $0xffff8000001013d1,%rdx
ffff80000010449a:	80 ff ff 
ffff80000010449d:	48 89 50 20          	mov    %rdx,0x20(%rax)
ffff8000001044a1:	48 b8 40 14 11 00 00 	movabs $0xffff800000111440,%rax
ffff8000001044a8:	80 ff ff 
ffff8000001044ab:	48 b9 e4 13 10 00 00 	movabs $0xffff8000001013e4,%rcx
ffff8000001044b2:	80 ff ff 
ffff8000001044b5:	48 89 48 28          	mov    %rcx,0x28(%rax)
ffff8000001044b9:	48 b8 40 14 11 00 00 	movabs $0xffff800000111440,%rax
ffff8000001044c0:	80 ff ff 
ffff8000001044c3:	48 ba f7 13 10 00 00 	movabs $0xffff8000001013f7,%rdx
ffff8000001044ca:	80 ff ff 
ffff8000001044cd:	48 89 50 30          	mov    %rdx,0x30(%rax)
ffff8000001044d1:	48 b8 40 14 11 00 00 	movabs $0xffff800000111440,%rax
ffff8000001044d8:	80 ff ff 
ffff8000001044db:	48 b9 0a 14 10 00 00 	movabs $0xffff80000010140a,%rcx
ffff8000001044e2:	80 ff ff 
ffff8000001044e5:	48 89 48 38          	mov    %rcx,0x38(%rax)
ffff8000001044e9:	48 b8 40 14 11 00 00 	movabs $0xffff800000111440,%rax
ffff8000001044f0:	80 ff ff 
ffff8000001044f3:	48 ba 1d 14 10 00 00 	movabs $0xffff80000010141d,%rdx
ffff8000001044fa:	80 ff ff 
ffff8000001044fd:	48 89 50 40          	mov    %rdx,0x40(%rax)
ffff800000104501:	48 b8 40 14 11 00 00 	movabs $0xffff800000111440,%rax
ffff800000104508:	80 ff ff 
ffff80000010450b:	48 be 30 14 10 00 00 	movabs $0xffff800000101430,%rsi
ffff800000104512:	80 ff ff 
ffff800000104515:	48 89 70 48          	mov    %rsi,0x48(%rax)
ffff800000104519:	48 b8 40 14 11 00 00 	movabs $0xffff800000111440,%rax
ffff800000104520:	80 ff ff 
ffff800000104523:	48 bf 43 14 10 00 00 	movabs $0xffff800000101443,%rdi
ffff80000010452a:	80 ff ff 
ffff80000010452d:	48 89 78 50          	mov    %rdi,0x50(%rax)
ffff800000104531:	48 b8 40 14 11 00 00 	movabs $0xffff800000111440,%rax
ffff800000104538:	80 ff ff 
ffff80000010453b:	48 b9 56 14 10 00 00 	movabs $0xffff800000101456,%rcx
ffff800000104542:	80 ff ff 
ffff800000104545:	48 89 48 58          	mov    %rcx,0x58(%rax)
ffff800000104549:	48 b8 40 14 11 00 00 	movabs $0xffff800000111440,%rax
ffff800000104550:	80 ff ff 
ffff800000104553:	48 ba 69 14 10 00 00 	movabs $0xffff800000101469,%rdx
ffff80000010455a:	80 ff ff 
ffff80000010455d:	48 89 50 60          	mov    %rdx,0x60(%rax)
ffff800000104561:	48 b8 40 14 11 00 00 	movabs $0xffff800000111440,%rax
ffff800000104568:	80 ff ff 
ffff80000010456b:	48 be 7c 14 10 00 00 	movabs $0xffff80000010147c,%rsi
ffff800000104572:	80 ff ff 
ffff800000104575:	48 89 70 68          	mov    %rsi,0x68(%rax)
ffff800000104579:	48 b8 40 14 11 00 00 	movabs $0xffff800000111440,%rax
ffff800000104580:	80 ff ff 
ffff800000104583:	48 bf 8f 14 10 00 00 	movabs $0xffff80000010148f,%rdi
ffff80000010458a:	80 ff ff 
ffff80000010458d:	48 89 78 70          	mov    %rdi,0x70(%rax)
ffff800000104591:	48 b8 40 14 11 00 00 	movabs $0xffff800000111440,%rax
ffff800000104598:	80 ff ff 
ffff80000010459b:	48 b9 a2 14 10 00 00 	movabs $0xffff8000001014a2,%rcx
ffff8000001045a2:	80 ff ff 
ffff8000001045a5:	48 89 48 78          	mov    %rcx,0x78(%rax)
ffff8000001045a9:	48 b8 40 14 11 00 00 	movabs $0xffff800000111440,%rax
ffff8000001045b0:	80 ff ff 
ffff8000001045b3:	48 ba b5 14 10 00 00 	movabs $0xffff8000001014b5,%rdx
ffff8000001045ba:	80 ff ff 
ffff8000001045bd:	48 89 90 80 00 00 00 	mov    %rdx,0x80(%rax)
ffff8000001045c4:	48 b8 40 14 11 00 00 	movabs $0xffff800000111440,%rax
ffff8000001045cb:	80 ff ff 
ffff8000001045ce:	48 be c8 14 10 00 00 	movabs $0xffff8000001014c8,%rsi
ffff8000001045d5:	80 ff ff 
ffff8000001045d8:	48 89 b0 88 00 00 00 	mov    %rsi,0x88(%rax)
ffff8000001045df:	48 b8 40 14 11 00 00 	movabs $0xffff800000111440,%rax
ffff8000001045e6:	80 ff ff 
ffff8000001045e9:	48 bf db 14 10 00 00 	movabs $0xffff8000001014db,%rdi
ffff8000001045f0:	80 ff ff 
ffff8000001045f3:	48 89 b8 90 00 00 00 	mov    %rdi,0x90(%rax)
ffff8000001045fa:	48 b8 40 14 11 00 00 	movabs $0xffff800000111440,%rax
ffff800000104601:	80 ff ff 
ffff800000104604:	48 b9 ee 14 10 00 00 	movabs $0xffff8000001014ee,%rcx
ffff80000010460b:	80 ff ff 
ffff80000010460e:	48 89 88 98 00 00 00 	mov    %rcx,0x98(%rax)
ffff800000104615:	48 b8 40 14 11 00 00 	movabs $0xffff800000111440,%rax
ffff80000010461c:	80 ff ff 
ffff80000010461f:	48 ba 01 15 10 00 00 	movabs $0xffff800000101501,%rdx
ffff800000104626:	80 ff ff 
ffff800000104629:	48 89 90 a0 00 00 00 	mov    %rdx,0xa0(%rax)
ffff800000104630:	48 b8 40 14 11 00 00 	movabs $0xffff800000111440,%rax
ffff800000104637:	80 ff ff 
ffff80000010463a:	48 be 14 15 10 00 00 	movabs $0xffff800000101514,%rsi
ffff800000104641:	80 ff ff 
ffff800000104644:	48 89 b0 a8 00 00 00 	mov    %rsi,0xa8(%rax)
ffff80000010464b:	48 b8 40 14 11 00 00 	movabs $0xffff800000111440,%rax
ffff800000104652:	80 ff ff 
ffff800000104655:	48 bf 27 15 10 00 00 	movabs $0xffff800000101527,%rdi
ffff80000010465c:	80 ff ff 
ffff80000010465f:	48 89 b8 b0 00 00 00 	mov    %rdi,0xb0(%rax)
ffff800000104666:	48 b8 40 14 11 00 00 	movabs $0xffff800000111440,%rax
ffff80000010466d:	80 ff ff 
ffff800000104670:	48 b9 3a 15 10 00 00 	movabs $0xffff80000010153a,%rcx
ffff800000104677:	80 ff ff 
ffff80000010467a:	48 89 88 b8 00 00 00 	mov    %rcx,0xb8(%rax)
ffff800000104681:	c7 45 fc 20 00 00 00 	movl   $0x20,-0x4(%rbp)
ffff800000104688:	eb 30                	jmp    ffff8000001046ba <InitInterrupt+0x2bd>
ffff80000010468a:	8b 45 fc             	mov    -0x4(%rbp),%eax
ffff80000010468d:	83 e8 20             	sub    $0x20,%eax
ffff800000104690:	48 ba 40 14 11 00 00 	movabs $0xffff800000111440,%rdx
ffff800000104697:	80 ff ff 
ffff80000010469a:	48 98                	cltq   
ffff80000010469c:	48 8b 14 c2          	mov    (%rdx,%rax,8),%rdx
ffff8000001046a0:	8b 45 fc             	mov    -0x4(%rbp),%eax
ffff8000001046a3:	be 02 00 00 00       	mov    $0x2,%esi
ffff8000001046a8:	89 c7                	mov    %eax,%edi
ffff8000001046aa:	48 b8 29 50 10 00 00 	movabs $0xffff800000105029,%rax
ffff8000001046b1:	80 ff ff 
ffff8000001046b4:	ff d0                	callq  *%rax
ffff8000001046b6:	83 45 fc 01          	addl   $0x1,-0x4(%rbp)
ffff8000001046ba:	83 7d fc 37          	cmpl   $0x37,-0x4(%rbp)
ffff8000001046be:	7e ca                	jle    ffff80000010468a <InitInterrupt+0x28d>
ffff8000001046c0:	48 b8 40 14 11 00 00 	movabs $0xffff800000111440,%rax
ffff8000001046c7:	80 ff ff 
ffff8000001046ca:	48 8b 00             	mov    (%rax),%rax
ffff8000001046cd:	48 89 c2             	mov    %rax,%rdx
ffff8000001046d0:	be 02 00 00 00       	mov    $0x2,%esi
ffff8000001046d5:	bf 20 00 00 00       	mov    $0x20,%edi
ffff8000001046da:	48 b8 29 50 10 00 00 	movabs $0xffff800000105029,%rax
ffff8000001046e1:	80 ff ff 
ffff8000001046e4:	ff d0                	callq  *%rax
ffff8000001046e6:	be 11 00 00 00       	mov    $0x11,%esi
ffff8000001046eb:	bf 20 00 00 00       	mov    $0x20,%edi
ffff8000001046f0:	48 b8 68 15 10 00 00 	movabs $0xffff800000101568,%rax
ffff8000001046f7:	80 ff ff 
ffff8000001046fa:	ff d0                	callq  *%rax
ffff8000001046fc:	be 20 00 00 00       	mov    $0x20,%esi
ffff800000104701:	bf 21 00 00 00       	mov    $0x21,%edi
ffff800000104706:	48 b8 68 15 10 00 00 	movabs $0xffff800000101568,%rax
ffff80000010470d:	80 ff ff 
ffff800000104710:	ff d0                	callq  *%rax
ffff800000104712:	be 04 00 00 00       	mov    $0x4,%esi
ffff800000104717:	bf 21 00 00 00       	mov    $0x21,%edi
ffff80000010471c:	48 b8 68 15 10 00 00 	movabs $0xffff800000101568,%rax
ffff800000104723:	80 ff ff 
ffff800000104726:	ff d0                	callq  *%rax
ffff800000104728:	be 01 00 00 00       	mov    $0x1,%esi
ffff80000010472d:	bf 21 00 00 00       	mov    $0x21,%edi
ffff800000104732:	48 b8 68 15 10 00 00 	movabs $0xffff800000101568,%rax
ffff800000104739:	80 ff ff 
ffff80000010473c:	ff d0                	callq  *%rax
ffff80000010473e:	be 11 00 00 00       	mov    $0x11,%esi
ffff800000104743:	bf a0 00 00 00       	mov    $0xa0,%edi
ffff800000104748:	48 b8 68 15 10 00 00 	movabs $0xffff800000101568,%rax
ffff80000010474f:	80 ff ff 
ffff800000104752:	ff d0                	callq  *%rax
ffff800000104754:	be 28 00 00 00       	mov    $0x28,%esi
ffff800000104759:	bf a1 00 00 00       	mov    $0xa1,%edi
ffff80000010475e:	48 b8 68 15 10 00 00 	movabs $0xffff800000101568,%rax
ffff800000104765:	80 ff ff 
ffff800000104768:	ff d0                	callq  *%rax
ffff80000010476a:	be 02 00 00 00       	mov    $0x2,%esi
ffff80000010476f:	bf a1 00 00 00       	mov    $0xa1,%edi
ffff800000104774:	48 b8 68 15 10 00 00 	movabs $0xffff800000101568,%rax
ffff80000010477b:	80 ff ff 
ffff80000010477e:	ff d0                	callq  *%rax
ffff800000104780:	be 01 00 00 00       	mov    $0x1,%esi
ffff800000104785:	bf a1 00 00 00       	mov    $0xa1,%edi
ffff80000010478a:	48 b8 68 15 10 00 00 	movabs $0xffff800000101568,%rax
ffff800000104791:	80 ff ff 
ffff800000104794:	ff d0                	callq  *%rax
ffff800000104796:	be 00 00 00 00       	mov    $0x0,%esi
ffff80000010479b:	bf 21 00 00 00       	mov    $0x21,%edi
ffff8000001047a0:	48 b8 68 15 10 00 00 	movabs $0xffff800000101568,%rax
ffff8000001047a7:	80 ff ff 
ffff8000001047aa:	ff d0                	callq  *%rax
ffff8000001047ac:	be 00 00 00 00       	mov    $0x0,%esi
ffff8000001047b1:	bf a1 00 00 00       	mov    $0xa1,%edi
ffff8000001047b6:	48 b8 68 15 10 00 00 	movabs $0xffff800000101568,%rax
ffff8000001047bd:	80 ff ff 
ffff8000001047c0:	ff d0                	callq  *%rax
ffff8000001047c2:	c7 45 fc 00 00 00 00 	movl   $0x0,-0x4(%rbp)
ffff8000001047c9:	eb 1b                	jmp    ffff8000001047e6 <InitInterrupt+0x3e9>
ffff8000001047cb:	48 ba 40 13 11 00 00 	movabs $0xffff800000111340,%rdx
ffff8000001047d2:	80 ff ff 
ffff8000001047d5:	8b 45 fc             	mov    -0x4(%rbp),%eax
ffff8000001047d8:	48 98                	cltq   
ffff8000001047da:	48 c7 04 c2 00 00 00 	movq   $0x0,(%rdx,%rax,8)
ffff8000001047e1:	00 
ffff8000001047e2:	83 45 fc 01          	addl   $0x1,-0x4(%rbp)
ffff8000001047e6:	83 7d fc 1d          	cmpl   $0x1d,-0x4(%rbp)
ffff8000001047ea:	7e df                	jle    ffff8000001047cb <InitInterrupt+0x3ce>
ffff8000001047ec:	fb                   	sti    
ffff8000001047ed:	90                   	nop
ffff8000001047ee:	c9                   	leaveq 
ffff8000001047ef:	c3                   	retq   

ffff8000001047f0 <register_irq>:
ffff8000001047f0:	55                   	push   %rbp
ffff8000001047f1:	48 89 e5             	mov    %rsp,%rbp
ffff8000001047f4:	89 7d fc             	mov    %edi,-0x4(%rbp)
ffff8000001047f7:	48 89 75 f0          	mov    %rsi,-0x10(%rbp)
ffff8000001047fb:	8b 45 fc             	mov    -0x4(%rbp),%eax
ffff8000001047fe:	83 e8 20             	sub    $0x20,%eax
ffff800000104801:	48 8b 55 f0          	mov    -0x10(%rbp),%rdx
ffff800000104805:	48 b9 40 13 11 00 00 	movabs $0xffff800000111340,%rcx
ffff80000010480c:	80 ff ff 
ffff80000010480f:	48 98                	cltq   
ffff800000104811:	48 89 14 c1          	mov    %rdx,(%rcx,%rax,8)
ffff800000104815:	90                   	nop
ffff800000104816:	5d                   	pop    %rbp
ffff800000104817:	c3                   	retq   

ffff800000104818 <do_IRQ>:
ffff800000104818:	55                   	push   %rbp
ffff800000104819:	48 89 e5             	mov    %rsp,%rbp
ffff80000010481c:	48 83 ec 10          	sub    $0x10,%rsp
ffff800000104820:	48 89 7d f8          	mov    %rdi,-0x8(%rbp)
ffff800000104824:	48 89 75 f0          	mov    %rsi,-0x10(%rbp)
ffff800000104828:	48 83 6d f0 20       	subq   $0x20,-0x10(%rbp)
ffff80000010482d:	48 83 7d f0 1d       	cmpq   $0x1d,-0x10(%rbp)
ffff800000104832:	77 59                	ja     ffff80000010488d <do_IRQ+0x75>
ffff800000104834:	48 ba 40 13 11 00 00 	movabs $0xffff800000111340,%rdx
ffff80000010483b:	80 ff ff 
ffff80000010483e:	48 8b 45 f0          	mov    -0x10(%rbp),%rax
ffff800000104842:	48 8b 04 c2          	mov    (%rdx,%rax,8),%rax
ffff800000104846:	48 85 c0             	test   %rax,%rax
ffff800000104849:	74 42                	je     ffff80000010488d <do_IRQ+0x75>
ffff80000010484b:	48 83 7d f0 00       	cmpq   $0x0,-0x10(%rbp)
ffff800000104850:	74 1b                	je     ffff80000010486d <do_IRQ+0x55>
ffff800000104852:	48 ba 40 13 11 00 00 	movabs $0xffff800000111340,%rdx
ffff800000104859:	80 ff ff 
ffff80000010485c:	48 8b 45 f0          	mov    -0x10(%rbp),%rax
ffff800000104860:	48 8b 14 c2          	mov    (%rdx,%rax,8),%rdx
ffff800000104864:	b8 00 00 00 00       	mov    $0x0,%eax
ffff800000104869:	ff d2                	callq  *%rdx
ffff80000010486b:	eb 20                	jmp    ffff80000010488d <do_IRQ+0x75>
ffff80000010486d:	48 ba 40 13 11 00 00 	movabs $0xffff800000111340,%rdx
ffff800000104874:	80 ff ff 
ffff800000104877:	48 8b 45 f0          	mov    -0x10(%rbp),%rax
ffff80000010487b:	48 8b 14 c2          	mov    (%rdx,%rax,8),%rdx
ffff80000010487f:	48 8b 45 f8          	mov    -0x8(%rbp),%rax
ffff800000104883:	48 89 c7             	mov    %rax,%rdi
ffff800000104886:	b8 00 00 00 00       	mov    $0x0,%eax
ffff80000010488b:	ff d2                	callq  *%rdx
ffff80000010488d:	be 64 00 00 00       	mov    $0x64,%esi
ffff800000104892:	bf a0 00 00 00       	mov    $0xa0,%edi
ffff800000104897:	48 b8 68 15 10 00 00 	movabs $0xffff800000101568,%rax
ffff80000010489e:	80 ff ff 
ffff8000001048a1:	ff d0                	callq  *%rax
ffff8000001048a3:	be 62 00 00 00       	mov    $0x62,%esi
ffff8000001048a8:	bf 20 00 00 00       	mov    $0x20,%edi
ffff8000001048ad:	48 b8 68 15 10 00 00 	movabs $0xffff800000101568,%rax
ffff8000001048b4:	80 ff ff 
ffff8000001048b7:	ff d0                	callq  *%rax
ffff8000001048b9:	be 20 00 00 00       	mov    $0x20,%esi
ffff8000001048be:	bf 20 00 00 00       	mov    $0x20,%edi
ffff8000001048c3:	48 b8 68 15 10 00 00 	movabs $0xffff800000101568,%rax
ffff8000001048ca:	80 ff ff 
ffff8000001048cd:	ff d0                	callq  *%rax
ffff8000001048cf:	90                   	nop
ffff8000001048d0:	c9                   	leaveq 
ffff8000001048d1:	c3                   	retq   

ffff8000001048d2 <InitDescripter>:
ffff8000001048d2:	55                   	push   %rbp
ffff8000001048d3:	48 89 e5             	mov    %rsp,%rbp
ffff8000001048d6:	53                   	push   %rbx
ffff8000001048d7:	48 83 ec 08          	sub    $0x8,%rsp
ffff8000001048db:	48 bf 18 b8 10 00 00 	movabs $0xffff80000010b818,%rdi
ffff8000001048e2:	80 ff ff 
ffff8000001048e5:	b8 00 00 00 00       	mov    $0x0,%eax
ffff8000001048ea:	48 ba 50 30 10 00 00 	movabs $0xffff800000103050,%rdx
ffff8000001048f1:	80 ff ff 
ffff8000001048f4:	ff d2                	callq  *%rdx
ffff8000001048f6:	48 b8 d0 10 11 00 00 	movabs $0xffff8000001110d0,%rax
ffff8000001048fd:	80 ff ff 
ffff800000104900:	48 bb 00 00 03 00 00 	movabs $0xffff800000030000,%rbx
ffff800000104907:	80 ff ff 
ffff80000010490a:	48 89 18             	mov    %rbx,(%rax)
ffff80000010490d:	48 b8 a8 10 11 00 00 	movabs $0xffff8000001110a8,%rax
ffff800000104914:	80 ff ff 
ffff800000104917:	48 b9 00 10 03 00 00 	movabs $0xffff800000031000,%rcx
ffff80000010491e:	80 ff ff 
ffff800000104921:	48 89 08             	mov    %rcx,(%rax)
ffff800000104924:	48 b8 b0 10 11 00 00 	movabs $0xffff8000001110b0,%rax
ffff80000010492b:	80 ff ff 
ffff80000010492e:	c7 00 9f 00 00 00    	movl   $0x9f,(%rax)
ffff800000104934:	48 b8 b0 10 11 00 00 	movabs $0xffff8000001110b0,%rax
ffff80000010493b:	80 ff ff 
ffff80000010493e:	48 89 58 04          	mov    %rbx,0x4(%rax)
ffff800000104942:	48 b8 c0 10 11 00 00 	movabs $0xffff8000001110c0,%rax
ffff800000104949:	80 ff ff 
ffff80000010494c:	c7 00 ff 0f 00 00    	movl   $0xfff,(%rax)
ffff800000104952:	48 b8 c0 10 11 00 00 	movabs $0xffff8000001110c0,%rax
ffff800000104959:	80 ff ff 
ffff80000010495c:	48 89 48 04          	mov    %rcx,0x4(%rax)
ffff800000104960:	48 b8 d0 10 11 00 00 	movabs $0xffff8000001110d0,%rax
ffff800000104967:	80 ff ff 
ffff80000010496a:	48 8b 00             	mov    (%rax),%rax
ffff80000010496d:	ba a0 00 00 00       	mov    $0xa0,%edx
ffff800000104972:	be 00 00 00 00       	mov    $0x0,%esi
ffff800000104977:	48 89 c7             	mov    %rax,%rdi
ffff80000010497a:	48 b8 b1 43 10 00 00 	movabs $0xffff8000001043b1,%rax
ffff800000104981:	80 ff ff 
ffff800000104984:	ff d0                	callq  *%rax
ffff800000104986:	48 b8 a8 10 11 00 00 	movabs $0xffff8000001110a8,%rax
ffff80000010498d:	80 ff ff 
ffff800000104990:	48 8b 00             	mov    (%rax),%rax
ffff800000104993:	ba 00 10 00 00       	mov    $0x1000,%edx
ffff800000104998:	be 00 00 00 00       	mov    $0x0,%esi
ffff80000010499d:	48 89 c7             	mov    %rax,%rdi
ffff8000001049a0:	48 b8 b1 43 10 00 00 	movabs $0xffff8000001043b1,%rax
ffff8000001049a7:	80 ff ff 
ffff8000001049aa:	ff d0                	callq  *%rax
ffff8000001049ac:	b9 98 20 00 00       	mov    $0x2098,%ecx
ffff8000001049b1:	ba 00 00 00 00       	mov    $0x0,%edx
ffff8000001049b6:	be 00 00 00 00       	mov    $0x0,%esi
ffff8000001049bb:	bf 01 00 00 00       	mov    $0x1,%edi
ffff8000001049c0:	48 b8 15 4e 10 00 00 	movabs $0xffff800000104e15,%rax
ffff8000001049c7:	80 ff ff 
ffff8000001049ca:	ff d0                	callq  *%rax
ffff8000001049cc:	b9 92 00 00 00       	mov    $0x92,%ecx
ffff8000001049d1:	ba 00 00 00 00       	mov    $0x0,%edx
ffff8000001049d6:	be 00 00 00 00       	mov    $0x0,%esi
ffff8000001049db:	bf 02 00 00 00       	mov    $0x2,%edi
ffff8000001049e0:	48 b8 15 4e 10 00 00 	movabs $0xffff800000104e15,%rax
ffff8000001049e7:	80 ff ff 
ffff8000001049ea:	ff d0                	callq  *%rax
ffff8000001049ec:	b9 98 20 00 00       	mov    $0x2098,%ecx
ffff8000001049f1:	ba 00 00 00 00       	mov    $0x0,%edx
ffff8000001049f6:	be 00 00 00 00       	mov    $0x0,%esi
ffff8000001049fb:	bf 03 00 00 00       	mov    $0x3,%edi
ffff800000104a00:	48 b8 15 4e 10 00 00 	movabs $0xffff800000104e15,%rax
ffff800000104a07:	80 ff ff 
ffff800000104a0a:	ff d0                	callq  *%rax
ffff800000104a0c:	b9 92 00 00 00       	mov    $0x92,%ecx
ffff800000104a11:	ba 00 00 00 00       	mov    $0x0,%edx
ffff800000104a16:	be 00 00 00 00       	mov    $0x0,%esi
ffff800000104a1b:	bf 04 00 00 00       	mov    $0x4,%edi
ffff800000104a20:	48 b8 15 4e 10 00 00 	movabs $0xffff800000104e15,%rax
ffff800000104a27:	80 ff ff 
ffff800000104a2a:	ff d0                	callq  *%rax
ffff800000104a2c:	b9 f8 20 00 00       	mov    $0x20f8,%ecx
ffff800000104a31:	ba 00 00 00 00       	mov    $0x0,%edx
ffff800000104a36:	be 00 00 00 00       	mov    $0x0,%esi
ffff800000104a3b:	bf 05 00 00 00       	mov    $0x5,%edi
ffff800000104a40:	48 b8 15 4e 10 00 00 	movabs $0xffff800000104e15,%rax
ffff800000104a47:	80 ff ff 
ffff800000104a4a:	ff d0                	callq  *%rax
ffff800000104a4c:	b9 f2 00 00 00       	mov    $0xf2,%ecx
ffff800000104a51:	ba 00 00 00 00       	mov    $0x0,%edx
ffff800000104a56:	be 00 00 00 00       	mov    $0x0,%esi
ffff800000104a5b:	bf 06 00 00 00       	mov    $0x6,%edi
ffff800000104a60:	48 b8 15 4e 10 00 00 	movabs $0xffff800000104e15,%rax
ffff800000104a67:	80 ff ff 
ffff800000104a6a:	ff d0                	callq  *%rax
ffff800000104a6c:	48 b8 40 10 11 00 00 	movabs $0xffff800000111040,%rax
ffff800000104a73:	80 ff ff 
ffff800000104a76:	b9 89 00 00 00       	mov    $0x89,%ecx
ffff800000104a7b:	ba 67 00 00 00       	mov    $0x67,%edx
ffff800000104a80:	48 89 c6             	mov    %rax,%rsi
ffff800000104a83:	bf 0a 00 00 00       	mov    $0xa,%edi
ffff800000104a88:	48 b8 44 4d 10 00 00 	movabs $0xffff800000104d44,%rax
ffff800000104a8f:	80 ff ff 
ffff800000104a92:	ff d0                	callq  *%rax
ffff800000104a94:	48 b8 b0 10 11 00 00 	movabs $0xffff8000001110b0,%rax
ffff800000104a9b:	80 ff ff 
ffff800000104a9e:	8b 00                	mov    (%rax),%eax
ffff800000104aa0:	48 ba b0 10 11 00 00 	movabs $0xffff8000001110b0,%rdx
ffff800000104aa7:	80 ff ff 
ffff800000104aaa:	48 8b 52 04          	mov    0x4(%rdx),%rdx
ffff800000104aae:	48 89 d3             	mov    %rdx,%rbx
ffff800000104ab1:	66 89 44 24 f6       	mov    %ax,-0xa(%rsp)
ffff800000104ab6:	48 89 5c 24 f8       	mov    %rbx,-0x8(%rsp)
ffff800000104abb:	0f 01 54 24 f6       	lgdt   -0xa(%rsp)
ffff800000104ac0:	48 b8 c0 10 11 00 00 	movabs $0xffff8000001110c0,%rax
ffff800000104ac7:	80 ff ff 
ffff800000104aca:	8b 00                	mov    (%rax),%eax
ffff800000104acc:	48 ba c0 10 11 00 00 	movabs $0xffff8000001110c0,%rdx
ffff800000104ad3:	80 ff ff 
ffff800000104ad6:	48 8b 52 04          	mov    0x4(%rdx),%rdx
ffff800000104ada:	48 89 d3             	mov    %rdx,%rbx
ffff800000104add:	66 89 44 24 f6       	mov    %ax,-0xa(%rsp)
ffff800000104ae2:	48 89 5c 24 f8       	mov    %rbx,-0x8(%rsp)
ffff800000104ae7:	0f 01 5c 24 f6       	lidt   -0xa(%rsp)
ffff800000104aec:	68 00 8e 00 00       	pushq  $0x8e00
ffff800000104af1:	c7 44 24 04 00 80 ff 	movl   $0xffff8000,0x4(%rsp)
ffff800000104af8:	ff 
ffff800000104af9:	68 00 8e 00 00       	pushq  $0x8e00
ffff800000104afe:	c7 44 24 04 00 80 ff 	movl   $0xffff8000,0x4(%rsp)
ffff800000104b05:	ff 
ffff800000104b06:	68 00 8e 00 00       	pushq  $0x8e00
ffff800000104b0b:	c7 44 24 04 00 80 ff 	movl   $0xffff8000,0x4(%rsp)
ffff800000104b12:	ff 
ffff800000104b13:	68 00 8e 00 00       	pushq  $0x8e00
ffff800000104b18:	c7 44 24 04 00 80 ff 	movl   $0xffff8000,0x4(%rsp)
ffff800000104b1f:	ff 
ffff800000104b20:	49 b9 00 8e 00 00 00 	movabs $0xffff800000008e00,%r9
ffff800000104b27:	80 ff ff 
ffff800000104b2a:	49 b8 00 8e 00 00 00 	movabs $0xffff800000008e00,%r8
ffff800000104b31:	80 ff ff 
ffff800000104b34:	48 b9 00 8e 00 00 00 	movabs $0xffff800000008e00,%rcx
ffff800000104b3b:	80 ff ff 
ffff800000104b3e:	48 ba 00 7c 00 00 00 	movabs $0xffff800000007c00,%rdx
ffff800000104b45:	80 ff ff 
ffff800000104b48:	48 be 00 7c 00 00 00 	movabs $0xffff800000007c00,%rsi
ffff800000104b4f:	80 ff ff 
ffff800000104b52:	48 bf 00 7c 00 00 00 	movabs $0xffff800000007c00,%rdi
ffff800000104b59:	80 ff ff 
ffff800000104b5c:	48 b8 71 4c 10 00 00 	movabs $0xffff800000104c71,%rax
ffff800000104b63:	80 ff ff 
ffff800000104b66:	ff d0                	callq  *%rax
ffff800000104b68:	48 83 c4 20          	add    $0x20,%rsp
ffff800000104b6c:	b8 50 00 00 00       	mov    $0x50,%eax
ffff800000104b71:	0f 00 d8             	ltr    %ax
ffff800000104b74:	90                   	nop
ffff800000104b75:	48 8b 5d f8          	mov    -0x8(%rbp),%rbx
ffff800000104b79:	c9                   	leaveq 
ffff800000104b7a:	c3                   	retq   

ffff800000104b7b <set_tss_at>:
ffff800000104b7b:	55                   	push   %rbp
ffff800000104b7c:	48 89 e5             	mov    %rsp,%rbp
ffff800000104b7f:	48 83 ec 10          	sub    $0x10,%rsp
ffff800000104b83:	89 7d fc             	mov    %edi,-0x4(%rbp)
ffff800000104b86:	48 89 75 f0          	mov    %rsi,-0x10(%rbp)
ffff800000104b8a:	83 7d fc 07          	cmpl   $0x7,-0x4(%rbp)
ffff800000104b8e:	0f 87 af 00 00 00    	ja     ffff800000104c43 <set_tss_at+0xc8>
ffff800000104b94:	8b 45 fc             	mov    -0x4(%rbp),%eax
ffff800000104b97:	48 8d 14 c5 00 00 00 	lea    0x0(,%rax,8),%rdx
ffff800000104b9e:	00 
ffff800000104b9f:	48 b8 40 b8 10 00 00 	movabs $0xffff80000010b840,%rax
ffff800000104ba6:	80 ff ff 
ffff800000104ba9:	48 01 d0             	add    %rdx,%rax
ffff800000104bac:	48 8b 00             	mov    (%rax),%rax
ffff800000104baf:	ff e0                	jmpq   *%rax
ffff800000104bb1:	48 ba 40 10 11 00 00 	movabs $0xffff800000111040,%rdx
ffff800000104bb8:	80 ff ff 
ffff800000104bbb:	48 8b 45 f0          	mov    -0x10(%rbp),%rax
ffff800000104bbf:	48 89 42 24          	mov    %rax,0x24(%rdx)
ffff800000104bc3:	e9 a6 00 00 00       	jmpq   ffff800000104c6e <set_tss_at+0xf3>
ffff800000104bc8:	48 ba 40 10 11 00 00 	movabs $0xffff800000111040,%rdx
ffff800000104bcf:	80 ff ff 
ffff800000104bd2:	48 8b 45 f0          	mov    -0x10(%rbp),%rax
ffff800000104bd6:	48 89 42 2c          	mov    %rax,0x2c(%rdx)
ffff800000104bda:	e9 8f 00 00 00       	jmpq   ffff800000104c6e <set_tss_at+0xf3>
ffff800000104bdf:	48 ba 40 10 11 00 00 	movabs $0xffff800000111040,%rdx
ffff800000104be6:	80 ff ff 
ffff800000104be9:	48 8b 45 f0          	mov    -0x10(%rbp),%rax
ffff800000104bed:	48 89 42 34          	mov    %rax,0x34(%rdx)
ffff800000104bf1:	eb 7b                	jmp    ffff800000104c6e <set_tss_at+0xf3>
ffff800000104bf3:	48 ba 40 10 11 00 00 	movabs $0xffff800000111040,%rdx
ffff800000104bfa:	80 ff ff 
ffff800000104bfd:	48 8b 45 f0          	mov    -0x10(%rbp),%rax
ffff800000104c01:	48 89 42 3c          	mov    %rax,0x3c(%rdx)
ffff800000104c05:	eb 67                	jmp    ffff800000104c6e <set_tss_at+0xf3>
ffff800000104c07:	48 ba 40 10 11 00 00 	movabs $0xffff800000111040,%rdx
ffff800000104c0e:	80 ff ff 
ffff800000104c11:	48 8b 45 f0          	mov    -0x10(%rbp),%rax
ffff800000104c15:	48 89 42 44          	mov    %rax,0x44(%rdx)
ffff800000104c19:	eb 53                	jmp    ffff800000104c6e <set_tss_at+0xf3>
ffff800000104c1b:	48 ba 40 10 11 00 00 	movabs $0xffff800000111040,%rdx
ffff800000104c22:	80 ff ff 
ffff800000104c25:	48 8b 45 f0          	mov    -0x10(%rbp),%rax
ffff800000104c29:	48 89 42 4c          	mov    %rax,0x4c(%rdx)
ffff800000104c2d:	eb 3f                	jmp    ffff800000104c6e <set_tss_at+0xf3>
ffff800000104c2f:	48 ba 40 10 11 00 00 	movabs $0xffff800000111040,%rdx
ffff800000104c36:	80 ff ff 
ffff800000104c39:	48 8b 45 f0          	mov    -0x10(%rbp),%rax
ffff800000104c3d:	48 89 42 54          	mov    %rax,0x54(%rdx)
ffff800000104c41:	eb 2b                	jmp    ffff800000104c6e <set_tss_at+0xf3>
ffff800000104c43:	8b 45 fc             	mov    -0x4(%rbp),%eax
ffff800000104c46:	89 c1                	mov    %eax,%ecx
ffff800000104c48:	48 ba 29 b8 10 00 00 	movabs $0xffff80000010b829,%rdx
ffff800000104c4f:	80 ff ff 
ffff800000104c52:	be 00 00 ff 00       	mov    $0xff0000,%esi
ffff800000104c57:	bf 00 00 00 00       	mov    $0x0,%edi
ffff800000104c5c:	b8 00 00 00 00       	mov    $0x0,%eax
ffff800000104c61:	49 b8 ed 27 10 00 00 	movabs $0xffff8000001027ed,%r8
ffff800000104c68:	80 ff ff 
ffff800000104c6b:	41 ff d0             	callq  *%r8
ffff800000104c6e:	90                   	nop
ffff800000104c6f:	c9                   	leaveq 
ffff800000104c70:	c3                   	retq   

ffff800000104c71 <set_tss>:
ffff800000104c71:	55                   	push   %rbp
ffff800000104c72:	48 89 e5             	mov    %rsp,%rbp
ffff800000104c75:	48 89 7d f8          	mov    %rdi,-0x8(%rbp)
ffff800000104c79:	48 89 75 f0          	mov    %rsi,-0x10(%rbp)
ffff800000104c7d:	48 89 55 e8          	mov    %rdx,-0x18(%rbp)
ffff800000104c81:	48 89 4d e0          	mov    %rcx,-0x20(%rbp)
ffff800000104c85:	4c 89 45 d8          	mov    %r8,-0x28(%rbp)
ffff800000104c89:	4c 89 4d d0          	mov    %r9,-0x30(%rbp)
ffff800000104c8d:	48 ba 40 10 11 00 00 	movabs $0xffff800000111040,%rdx
ffff800000104c94:	80 ff ff 
ffff800000104c97:	48 8b 45 f8          	mov    -0x8(%rbp),%rax
ffff800000104c9b:	48 89 42 04          	mov    %rax,0x4(%rdx)
ffff800000104c9f:	48 ba 40 10 11 00 00 	movabs $0xffff800000111040,%rdx
ffff800000104ca6:	80 ff ff 
ffff800000104ca9:	48 8b 45 f0          	mov    -0x10(%rbp),%rax
ffff800000104cad:	48 89 42 0c          	mov    %rax,0xc(%rdx)
ffff800000104cb1:	48 ba 40 10 11 00 00 	movabs $0xffff800000111040,%rdx
ffff800000104cb8:	80 ff ff 
ffff800000104cbb:	48 8b 45 e8          	mov    -0x18(%rbp),%rax
ffff800000104cbf:	48 89 42 14          	mov    %rax,0x14(%rdx)
ffff800000104cc3:	48 ba 40 10 11 00 00 	movabs $0xffff800000111040,%rdx
ffff800000104cca:	80 ff ff 
ffff800000104ccd:	48 8b 45 e0          	mov    -0x20(%rbp),%rax
ffff800000104cd1:	48 89 42 24          	mov    %rax,0x24(%rdx)
ffff800000104cd5:	48 ba 40 10 11 00 00 	movabs $0xffff800000111040,%rdx
ffff800000104cdc:	80 ff ff 
ffff800000104cdf:	48 8b 45 d8          	mov    -0x28(%rbp),%rax
ffff800000104ce3:	48 89 42 2c          	mov    %rax,0x2c(%rdx)
ffff800000104ce7:	48 ba 40 10 11 00 00 	movabs $0xffff800000111040,%rdx
ffff800000104cee:	80 ff ff 
ffff800000104cf1:	48 8b 45 d0          	mov    -0x30(%rbp),%rax
ffff800000104cf5:	48 89 42 34          	mov    %rax,0x34(%rdx)
ffff800000104cf9:	48 ba 40 10 11 00 00 	movabs $0xffff800000111040,%rdx
ffff800000104d00:	80 ff ff 
ffff800000104d03:	48 8b 45 10          	mov    0x10(%rbp),%rax
ffff800000104d07:	48 89 42 3c          	mov    %rax,0x3c(%rdx)
ffff800000104d0b:	48 ba 40 10 11 00 00 	movabs $0xffff800000111040,%rdx
ffff800000104d12:	80 ff ff 
ffff800000104d15:	48 8b 45 18          	mov    0x18(%rbp),%rax
ffff800000104d19:	48 89 42 44          	mov    %rax,0x44(%rdx)
ffff800000104d1d:	48 ba 40 10 11 00 00 	movabs $0xffff800000111040,%rdx
ffff800000104d24:	80 ff ff 
ffff800000104d27:	48 8b 45 20          	mov    0x20(%rbp),%rax
ffff800000104d2b:	48 89 42 4c          	mov    %rax,0x4c(%rdx)
ffff800000104d2f:	48 ba 40 10 11 00 00 	movabs $0xffff800000111040,%rdx
ffff800000104d36:	80 ff ff 
ffff800000104d39:	48 8b 45 28          	mov    0x28(%rbp),%rax
ffff800000104d3d:	48 89 42 54          	mov    %rax,0x54(%rdx)
ffff800000104d41:	90                   	nop
ffff800000104d42:	5d                   	pop    %rbp
ffff800000104d43:	c3                   	retq   

ffff800000104d44 <set_gdt_tss>:
ffff800000104d44:	55                   	push   %rbp
ffff800000104d45:	48 89 e5             	mov    %rsp,%rbp
ffff800000104d48:	89 7d ec             	mov    %edi,-0x14(%rbp)
ffff800000104d4b:	48 89 75 e0          	mov    %rsi,-0x20(%rbp)
ffff800000104d4f:	89 c8                	mov    %ecx,%eax
ffff800000104d51:	66 89 55 e8          	mov    %dx,-0x18(%rbp)
ffff800000104d55:	66 89 45 dc          	mov    %ax,-0x24(%rbp)
ffff800000104d59:	48 b8 d0 10 11 00 00 	movabs $0xffff8000001110d0,%rax
ffff800000104d60:	80 ff ff 
ffff800000104d63:	48 8b 00             	mov    (%rax),%rax
ffff800000104d66:	8b 55 ec             	mov    -0x14(%rbp),%edx
ffff800000104d69:	48 63 d2             	movslq %edx,%rdx
ffff800000104d6c:	48 c1 e2 03          	shl    $0x3,%rdx
ffff800000104d70:	48 01 d0             	add    %rdx,%rax
ffff800000104d73:	48 89 45 f8          	mov    %rax,-0x8(%rbp)
ffff800000104d77:	48 8b 45 f8          	mov    -0x8(%rbp),%rax
ffff800000104d7b:	0f b7 55 e8          	movzwl -0x18(%rbp),%edx
ffff800000104d7f:	66 89 10             	mov    %dx,(%rax)
ffff800000104d82:	48 8b 45 e0          	mov    -0x20(%rbp),%rax
ffff800000104d86:	89 c2                	mov    %eax,%edx
ffff800000104d88:	48 8b 45 f8          	mov    -0x8(%rbp),%rax
ffff800000104d8c:	88 50 02             	mov    %dl,0x2(%rax)
ffff800000104d8f:	48 8b 45 e0          	mov    -0x20(%rbp),%rax
ffff800000104d93:	48 c1 e8 08          	shr    $0x8,%rax
ffff800000104d97:	89 c2                	mov    %eax,%edx
ffff800000104d99:	48 8b 45 f8          	mov    -0x8(%rbp),%rax
ffff800000104d9d:	88 50 03             	mov    %dl,0x3(%rax)
ffff800000104da0:	48 8b 45 e0          	mov    -0x20(%rbp),%rax
ffff800000104da4:	48 c1 e8 10          	shr    $0x10,%rax
ffff800000104da8:	89 c2                	mov    %eax,%edx
ffff800000104daa:	48 8b 45 f8          	mov    -0x8(%rbp),%rax
ffff800000104dae:	88 50 04             	mov    %dl,0x4(%rax)
ffff800000104db1:	48 8b 45 f8          	mov    -0x8(%rbp),%rax
ffff800000104db5:	0f b7 55 dc          	movzwl -0x24(%rbp),%edx
ffff800000104db9:	66 89 50 05          	mov    %dx,0x5(%rax)
ffff800000104dbd:	48 8b 45 e0          	mov    -0x20(%rbp),%rax
ffff800000104dc1:	48 c1 e8 18          	shr    $0x18,%rax
ffff800000104dc5:	89 c2                	mov    %eax,%edx
ffff800000104dc7:	48 8b 45 f8          	mov    -0x8(%rbp),%rax
ffff800000104dcb:	88 50 07             	mov    %dl,0x7(%rax)
ffff800000104dce:	48 8b 45 e0          	mov    -0x20(%rbp),%rax
ffff800000104dd2:	48 c1 e8 20          	shr    $0x20,%rax
ffff800000104dd6:	89 c2                	mov    %eax,%edx
ffff800000104dd8:	48 8b 45 f8          	mov    -0x8(%rbp),%rax
ffff800000104ddc:	88 50 08             	mov    %dl,0x8(%rax)
ffff800000104ddf:	48 8b 45 e0          	mov    -0x20(%rbp),%rax
ffff800000104de3:	48 c1 e8 28          	shr    $0x28,%rax
ffff800000104de7:	89 c2                	mov    %eax,%edx
ffff800000104de9:	48 8b 45 f8          	mov    -0x8(%rbp),%rax
ffff800000104ded:	88 50 09             	mov    %dl,0x9(%rax)
ffff800000104df0:	48 8b 45 e0          	mov    -0x20(%rbp),%rax
ffff800000104df4:	48 c1 e8 30          	shr    $0x30,%rax
ffff800000104df8:	89 c2                	mov    %eax,%edx
ffff800000104dfa:	48 8b 45 f8          	mov    -0x8(%rbp),%rax
ffff800000104dfe:	88 50 0a             	mov    %dl,0xa(%rax)
ffff800000104e01:	48 8b 45 e0          	mov    -0x20(%rbp),%rax
ffff800000104e05:	48 c1 e8 38          	shr    $0x38,%rax
ffff800000104e09:	89 c2                	mov    %eax,%edx
ffff800000104e0b:	48 8b 45 f8          	mov    -0x8(%rbp),%rax
ffff800000104e0f:	88 50 0b             	mov    %dl,0xb(%rax)
ffff800000104e12:	90                   	nop
ffff800000104e13:	5d                   	pop    %rbp
ffff800000104e14:	c3                   	retq   

ffff800000104e15 <set_gdt>:
ffff800000104e15:	55                   	push   %rbp
ffff800000104e16:	48 89 e5             	mov    %rsp,%rbp
ffff800000104e19:	89 7d fc             	mov    %edi,-0x4(%rbp)
ffff800000104e1c:	89 75 f8             	mov    %esi,-0x8(%rbp)
ffff800000104e1f:	89 c8                	mov    %ecx,%eax
ffff800000104e21:	66 89 55 f4          	mov    %dx,-0xc(%rbp)
ffff800000104e25:	66 89 45 f0          	mov    %ax,-0x10(%rbp)
ffff800000104e29:	48 b8 d0 10 11 00 00 	movabs $0xffff8000001110d0,%rax
ffff800000104e30:	80 ff ff 
ffff800000104e33:	48 8b 00             	mov    (%rax),%rax
ffff800000104e36:	8b 55 fc             	mov    -0x4(%rbp),%edx
ffff800000104e39:	48 63 d2             	movslq %edx,%rdx
ffff800000104e3c:	48 c1 e2 03          	shl    $0x3,%rdx
ffff800000104e40:	48 01 c2             	add    %rax,%rdx
ffff800000104e43:	0f b7 45 f4          	movzwl -0xc(%rbp),%eax
ffff800000104e47:	66 89 02             	mov    %ax,(%rdx)
ffff800000104e4a:	48 b8 d0 10 11 00 00 	movabs $0xffff8000001110d0,%rax
ffff800000104e51:	80 ff ff 
ffff800000104e54:	48 8b 00             	mov    (%rax),%rax
ffff800000104e57:	8b 55 fc             	mov    -0x4(%rbp),%edx
ffff800000104e5a:	48 63 d2             	movslq %edx,%rdx
ffff800000104e5d:	48 c1 e2 03          	shl    $0x3,%rdx
ffff800000104e61:	48 01 d0             	add    %rdx,%rax
ffff800000104e64:	8b 55 f8             	mov    -0x8(%rbp),%edx
ffff800000104e67:	88 50 02             	mov    %dl,0x2(%rax)
ffff800000104e6a:	8b 45 f8             	mov    -0x8(%rbp),%eax
ffff800000104e6d:	c1 e8 08             	shr    $0x8,%eax
ffff800000104e70:	89 c1                	mov    %eax,%ecx
ffff800000104e72:	48 b8 d0 10 11 00 00 	movabs $0xffff8000001110d0,%rax
ffff800000104e79:	80 ff ff 
ffff800000104e7c:	48 8b 00             	mov    (%rax),%rax
ffff800000104e7f:	8b 55 fc             	mov    -0x4(%rbp),%edx
ffff800000104e82:	48 63 d2             	movslq %edx,%rdx
ffff800000104e85:	48 c1 e2 03          	shl    $0x3,%rdx
ffff800000104e89:	48 01 d0             	add    %rdx,%rax
ffff800000104e8c:	89 ca                	mov    %ecx,%edx
ffff800000104e8e:	88 50 02             	mov    %dl,0x2(%rax)
ffff800000104e91:	8b 45 f8             	mov    -0x8(%rbp),%eax
ffff800000104e94:	c1 e8 10             	shr    $0x10,%eax
ffff800000104e97:	89 c1                	mov    %eax,%ecx
ffff800000104e99:	48 b8 d0 10 11 00 00 	movabs $0xffff8000001110d0,%rax
ffff800000104ea0:	80 ff ff 
ffff800000104ea3:	48 8b 00             	mov    (%rax),%rax
ffff800000104ea6:	8b 55 fc             	mov    -0x4(%rbp),%edx
ffff800000104ea9:	48 63 d2             	movslq %edx,%rdx
ffff800000104eac:	48 c1 e2 03          	shl    $0x3,%rdx
ffff800000104eb0:	48 01 d0             	add    %rdx,%rax
ffff800000104eb3:	89 ca                	mov    %ecx,%edx
ffff800000104eb5:	88 50 02             	mov    %dl,0x2(%rax)
ffff800000104eb8:	48 b8 d0 10 11 00 00 	movabs $0xffff8000001110d0,%rax
ffff800000104ebf:	80 ff ff 
ffff800000104ec2:	48 8b 00             	mov    (%rax),%rax
ffff800000104ec5:	8b 55 fc             	mov    -0x4(%rbp),%edx
ffff800000104ec8:	48 63 d2             	movslq %edx,%rdx
ffff800000104ecb:	48 c1 e2 03          	shl    $0x3,%rdx
ffff800000104ecf:	48 01 c2             	add    %rax,%rdx
ffff800000104ed2:	0f b7 45 f0          	movzwl -0x10(%rbp),%eax
ffff800000104ed6:	66 89 42 05          	mov    %ax,0x5(%rdx)
ffff800000104eda:	8b 45 f8             	mov    -0x8(%rbp),%eax
ffff800000104edd:	c1 e8 18             	shr    $0x18,%eax
ffff800000104ee0:	89 c1                	mov    %eax,%ecx
ffff800000104ee2:	48 b8 d0 10 11 00 00 	movabs $0xffff8000001110d0,%rax
ffff800000104ee9:	80 ff ff 
ffff800000104eec:	48 8b 00             	mov    (%rax),%rax
ffff800000104eef:	8b 55 fc             	mov    -0x4(%rbp),%edx
ffff800000104ef2:	48 63 d2             	movslq %edx,%rdx
ffff800000104ef5:	48 c1 e2 03          	shl    $0x3,%rdx
ffff800000104ef9:	48 01 d0             	add    %rdx,%rax
ffff800000104efc:	89 ca                	mov    %ecx,%edx
ffff800000104efe:	88 50 07             	mov    %dl,0x7(%rax)
ffff800000104f01:	90                   	nop
ffff800000104f02:	5d                   	pop    %rbp
ffff800000104f03:	c3                   	retq   

ffff800000104f04 <set_idt>:
ffff800000104f04:	55                   	push   %rbp
ffff800000104f05:	48 89 e5             	mov    %rsp,%rbp
ffff800000104f08:	89 7d fc             	mov    %edi,-0x4(%rbp)
ffff800000104f0b:	89 f0                	mov    %esi,%eax
ffff800000104f0d:	48 89 4d e8          	mov    %rcx,-0x18(%rbp)
ffff800000104f11:	88 45 f8             	mov    %al,-0x8(%rbp)
ffff800000104f14:	89 d0                	mov    %edx,%eax
ffff800000104f16:	88 45 f4             	mov    %al,-0xc(%rbp)
ffff800000104f19:	48 b8 a8 10 11 00 00 	movabs $0xffff8000001110a8,%rax
ffff800000104f20:	80 ff ff 
ffff800000104f23:	48 8b 00             	mov    (%rax),%rax
ffff800000104f26:	8b 55 fc             	mov    -0x4(%rbp),%edx
ffff800000104f29:	48 63 d2             	movslq %edx,%rdx
ffff800000104f2c:	48 c1 e2 04          	shl    $0x4,%rdx
ffff800000104f30:	48 01 d0             	add    %rdx,%rax
ffff800000104f33:	48 8b 55 e8          	mov    -0x18(%rbp),%rdx
ffff800000104f37:	66 89 10             	mov    %dx,(%rax)
ffff800000104f3a:	48 8b 45 e8          	mov    -0x18(%rbp),%rax
ffff800000104f3e:	48 c1 e8 10          	shr    $0x10,%rax
ffff800000104f42:	48 89 c1             	mov    %rax,%rcx
ffff800000104f45:	48 b8 a8 10 11 00 00 	movabs $0xffff8000001110a8,%rax
ffff800000104f4c:	80 ff ff 
ffff800000104f4f:	48 8b 00             	mov    (%rax),%rax
ffff800000104f52:	8b 55 fc             	mov    -0x4(%rbp),%edx
ffff800000104f55:	48 63 d2             	movslq %edx,%rdx
ffff800000104f58:	48 c1 e2 04          	shl    $0x4,%rdx
ffff800000104f5c:	48 01 d0             	add    %rdx,%rax
ffff800000104f5f:	89 ca                	mov    %ecx,%edx
ffff800000104f61:	66 89 50 06          	mov    %dx,0x6(%rax)
ffff800000104f65:	48 8b 45 e8          	mov    -0x18(%rbp),%rax
ffff800000104f69:	48 c1 e8 20          	shr    $0x20,%rax
ffff800000104f6d:	48 89 c1             	mov    %rax,%rcx
ffff800000104f70:	48 b8 a8 10 11 00 00 	movabs $0xffff8000001110a8,%rax
ffff800000104f77:	80 ff ff 
ffff800000104f7a:	48 8b 00             	mov    (%rax),%rax
ffff800000104f7d:	8b 55 fc             	mov    -0x4(%rbp),%edx
ffff800000104f80:	48 63 d2             	movslq %edx,%rdx
ffff800000104f83:	48 c1 e2 04          	shl    $0x4,%rdx
ffff800000104f87:	48 01 d0             	add    %rdx,%rax
ffff800000104f8a:	89 ca                	mov    %ecx,%edx
ffff800000104f8c:	89 50 08             	mov    %edx,0x8(%rax)
ffff800000104f8f:	48 b8 a8 10 11 00 00 	movabs $0xffff8000001110a8,%rax
ffff800000104f96:	80 ff ff 
ffff800000104f99:	48 8b 00             	mov    (%rax),%rax
ffff800000104f9c:	8b 55 fc             	mov    -0x4(%rbp),%edx
ffff800000104f9f:	48 63 d2             	movslq %edx,%rdx
ffff800000104fa2:	48 c1 e2 04          	shl    $0x4,%rdx
ffff800000104fa6:	48 01 d0             	add    %rdx,%rax
ffff800000104fa9:	66 c7 40 02 08 00    	movw   $0x8,0x2(%rax)
ffff800000104faf:	48 b8 a8 10 11 00 00 	movabs $0xffff8000001110a8,%rax
ffff800000104fb6:	80 ff ff 
ffff800000104fb9:	48 8b 00             	mov    (%rax),%rax
ffff800000104fbc:	8b 55 fc             	mov    -0x4(%rbp),%edx
ffff800000104fbf:	48 63 d2             	movslq %edx,%rdx
ffff800000104fc2:	48 c1 e2 04          	shl    $0x4,%rdx
ffff800000104fc6:	48 01 c2             	add    %rax,%rdx
ffff800000104fc9:	0f b6 45 f4          	movzbl -0xc(%rbp),%eax
ffff800000104fcd:	88 42 04             	mov    %al,0x4(%rdx)
ffff800000104fd0:	48 b8 a8 10 11 00 00 	movabs $0xffff8000001110a8,%rax
ffff800000104fd7:	80 ff ff 
ffff800000104fda:	48 8b 00             	mov    (%rax),%rax
ffff800000104fdd:	8b 55 fc             	mov    -0x4(%rbp),%edx
ffff800000104fe0:	48 63 d2             	movslq %edx,%rdx
ffff800000104fe3:	48 c1 e2 04          	shl    $0x4,%rdx
ffff800000104fe7:	48 01 c2             	add    %rax,%rdx
ffff800000104fea:	0f b6 45 f8          	movzbl -0x8(%rbp),%eax
ffff800000104fee:	88 42 05             	mov    %al,0x5(%rdx)
ffff800000104ff1:	90                   	nop
ffff800000104ff2:	5d                   	pop    %rbp
ffff800000104ff3:	c3                   	retq   

ffff800000104ff4 <set_sys_gate>:
ffff800000104ff4:	55                   	push   %rbp
ffff800000104ff5:	48 89 e5             	mov    %rsp,%rbp
ffff800000104ff8:	48 83 ec 10          	sub    $0x10,%rsp
ffff800000104ffc:	89 7d fc             	mov    %edi,-0x4(%rbp)
ffff800000104fff:	89 75 f8             	mov    %esi,-0x8(%rbp)
ffff800000105002:	48 89 55 f0          	mov    %rdx,-0x10(%rbp)
ffff800000105006:	48 8b 4d f0          	mov    -0x10(%rbp),%rcx
ffff80000010500a:	8b 45 f8             	mov    -0x8(%rbp),%eax
ffff80000010500d:	0f b6 d0             	movzbl %al,%edx
ffff800000105010:	8b 45 fc             	mov    -0x4(%rbp),%eax
ffff800000105013:	be ef 00 00 00       	mov    $0xef,%esi
ffff800000105018:	89 c7                	mov    %eax,%edi
ffff80000010501a:	48 b8 04 4f 10 00 00 	movabs $0xffff800000104f04,%rax
ffff800000105021:	80 ff ff 
ffff800000105024:	ff d0                	callq  *%rax
ffff800000105026:	90                   	nop
ffff800000105027:	c9                   	leaveq 
ffff800000105028:	c3                   	retq   

ffff800000105029 <set_intr_gate>:
ffff800000105029:	55                   	push   %rbp
ffff80000010502a:	48 89 e5             	mov    %rsp,%rbp
ffff80000010502d:	48 83 ec 10          	sub    $0x10,%rsp
ffff800000105031:	89 7d fc             	mov    %edi,-0x4(%rbp)
ffff800000105034:	89 75 f8             	mov    %esi,-0x8(%rbp)
ffff800000105037:	48 89 55 f0          	mov    %rdx,-0x10(%rbp)
ffff80000010503b:	48 8b 4d f0          	mov    -0x10(%rbp),%rcx
ffff80000010503f:	8b 45 f8             	mov    -0x8(%rbp),%eax
ffff800000105042:	0f b6 d0             	movzbl %al,%edx
ffff800000105045:	8b 45 fc             	mov    -0x4(%rbp),%eax
ffff800000105048:	be 8e 00 00 00       	mov    $0x8e,%esi
ffff80000010504d:	89 c7                	mov    %eax,%edi
ffff80000010504f:	48 b8 04 4f 10 00 00 	movabs $0xffff800000104f04,%rax
ffff800000105056:	80 ff ff 
ffff800000105059:	ff d0                	callq  *%rax
ffff80000010505b:	90                   	nop
ffff80000010505c:	c9                   	leaveq 
ffff80000010505d:	c3                   	retq   

ffff80000010505e <set_trap_gate>:
ffff80000010505e:	55                   	push   %rbp
ffff80000010505f:	48 89 e5             	mov    %rsp,%rbp
ffff800000105062:	48 83 ec 10          	sub    $0x10,%rsp
ffff800000105066:	89 7d fc             	mov    %edi,-0x4(%rbp)
ffff800000105069:	89 75 f8             	mov    %esi,-0x8(%rbp)
ffff80000010506c:	48 89 55 f0          	mov    %rdx,-0x10(%rbp)
ffff800000105070:	48 8b 4d f0          	mov    -0x10(%rbp),%rcx
ffff800000105074:	8b 45 f8             	mov    -0x8(%rbp),%eax
ffff800000105077:	0f b6 d0             	movzbl %al,%edx
ffff80000010507a:	8b 45 fc             	mov    -0x4(%rbp),%eax
ffff80000010507d:	be 8f 00 00 00       	mov    $0x8f,%esi
ffff800000105082:	89 c7                	mov    %eax,%edi
ffff800000105084:	48 b8 04 4f 10 00 00 	movabs $0xffff800000104f04,%rax
ffff80000010508b:	80 ff ff 
ffff80000010508e:	ff d0                	callq  *%rax
ffff800000105090:	90                   	nop
ffff800000105091:	c9                   	leaveq 
ffff800000105092:	c3                   	retq   

ffff800000105093 <InitMouse>:
ffff800000105093:	55                   	push   %rbp
ffff800000105094:	48 89 e5             	mov    %rsp,%rbp
ffff800000105097:	48 83 ec 10          	sub    $0x10,%rsp
ffff80000010509b:	48 bf 80 b8 10 00 00 	movabs $0xffff80000010b880,%rdi
ffff8000001050a2:	80 ff ff 
ffff8000001050a5:	b8 00 00 00 00       	mov    $0x0,%eax
ffff8000001050aa:	48 ba 50 30 10 00 00 	movabs $0xffff800000103050,%rdx
ffff8000001050b1:	80 ff ff 
ffff8000001050b4:	ff d2                	callq  *%rdx
ffff8000001050b6:	bf 28 00 00 00       	mov    $0x28,%edi
ffff8000001050bb:	48 b8 34 6a 10 00 00 	movabs $0xffff800000106a34,%rax
ffff8000001050c2:	80 ff ff 
ffff8000001050c5:	ff d0                	callq  *%rax
ffff8000001050c7:	48 89 c2             	mov    %rax,%rdx
ffff8000001050ca:	48 b8 00 00 11 00 00 	movabs $0xffff800000110000,%rax
ffff8000001050d1:	80 ff ff 
ffff8000001050d4:	48 89 10             	mov    %rdx,(%rax)
ffff8000001050d7:	48 b8 00 00 11 00 00 	movabs $0xffff800000110000,%rax
ffff8000001050de:	80 ff ff 
ffff8000001050e1:	48 8b 10             	mov    (%rax),%rdx
ffff8000001050e4:	48 b8 00 00 11 00 00 	movabs $0xffff800000110000,%rax
ffff8000001050eb:	80 ff ff 
ffff8000001050ee:	48 8b 00             	mov    (%rax),%rax
ffff8000001050f1:	48 83 c2 14          	add    $0x14,%rdx
ffff8000001050f5:	48 89 10             	mov    %rdx,(%rax)
ffff8000001050f8:	48 b8 00 00 11 00 00 	movabs $0xffff800000110000,%rax
ffff8000001050ff:	80 ff ff 
ffff800000105102:	48 8b 10             	mov    (%rax),%rdx
ffff800000105105:	48 b8 00 00 11 00 00 	movabs $0xffff800000110000,%rax
ffff80000010510c:	80 ff ff 
ffff80000010510f:	48 8b 00             	mov    (%rax),%rax
ffff800000105112:	48 83 c2 14          	add    $0x14,%rdx
ffff800000105116:	48 89 50 08          	mov    %rdx,0x8(%rax)
ffff80000010511a:	48 b8 00 00 11 00 00 	movabs $0xffff800000110000,%rax
ffff800000105121:	80 ff ff 
ffff800000105124:	48 8b 00             	mov    (%rax),%rax
ffff800000105127:	c7 40 10 00 00 00 00 	movl   $0x0,0x10(%rax)
ffff80000010512e:	48 b8 00 00 11 00 00 	movabs $0xffff800000110000,%rax
ffff800000105135:	80 ff ff 
ffff800000105138:	48 8b 00             	mov    (%rax),%rax
ffff80000010513b:	48 8d 50 14          	lea    0x14(%rax),%rdx
ffff80000010513f:	48 b8 00 00 11 00 00 	movabs $0xffff800000110000,%rax
ffff800000105146:	80 ff ff 
ffff800000105149:	48 8b 00             	mov    (%rax),%rax
ffff80000010514c:	48 83 c2 0a          	add    $0xa,%rdx
ffff800000105150:	48 89 50 20          	mov    %rdx,0x20(%rax)
ffff800000105154:	bf 0c 00 00 00       	mov    $0xc,%edi
ffff800000105159:	48 b8 34 6a 10 00 00 	movabs $0xffff800000106a34,%rax
ffff800000105160:	80 ff ff 
ffff800000105163:	ff d0                	callq  *%rax
ffff800000105165:	48 89 c2             	mov    %rax,%rdx
ffff800000105168:	48 b8 08 00 11 00 00 	movabs $0xffff800000110008,%rax
ffff80000010516f:	80 ff ff 
ffff800000105172:	48 89 10             	mov    %rdx,(%rax)
ffff800000105175:	48 be 76 53 10 00 00 	movabs $0xffff800000105376,%rsi
ffff80000010517c:	80 ff ff 
ffff80000010517f:	bf 2c 00 00 00       	mov    $0x2c,%edi
ffff800000105184:	b8 00 00 00 00       	mov    $0x0,%eax
ffff800000105189:	48 ba f0 47 10 00 00 	movabs $0xffff8000001047f0,%rdx
ffff800000105190:	80 ff ff 
ffff800000105193:	ff d2                	callq  *%rdx
ffff800000105195:	90                   	nop
ffff800000105196:	bf 64 00 00 00       	mov    $0x64,%edi
ffff80000010519b:	48 b8 88 15 10 00 00 	movabs $0xffff800000101588,%rax
ffff8000001051a2:	80 ff ff 
ffff8000001051a5:	ff d0                	callq  *%rax
ffff8000001051a7:	0f b6 c0             	movzbl %al,%eax
ffff8000001051aa:	83 e0 02             	and    $0x2,%eax
ffff8000001051ad:	85 c0                	test   %eax,%eax
ffff8000001051af:	75 e5                	jne    ffff800000105196 <InitMouse+0x103>
ffff8000001051b1:	be a8 00 00 00       	mov    $0xa8,%esi
ffff8000001051b6:	bf 64 00 00 00       	mov    $0x64,%edi
ffff8000001051bb:	48 b8 68 15 10 00 00 	movabs $0xffff800000101568,%rax
ffff8000001051c2:	80 ff ff 
ffff8000001051c5:	ff d0                	callq  *%rax
ffff8000001051c7:	c7 45 fc 00 00 00 00 	movl   $0x0,-0x4(%rbp)
ffff8000001051ce:	eb 1b                	jmp    ffff8000001051eb <InitMouse+0x158>
ffff8000001051d0:	c7 45 f8 00 00 00 00 	movl   $0x0,-0x8(%rbp)
ffff8000001051d7:	eb 05                	jmp    ffff8000001051de <InitMouse+0x14b>
ffff8000001051d9:	90                   	nop
ffff8000001051da:	83 45 f8 01          	addl   $0x1,-0x8(%rbp)
ffff8000001051de:	81 7d f8 e7 03 00 00 	cmpl   $0x3e7,-0x8(%rbp)
ffff8000001051e5:	7e f2                	jle    ffff8000001051d9 <InitMouse+0x146>
ffff8000001051e7:	83 45 fc 01          	addl   $0x1,-0x4(%rbp)
ffff8000001051eb:	81 7d fc e7 03 00 00 	cmpl   $0x3e7,-0x4(%rbp)
ffff8000001051f2:	7e dc                	jle    ffff8000001051d0 <InitMouse+0x13d>
ffff8000001051f4:	90                   	nop
ffff8000001051f5:	bf 64 00 00 00       	mov    $0x64,%edi
ffff8000001051fa:	48 b8 88 15 10 00 00 	movabs $0xffff800000101588,%rax
ffff800000105201:	80 ff ff 
ffff800000105204:	ff d0                	callq  *%rax
ffff800000105206:	0f b6 c0             	movzbl %al,%eax
ffff800000105209:	83 e0 02             	and    $0x2,%eax
ffff80000010520c:	85 c0                	test   %eax,%eax
ffff80000010520e:	75 e5                	jne    ffff8000001051f5 <InitMouse+0x162>
ffff800000105210:	be d4 00 00 00       	mov    $0xd4,%esi
ffff800000105215:	bf 64 00 00 00       	mov    $0x64,%edi
ffff80000010521a:	48 b8 68 15 10 00 00 	movabs $0xffff800000101568,%rax
ffff800000105221:	80 ff ff 
ffff800000105224:	ff d0                	callq  *%rax
ffff800000105226:	90                   	nop
ffff800000105227:	bf 64 00 00 00       	mov    $0x64,%edi
ffff80000010522c:	48 b8 88 15 10 00 00 	movabs $0xffff800000101588,%rax
ffff800000105233:	80 ff ff 
ffff800000105236:	ff d0                	callq  *%rax
ffff800000105238:	0f b6 c0             	movzbl %al,%eax
ffff80000010523b:	83 e0 02             	and    $0x2,%eax
ffff80000010523e:	85 c0                	test   %eax,%eax
ffff800000105240:	75 e5                	jne    ffff800000105227 <InitMouse+0x194>
ffff800000105242:	be f4 00 00 00       	mov    $0xf4,%esi
ffff800000105247:	bf 60 00 00 00       	mov    $0x60,%edi
ffff80000010524c:	48 b8 68 15 10 00 00 	movabs $0xffff800000101568,%rax
ffff800000105253:	80 ff ff 
ffff800000105256:	ff d0                	callq  *%rax
ffff800000105258:	c7 45 fc 00 00 00 00 	movl   $0x0,-0x4(%rbp)
ffff80000010525f:	eb 1b                	jmp    ffff80000010527c <InitMouse+0x1e9>
ffff800000105261:	c7 45 f8 00 00 00 00 	movl   $0x0,-0x8(%rbp)
ffff800000105268:	eb 05                	jmp    ffff80000010526f <InitMouse+0x1dc>
ffff80000010526a:	90                   	nop
ffff80000010526b:	83 45 f8 01          	addl   $0x1,-0x8(%rbp)
ffff80000010526f:	81 7d f8 e7 03 00 00 	cmpl   $0x3e7,-0x8(%rbp)
ffff800000105276:	7e f2                	jle    ffff80000010526a <InitMouse+0x1d7>
ffff800000105278:	83 45 fc 01          	addl   $0x1,-0x4(%rbp)
ffff80000010527c:	81 7d fc e7 03 00 00 	cmpl   $0x3e7,-0x4(%rbp)
ffff800000105283:	7e dc                	jle    ffff800000105261 <InitMouse+0x1ce>
ffff800000105285:	90                   	nop
ffff800000105286:	bf 64 00 00 00       	mov    $0x64,%edi
ffff80000010528b:	48 b8 88 15 10 00 00 	movabs $0xffff800000101588,%rax
ffff800000105292:	80 ff ff 
ffff800000105295:	ff d0                	callq  *%rax
ffff800000105297:	0f b6 c0             	movzbl %al,%eax
ffff80000010529a:	83 e0 02             	and    $0x2,%eax
ffff80000010529d:	85 c0                	test   %eax,%eax
ffff80000010529f:	75 e5                	jne    ffff800000105286 <InitMouse+0x1f3>
ffff8000001052a1:	be 60 00 00 00       	mov    $0x60,%esi
ffff8000001052a6:	bf 64 00 00 00       	mov    $0x64,%edi
ffff8000001052ab:	48 b8 68 15 10 00 00 	movabs $0xffff800000101568,%rax
ffff8000001052b2:	80 ff ff 
ffff8000001052b5:	ff d0                	callq  *%rax
ffff8000001052b7:	90                   	nop
ffff8000001052b8:	bf 64 00 00 00       	mov    $0x64,%edi
ffff8000001052bd:	48 b8 88 15 10 00 00 	movabs $0xffff800000101588,%rax
ffff8000001052c4:	80 ff ff 
ffff8000001052c7:	ff d0                	callq  *%rax
ffff8000001052c9:	0f b6 c0             	movzbl %al,%eax
ffff8000001052cc:	83 e0 02             	and    $0x2,%eax
ffff8000001052cf:	85 c0                	test   %eax,%eax
ffff8000001052d1:	75 e5                	jne    ffff8000001052b8 <InitMouse+0x225>
ffff8000001052d3:	be 47 00 00 00       	mov    $0x47,%esi
ffff8000001052d8:	bf 60 00 00 00       	mov    $0x60,%edi
ffff8000001052dd:	48 b8 68 15 10 00 00 	movabs $0xffff800000101568,%rax
ffff8000001052e4:	80 ff ff 
ffff8000001052e7:	ff d0                	callq  *%rax
ffff8000001052e9:	48 b8 a0 17 11 00 00 	movabs $0xffff8000001117a0,%rax
ffff8000001052f0:	80 ff ff 
ffff8000001052f3:	c7 40 04 00 00 00 00 	movl   $0x0,0x4(%rax)
ffff8000001052fa:	48 b8 a0 17 11 00 00 	movabs $0xffff8000001117a0,%rax
ffff800000105301:	80 ff ff 
ffff800000105304:	8b 40 04             	mov    0x4(%rax),%eax
ffff800000105307:	48 ba a0 17 11 00 00 	movabs $0xffff8000001117a0,%rdx
ffff80000010530e:	80 ff ff 
ffff800000105311:	89 02                	mov    %eax,(%rdx)
ffff800000105313:	c7 45 fc 00 00 00 00 	movl   $0x0,-0x4(%rbp)
ffff80000010531a:	eb 51                	jmp    ffff80000010536d <InitMouse+0x2da>
ffff80000010531c:	c7 45 f8 00 00 00 00 	movl   $0x0,-0x8(%rbp)
ffff800000105323:	eb 3e                	jmp    ffff800000105363 <InitMouse+0x2d0>
ffff800000105325:	8b 55 fc             	mov    -0x4(%rbp),%edx
ffff800000105328:	8b 45 f8             	mov    -0x8(%rbp),%eax
ffff80000010532b:	89 d6                	mov    %edx,%esi
ffff80000010532d:	89 c7                	mov    %eax,%edi
ffff80000010532f:	48 b8 17 5b 10 00 00 	movabs $0xffff800000105b17,%rax
ffff800000105336:	80 ff ff 
ffff800000105339:	ff d0                	callq  *%rax
ffff80000010533b:	48 89 c6             	mov    %rax,%rsi
ffff80000010533e:	48 b8 20 00 11 00 00 	movabs $0xffff800000110020,%rax
ffff800000105345:	80 ff ff 
ffff800000105348:	8b 55 f8             	mov    -0x8(%rbp),%edx
ffff80000010534b:	48 63 d2             	movslq %edx,%rdx
ffff80000010534e:	8b 4d fc             	mov    -0x4(%rbp),%ecx
ffff800000105351:	48 63 c9             	movslq %ecx,%rcx
ffff800000105354:	48 c1 e1 04          	shl    $0x4,%rcx
ffff800000105358:	48 01 ca             	add    %rcx,%rdx
ffff80000010535b:	48 89 34 d0          	mov    %rsi,(%rax,%rdx,8)
ffff80000010535f:	83 45 f8 01          	addl   $0x1,-0x8(%rbp)
ffff800000105363:	83 7d f8 0f          	cmpl   $0xf,-0x8(%rbp)
ffff800000105367:	7e bc                	jle    ffff800000105325 <InitMouse+0x292>
ffff800000105369:	83 45 fc 01          	addl   $0x1,-0x4(%rbp)
ffff80000010536d:	83 7d fc 1f          	cmpl   $0x1f,-0x4(%rbp)
ffff800000105371:	7e a9                	jle    ffff80000010531c <InitMouse+0x289>
ffff800000105373:	90                   	nop
ffff800000105374:	c9                   	leaveq 
ffff800000105375:	c3                   	retq   

ffff800000105376 <mouse_handler>:
ffff800000105376:	55                   	push   %rbp
ffff800000105377:	48 89 e5             	mov    %rsp,%rbp
ffff80000010537a:	48 83 ec 10          	sub    $0x10,%rsp
ffff80000010537e:	bf 60 00 00 00       	mov    $0x60,%edi
ffff800000105383:	48 b8 88 15 10 00 00 	movabs $0xffff800000101588,%rax
ffff80000010538a:	80 ff ff 
ffff80000010538d:	ff d0                	callq  *%rax
ffff80000010538f:	88 45 ff             	mov    %al,-0x1(%rbp)
ffff800000105392:	48 b8 00 00 11 00 00 	movabs $0xffff800000110000,%rax
ffff800000105399:	80 ff ff 
ffff80000010539c:	48 8b 00             	mov    (%rax),%rax
ffff80000010539f:	48 8b 00             	mov    (%rax),%rax
ffff8000001053a2:	0f b6 55 ff          	movzbl -0x1(%rbp),%edx
ffff8000001053a6:	88 10                	mov    %dl,(%rax)
ffff8000001053a8:	48 b8 00 00 11 00 00 	movabs $0xffff800000110000,%rax
ffff8000001053af:	80 ff ff 
ffff8000001053b2:	48 8b 00             	mov    (%rax),%rax
ffff8000001053b5:	48 8b 10             	mov    (%rax),%rdx
ffff8000001053b8:	48 83 c2 01          	add    $0x1,%rdx
ffff8000001053bc:	48 89 10             	mov    %rdx,(%rax)
ffff8000001053bf:	48 b8 00 00 11 00 00 	movabs $0xffff800000110000,%rax
ffff8000001053c6:	80 ff ff 
ffff8000001053c9:	48 8b 00             	mov    (%rax),%rax
ffff8000001053cc:	8b 40 10             	mov    0x10(%rax),%eax
ffff8000001053cf:	83 e0 03             	and    $0x3,%eax
ffff8000001053d2:	85 c0                	test   %eax,%eax
ffff8000001053d4:	75 49                	jne    ffff80000010541f <mouse_handler+0xa9>
ffff8000001053d6:	48 b8 00 00 11 00 00 	movabs $0xffff800000110000,%rax
ffff8000001053dd:	80 ff ff 
ffff8000001053e0:	48 8b 00             	mov    (%rax),%rax
ffff8000001053e3:	48 8b 50 08          	mov    0x8(%rax),%rdx
ffff8000001053e7:	48 b8 00 00 11 00 00 	movabs $0xffff800000110000,%rax
ffff8000001053ee:	80 ff ff 
ffff8000001053f1:	48 8b 00             	mov    (%rax),%rax
ffff8000001053f4:	48 83 c2 04          	add    $0x4,%rdx
ffff8000001053f8:	48 89 50 08          	mov    %rdx,0x8(%rax)
ffff8000001053fc:	48 b8 00 00 11 00 00 	movabs $0xffff800000110000,%rax
ffff800000105403:	80 ff ff 
ffff800000105406:	48 8b 00             	mov    (%rax),%rax
ffff800000105409:	8b 50 10             	mov    0x10(%rax),%edx
ffff80000010540c:	48 b8 00 00 11 00 00 	movabs $0xffff800000110000,%rax
ffff800000105413:	80 ff ff 
ffff800000105416:	48 8b 00             	mov    (%rax),%rax
ffff800000105419:	83 ea 05             	sub    $0x5,%edx
ffff80000010541c:	89 50 10             	mov    %edx,0x10(%rax)
ffff80000010541f:	48 b8 00 00 11 00 00 	movabs $0xffff800000110000,%rax
ffff800000105426:	80 ff ff 
ffff800000105429:	48 8b 00             	mov    (%rax),%rax
ffff80000010542c:	8b 50 10             	mov    0x10(%rax),%edx
ffff80000010542f:	83 c2 01             	add    $0x1,%edx
ffff800000105432:	89 50 10             	mov    %edx,0x10(%rax)
ffff800000105435:	48 b8 00 00 11 00 00 	movabs $0xffff800000110000,%rax
ffff80000010543c:	80 ff ff 
ffff80000010543f:	48 8b 00             	mov    (%rax),%rax
ffff800000105442:	48 8b 10             	mov    (%rax),%rdx
ffff800000105445:	48 b8 00 00 11 00 00 	movabs $0xffff800000110000,%rax
ffff80000010544c:	80 ff ff 
ffff80000010544f:	48 8b 00             	mov    (%rax),%rax
ffff800000105452:	48 8b 40 20          	mov    0x20(%rax),%rax
ffff800000105456:	48 39 c2             	cmp    %rax,%rdx
ffff800000105459:	75 21                	jne    ffff80000010547c <mouse_handler+0x106>
ffff80000010545b:	48 b8 00 00 11 00 00 	movabs $0xffff800000110000,%rax
ffff800000105462:	80 ff ff 
ffff800000105465:	48 8b 10             	mov    (%rax),%rdx
ffff800000105468:	48 b8 00 00 11 00 00 	movabs $0xffff800000110000,%rax
ffff80000010546f:	80 ff ff 
ffff800000105472:	48 8b 00             	mov    (%rax),%rax
ffff800000105475:	48 83 c2 14          	add    $0x14,%rdx
ffff800000105479:	48 89 10             	mov    %rdx,(%rax)
ffff80000010547c:	48 b8 00 00 11 00 00 	movabs $0xffff800000110000,%rax
ffff800000105483:	80 ff ff 
ffff800000105486:	48 8b 00             	mov    (%rax),%rax
ffff800000105489:	48 8b 50 08          	mov    0x8(%rax),%rdx
ffff80000010548d:	48 b8 00 00 11 00 00 	movabs $0xffff800000110000,%rax
ffff800000105494:	80 ff ff 
ffff800000105497:	48 8b 00             	mov    (%rax),%rax
ffff80000010549a:	48 8b 40 20          	mov    0x20(%rax),%rax
ffff80000010549e:	48 39 c2             	cmp    %rax,%rdx
ffff8000001054a1:	75 22                	jne    ffff8000001054c5 <mouse_handler+0x14f>
ffff8000001054a3:	48 b8 00 00 11 00 00 	movabs $0xffff800000110000,%rax
ffff8000001054aa:	80 ff ff 
ffff8000001054ad:	48 8b 10             	mov    (%rax),%rdx
ffff8000001054b0:	48 b8 00 00 11 00 00 	movabs $0xffff800000110000,%rax
ffff8000001054b7:	80 ff ff 
ffff8000001054ba:	48 8b 00             	mov    (%rax),%rax
ffff8000001054bd:	48 83 c2 14          	add    $0x14,%rdx
ffff8000001054c1:	48 89 50 08          	mov    %rdx,0x8(%rax)
ffff8000001054c5:	b8 00 00 00 00       	mov    $0x0,%eax
ffff8000001054ca:	48 ba 90 55 10 00 00 	movabs $0xffff800000105590,%rdx
ffff8000001054d1:	80 ff ff 
ffff8000001054d4:	ff d2                	callq  *%rdx
ffff8000001054d6:	90                   	nop
ffff8000001054d7:	c9                   	leaveq 
ffff8000001054d8:	c3                   	retq   

ffff8000001054d9 <get_mouse_code>:
ffff8000001054d9:	55                   	push   %rbp
ffff8000001054da:	48 89 e5             	mov    %rsp,%rbp
ffff8000001054dd:	48 b8 00 00 11 00 00 	movabs $0xffff800000110000,%rax
ffff8000001054e4:	80 ff ff 
ffff8000001054e7:	48 8b 00             	mov    (%rax),%rax
ffff8000001054ea:	8b 40 10             	mov    0x10(%rax),%eax
ffff8000001054ed:	85 c0                	test   %eax,%eax
ffff8000001054ef:	75 0a                	jne    ffff8000001054fb <get_mouse_code+0x22>
ffff8000001054f1:	b8 00 00 00 00       	mov    $0x0,%eax
ffff8000001054f6:	e9 93 00 00 00       	jmpq   ffff80000010558e <get_mouse_code+0xb5>
ffff8000001054fb:	48 b8 00 00 11 00 00 	movabs $0xffff800000110000,%rax
ffff800000105502:	80 ff ff 
ffff800000105505:	48 8b 00             	mov    (%rax),%rax
ffff800000105508:	48 8b 40 08          	mov    0x8(%rax),%rax
ffff80000010550c:	0f b6 00             	movzbl (%rax),%eax
ffff80000010550f:	88 45 ff             	mov    %al,-0x1(%rbp)
ffff800000105512:	48 b8 00 00 11 00 00 	movabs $0xffff800000110000,%rax
ffff800000105519:	80 ff ff 
ffff80000010551c:	48 8b 00             	mov    (%rax),%rax
ffff80000010551f:	48 8b 50 08          	mov    0x8(%rax),%rdx
ffff800000105523:	48 83 c2 01          	add    $0x1,%rdx
ffff800000105527:	48 89 50 08          	mov    %rdx,0x8(%rax)
ffff80000010552b:	48 b8 00 00 11 00 00 	movabs $0xffff800000110000,%rax
ffff800000105532:	80 ff ff 
ffff800000105535:	48 8b 00             	mov    (%rax),%rax
ffff800000105538:	48 8b 50 08          	mov    0x8(%rax),%rdx
ffff80000010553c:	48 b8 00 00 11 00 00 	movabs $0xffff800000110000,%rax
ffff800000105543:	80 ff ff 
ffff800000105546:	48 8b 00             	mov    (%rax),%rax
ffff800000105549:	48 8b 40 20          	mov    0x20(%rax),%rax
ffff80000010554d:	48 39 c2             	cmp    %rax,%rdx
ffff800000105550:	72 22                	jb     ffff800000105574 <get_mouse_code+0x9b>
ffff800000105552:	48 b8 00 00 11 00 00 	movabs $0xffff800000110000,%rax
ffff800000105559:	80 ff ff 
ffff80000010555c:	48 8b 10             	mov    (%rax),%rdx
ffff80000010555f:	48 b8 00 00 11 00 00 	movabs $0xffff800000110000,%rax
ffff800000105566:	80 ff ff 
ffff800000105569:	48 8b 00             	mov    (%rax),%rax
ffff80000010556c:	48 83 c2 14          	add    $0x14,%rdx
ffff800000105570:	48 89 50 08          	mov    %rdx,0x8(%rax)
ffff800000105574:	48 b8 00 00 11 00 00 	movabs $0xffff800000110000,%rax
ffff80000010557b:	80 ff ff 
ffff80000010557e:	48 8b 00             	mov    (%rax),%rax
ffff800000105581:	8b 50 10             	mov    0x10(%rax),%edx
ffff800000105584:	83 ea 01             	sub    $0x1,%edx
ffff800000105587:	89 50 10             	mov    %edx,0x10(%rax)
ffff80000010558a:	0f b6 45 ff          	movzbl -0x1(%rbp),%eax
ffff80000010558e:	5d                   	pop    %rbp
ffff80000010558f:	c3                   	retq   

ffff800000105590 <decode_mouse>:
ffff800000105590:	55                   	push   %rbp
ffff800000105591:	48 89 e5             	mov    %rsp,%rbp
ffff800000105594:	48 83 ec 10          	sub    $0x10,%rsp
ffff800000105598:	48 b8 00 00 11 00 00 	movabs $0xffff800000110000,%rax
ffff80000010559f:	80 ff ff 
ffff8000001055a2:	48 8b 00             	mov    (%rax),%rax
ffff8000001055a5:	8b 40 10             	mov    0x10(%rax),%eax
ffff8000001055a8:	85 c0                	test   %eax,%eax
ffff8000001055aa:	0f 84 96 01 00 00    	je     ffff800000105746 <decode_mouse+0x1b6>
ffff8000001055b0:	b8 00 00 00 00       	mov    $0x0,%eax
ffff8000001055b5:	48 ba d9 54 10 00 00 	movabs $0xffff8000001054d9,%rdx
ffff8000001055bc:	80 ff ff 
ffff8000001055bf:	ff d2                	callq  *%rdx
ffff8000001055c1:	0f be c0             	movsbl %al,%eax
ffff8000001055c4:	89 45 fc             	mov    %eax,-0x4(%rbp)
ffff8000001055c7:	48 b8 20 10 11 00 00 	movabs $0xffff800000111020,%rax
ffff8000001055ce:	80 ff ff 
ffff8000001055d1:	8b 00                	mov    (%rax),%eax
ffff8000001055d3:	83 f8 04             	cmp    $0x4,%eax
ffff8000001055d6:	0f 87 6d 01 00 00    	ja     ffff800000105749 <decode_mouse+0x1b9>
ffff8000001055dc:	89 c0                	mov    %eax,%eax
ffff8000001055de:	48 8d 14 c5 00 00 00 	lea    0x0(,%rax,8),%rdx
ffff8000001055e5:	00 
ffff8000001055e6:	48 b8 90 b8 10 00 00 	movabs $0xffff80000010b890,%rax
ffff8000001055ed:	80 ff ff 
ffff8000001055f0:	48 01 d0             	add    %rdx,%rax
ffff8000001055f3:	48 8b 00             	mov    (%rax),%rax
ffff8000001055f6:	ff e0                	jmpq   *%rax
ffff8000001055f8:	48 b8 20 10 11 00 00 	movabs $0xffff800000111020,%rax
ffff8000001055ff:	80 ff ff 
ffff800000105602:	8b 00                	mov    (%rax),%eax
ffff800000105604:	8d 50 01             	lea    0x1(%rax),%edx
ffff800000105607:	48 b8 20 10 11 00 00 	movabs $0xffff800000111020,%rax
ffff80000010560e:	80 ff ff 
ffff800000105611:	89 10                	mov    %edx,(%rax)
ffff800000105613:	e9 32 01 00 00       	jmpq   ffff80000010574a <decode_mouse+0x1ba>
ffff800000105618:	48 b8 20 10 11 00 00 	movabs $0xffff800000111020,%rax
ffff80000010561f:	80 ff ff 
ffff800000105622:	8b 00                	mov    (%rax),%eax
ffff800000105624:	8d 50 01             	lea    0x1(%rax),%edx
ffff800000105627:	48 b8 20 10 11 00 00 	movabs $0xffff800000111020,%rax
ffff80000010562e:	80 ff ff 
ffff800000105631:	89 10                	mov    %edx,(%rax)
ffff800000105633:	48 b8 08 00 11 00 00 	movabs $0xffff800000110008,%rax
ffff80000010563a:	80 ff ff 
ffff80000010563d:	48 8b 00             	mov    (%rax),%rax
ffff800000105640:	8b 55 fc             	mov    -0x4(%rbp),%edx
ffff800000105643:	89 10                	mov    %edx,(%rax)
ffff800000105645:	48 b8 08 00 11 00 00 	movabs $0xffff800000110008,%rax
ffff80000010564c:	80 ff ff 
ffff80000010564f:	48 8b 00             	mov    (%rax),%rax
ffff800000105652:	8b 00                	mov    (%rax),%eax
ffff800000105654:	83 e0 01             	and    $0x1,%eax
ffff800000105657:	89 c2                	mov    %eax,%edx
ffff800000105659:	48 b8 b4 17 11 00 00 	movabs $0xffff8000001117b4,%rax
ffff800000105660:	80 ff ff 
ffff800000105663:	89 10                	mov    %edx,(%rax)
ffff800000105665:	48 b8 08 00 11 00 00 	movabs $0xffff800000110008,%rax
ffff80000010566c:	80 ff ff 
ffff80000010566f:	48 8b 00             	mov    (%rax),%rax
ffff800000105672:	8b 00                	mov    (%rax),%eax
ffff800000105674:	83 e0 02             	and    $0x2,%eax
ffff800000105677:	89 c2                	mov    %eax,%edx
ffff800000105679:	48 b8 b8 17 11 00 00 	movabs $0xffff8000001117b8,%rax
ffff800000105680:	80 ff ff 
ffff800000105683:	89 10                	mov    %edx,(%rax)
ffff800000105685:	48 b8 08 00 11 00 00 	movabs $0xffff800000110008,%rax
ffff80000010568c:	80 ff ff 
ffff80000010568f:	48 8b 00             	mov    (%rax),%rax
ffff800000105692:	8b 00                	mov    (%rax),%eax
ffff800000105694:	83 e0 04             	and    $0x4,%eax
ffff800000105697:	89 c2                	mov    %eax,%edx
ffff800000105699:	48 b8 b0 17 11 00 00 	movabs $0xffff8000001117b0,%rax
ffff8000001056a0:	80 ff ff 
ffff8000001056a3:	89 10                	mov    %edx,(%rax)
ffff8000001056a5:	e9 a0 00 00 00       	jmpq   ffff80000010574a <decode_mouse+0x1ba>
ffff8000001056aa:	48 b8 20 10 11 00 00 	movabs $0xffff800000111020,%rax
ffff8000001056b1:	80 ff ff 
ffff8000001056b4:	8b 00                	mov    (%rax),%eax
ffff8000001056b6:	8d 50 01             	lea    0x1(%rax),%edx
ffff8000001056b9:	48 b8 20 10 11 00 00 	movabs $0xffff800000111020,%rax
ffff8000001056c0:	80 ff ff 
ffff8000001056c3:	89 10                	mov    %edx,(%rax)
ffff8000001056c5:	48 b8 08 00 11 00 00 	movabs $0xffff800000110008,%rax
ffff8000001056cc:	80 ff ff 
ffff8000001056cf:	48 8b 00             	mov    (%rax),%rax
ffff8000001056d2:	8b 55 fc             	mov    -0x4(%rbp),%edx
ffff8000001056d5:	89 50 04             	mov    %edx,0x4(%rax)
ffff8000001056d8:	eb 70                	jmp    ffff80000010574a <decode_mouse+0x1ba>
ffff8000001056da:	48 b8 20 10 11 00 00 	movabs $0xffff800000111020,%rax
ffff8000001056e1:	80 ff ff 
ffff8000001056e4:	c7 00 01 00 00 00    	movl   $0x1,(%rax)
ffff8000001056ea:	48 b8 08 00 11 00 00 	movabs $0xffff800000110008,%rax
ffff8000001056f1:	80 ff ff 
ffff8000001056f4:	48 8b 00             	mov    (%rax),%rax
ffff8000001056f7:	8b 55 fc             	mov    -0x4(%rbp),%edx
ffff8000001056fa:	89 50 08             	mov    %edx,0x8(%rax)
ffff8000001056fd:	48 b8 08 00 11 00 00 	movabs $0xffff800000110008,%rax
ffff800000105704:	80 ff ff 
ffff800000105707:	48 8b 00             	mov    (%rax),%rax
ffff80000010570a:	8b 50 08             	mov    0x8(%rax),%edx
ffff80000010570d:	48 b8 08 00 11 00 00 	movabs $0xffff800000110008,%rax
ffff800000105714:	80 ff ff 
ffff800000105717:	48 8b 00             	mov    (%rax),%rax
ffff80000010571a:	8b 40 04             	mov    0x4(%rax),%eax
ffff80000010571d:	89 d6                	mov    %edx,%esi
ffff80000010571f:	89 c7                	mov    %eax,%edi
ffff800000105721:	b8 00 00 00 00       	mov    $0x0,%eax
ffff800000105726:	48 ba 4c 57 10 00 00 	movabs $0xffff80000010574c,%rdx
ffff80000010572d:	80 ff ff 
ffff800000105730:	ff d2                	callq  *%rdx
ffff800000105732:	eb 16                	jmp    ffff80000010574a <decode_mouse+0x1ba>
ffff800000105734:	48 b8 20 10 11 00 00 	movabs $0xffff800000111020,%rax
ffff80000010573b:	80 ff ff 
ffff80000010573e:	c7 00 01 00 00 00    	movl   $0x1,(%rax)
ffff800000105744:	eb 04                	jmp    ffff80000010574a <decode_mouse+0x1ba>
ffff800000105746:	90                   	nop
ffff800000105747:	eb 01                	jmp    ffff80000010574a <decode_mouse+0x1ba>
ffff800000105749:	90                   	nop
ffff80000010574a:	c9                   	leaveq 
ffff80000010574b:	c3                   	retq   

ffff80000010574c <draw_pointer>:
ffff80000010574c:	55                   	push   %rbp
ffff80000010574d:	48 89 e5             	mov    %rsp,%rbp
ffff800000105750:	89 7d dc             	mov    %edi,-0x24(%rbp)
ffff800000105753:	89 75 d8             	mov    %esi,-0x28(%rbp)
ffff800000105756:	f7 5d d8             	negl   -0x28(%rbp)
ffff800000105759:	48 b8 a0 17 11 00 00 	movabs $0xffff8000001117a0,%rax
ffff800000105760:	80 ff ff 
ffff800000105763:	8b 10                	mov    (%rax),%edx
ffff800000105765:	8b 45 dc             	mov    -0x24(%rbp),%eax
ffff800000105768:	01 d0                	add    %edx,%eax
ffff80000010576a:	89 45 fc             	mov    %eax,-0x4(%rbp)
ffff80000010576d:	48 b8 a0 17 11 00 00 	movabs $0xffff8000001117a0,%rax
ffff800000105774:	80 ff ff 
ffff800000105777:	8b 50 04             	mov    0x4(%rax),%edx
ffff80000010577a:	8b 45 d8             	mov    -0x28(%rbp),%eax
ffff80000010577d:	01 d0                	add    %edx,%eax
ffff80000010577f:	89 45 f8             	mov    %eax,-0x8(%rbp)
ffff800000105782:	83 7d fc 00          	cmpl   $0x0,-0x4(%rbp)
ffff800000105786:	79 07                	jns    ffff80000010578f <draw_pointer+0x43>
ffff800000105788:	c7 45 fc 00 00 00 00 	movl   $0x0,-0x4(%rbp)
ffff80000010578f:	48 b8 e0 10 11 00 00 	movabs $0xffff8000001110e0,%rax
ffff800000105796:	80 ff ff 
ffff800000105799:	8b 40 08             	mov    0x8(%rax),%eax
ffff80000010579c:	39 45 fc             	cmp    %eax,-0x4(%rbp)
ffff80000010579f:	7c 13                	jl     ffff8000001057b4 <draw_pointer+0x68>
ffff8000001057a1:	48 b8 e0 10 11 00 00 	movabs $0xffff8000001110e0,%rax
ffff8000001057a8:	80 ff ff 
ffff8000001057ab:	8b 40 08             	mov    0x8(%rax),%eax
ffff8000001057ae:	83 e8 01             	sub    $0x1,%eax
ffff8000001057b1:	89 45 fc             	mov    %eax,-0x4(%rbp)
ffff8000001057b4:	83 7d f8 00          	cmpl   $0x0,-0x8(%rbp)
ffff8000001057b8:	79 07                	jns    ffff8000001057c1 <draw_pointer+0x75>
ffff8000001057ba:	c7 45 f8 00 00 00 00 	movl   $0x0,-0x8(%rbp)
ffff8000001057c1:	48 b8 e0 10 11 00 00 	movabs $0xffff8000001110e0,%rax
ffff8000001057c8:	80 ff ff 
ffff8000001057cb:	8b 40 0c             	mov    0xc(%rax),%eax
ffff8000001057ce:	39 45 f8             	cmp    %eax,-0x8(%rbp)
ffff8000001057d1:	7c 13                	jl     ffff8000001057e6 <draw_pointer+0x9a>
ffff8000001057d3:	48 b8 e0 10 11 00 00 	movabs $0xffff8000001110e0,%rax
ffff8000001057da:	80 ff ff 
ffff8000001057dd:	8b 40 0c             	mov    0xc(%rax),%eax
ffff8000001057e0:	83 e8 01             	sub    $0x1,%eax
ffff8000001057e3:	89 45 f8             	mov    %eax,-0x8(%rbp)
ffff8000001057e6:	48 b8 e0 10 11 00 00 	movabs $0xffff8000001110e0,%rax
ffff8000001057ed:	80 ff ff 
ffff8000001057f0:	8b 50 08             	mov    0x8(%rax),%edx
ffff8000001057f3:	48 b8 a0 17 11 00 00 	movabs $0xffff8000001117a0,%rax
ffff8000001057fa:	80 ff ff 
ffff8000001057fd:	8b 40 04             	mov    0x4(%rax),%eax
ffff800000105800:	0f af c2             	imul   %edx,%eax
ffff800000105803:	89 45 ec             	mov    %eax,-0x14(%rbp)
ffff800000105806:	c7 45 f4 00 00 00 00 	movl   $0x0,-0xc(%rbp)
ffff80000010580d:	eb 7d                	jmp    ffff80000010588c <draw_pointer+0x140>
ffff80000010580f:	48 b8 a0 17 11 00 00 	movabs $0xffff8000001117a0,%rax
ffff800000105816:	80 ff ff 
ffff800000105819:	8b 00                	mov    (%rax),%eax
ffff80000010581b:	89 45 e8             	mov    %eax,-0x18(%rbp)
ffff80000010581e:	c7 45 f0 00 00 00 00 	movl   $0x0,-0x10(%rbp)
ffff800000105825:	eb 4b                	jmp    ffff800000105872 <draw_pointer+0x126>
ffff800000105827:	48 b8 20 00 11 00 00 	movabs $0xffff800000110020,%rax
ffff80000010582e:	80 ff ff 
ffff800000105831:	8b 55 f0             	mov    -0x10(%rbp),%edx
ffff800000105834:	48 63 d2             	movslq %edx,%rdx
ffff800000105837:	8b 4d f4             	mov    -0xc(%rbp),%ecx
ffff80000010583a:	48 63 c9             	movslq %ecx,%rcx
ffff80000010583d:	48 c1 e1 04          	shl    $0x4,%rcx
ffff800000105841:	48 01 ca             	add    %rcx,%rdx
ffff800000105844:	48 8b 14 d0          	mov    (%rax,%rdx,8),%rdx
ffff800000105848:	48 b8 e0 10 11 00 00 	movabs $0xffff8000001110e0,%rax
ffff80000010584f:	80 ff ff 
ffff800000105852:	48 8b 40 18          	mov    0x18(%rax),%rax
ffff800000105856:	8b 75 ec             	mov    -0x14(%rbp),%esi
ffff800000105859:	8b 4d e8             	mov    -0x18(%rbp),%ecx
ffff80000010585c:	01 f1                	add    %esi,%ecx
ffff80000010585e:	48 63 c9             	movslq %ecx,%rcx
ffff800000105861:	48 c1 e1 02          	shl    $0x2,%rcx
ffff800000105865:	48 01 c8             	add    %rcx,%rax
ffff800000105868:	89 10                	mov    %edx,(%rax)
ffff80000010586a:	83 45 f0 01          	addl   $0x1,-0x10(%rbp)
ffff80000010586e:	83 45 e8 01          	addl   $0x1,-0x18(%rbp)
ffff800000105872:	83 7d f0 0f          	cmpl   $0xf,-0x10(%rbp)
ffff800000105876:	7e af                	jle    ffff800000105827 <draw_pointer+0xdb>
ffff800000105878:	83 45 f4 01          	addl   $0x1,-0xc(%rbp)
ffff80000010587c:	48 b8 e0 10 11 00 00 	movabs $0xffff8000001110e0,%rax
ffff800000105883:	80 ff ff 
ffff800000105886:	8b 40 08             	mov    0x8(%rax),%eax
ffff800000105889:	01 45 ec             	add    %eax,-0x14(%rbp)
ffff80000010588c:	83 7d f4 1f          	cmpl   $0x1f,-0xc(%rbp)
ffff800000105890:	0f 8e 79 ff ff ff    	jle    ffff80000010580f <draw_pointer+0xc3>
ffff800000105896:	48 b8 e0 10 11 00 00 	movabs $0xffff8000001110e0,%rax
ffff80000010589d:	80 ff ff 
ffff8000001058a0:	8b 40 08             	mov    0x8(%rax),%eax
ffff8000001058a3:	8b 55 f8             	mov    -0x8(%rbp),%edx
ffff8000001058a6:	0f af c2             	imul   %edx,%eax
ffff8000001058a9:	89 45 ec             	mov    %eax,-0x14(%rbp)
ffff8000001058ac:	c7 45 f4 00 00 00 00 	movl   $0x0,-0xc(%rbp)
ffff8000001058b3:	e9 e7 00 00 00       	jmpq   ffff80000010599f <draw_pointer+0x253>
ffff8000001058b8:	8b 45 fc             	mov    -0x4(%rbp),%eax
ffff8000001058bb:	89 45 e4             	mov    %eax,-0x1c(%rbp)
ffff8000001058be:	c7 45 f0 00 00 00 00 	movl   $0x0,-0x10(%rbp)
ffff8000001058c5:	e9 b7 00 00 00       	jmpq   ffff800000105981 <draw_pointer+0x235>
ffff8000001058ca:	8b 55 ec             	mov    -0x14(%rbp),%edx
ffff8000001058cd:	8b 45 e4             	mov    -0x1c(%rbp),%eax
ffff8000001058d0:	01 d0                	add    %edx,%eax
ffff8000001058d2:	89 45 e0             	mov    %eax,-0x20(%rbp)
ffff8000001058d5:	48 b8 e0 10 11 00 00 	movabs $0xffff8000001110e0,%rax
ffff8000001058dc:	80 ff ff 
ffff8000001058df:	48 8b 40 18          	mov    0x18(%rax),%rax
ffff8000001058e3:	8b 55 e0             	mov    -0x20(%rbp),%edx
ffff8000001058e6:	48 63 d2             	movslq %edx,%rdx
ffff8000001058e9:	48 c1 e2 02          	shl    $0x2,%rdx
ffff8000001058ed:	48 01 d0             	add    %rdx,%rax
ffff8000001058f0:	8b 00                	mov    (%rax),%eax
ffff8000001058f2:	89 c6                	mov    %eax,%esi
ffff8000001058f4:	48 b8 20 00 11 00 00 	movabs $0xffff800000110020,%rax
ffff8000001058fb:	80 ff ff 
ffff8000001058fe:	8b 55 f0             	mov    -0x10(%rbp),%edx
ffff800000105901:	48 63 d2             	movslq %edx,%rdx
ffff800000105904:	8b 4d f4             	mov    -0xc(%rbp),%ecx
ffff800000105907:	48 63 c9             	movslq %ecx,%rcx
ffff80000010590a:	48 c1 e1 04          	shl    $0x4,%rcx
ffff80000010590e:	48 01 ca             	add    %rcx,%rdx
ffff800000105911:	48 89 34 d0          	mov    %rsi,(%rax,%rdx,8)
ffff800000105915:	48 b8 e0 9f 10 00 00 	movabs $0xffff800000109fe0,%rax
ffff80000010591c:	80 ff ff 
ffff80000010591f:	8b 55 f0             	mov    -0x10(%rbp),%edx
ffff800000105922:	48 63 d2             	movslq %edx,%rdx
ffff800000105925:	8b 4d f4             	mov    -0xc(%rbp),%ecx
ffff800000105928:	48 63 c9             	movslq %ecx,%rcx
ffff80000010592b:	48 c1 e1 04          	shl    $0x4,%rcx
ffff80000010592f:	48 01 ca             	add    %rcx,%rdx
ffff800000105932:	48 8b 04 d0          	mov    (%rax,%rdx,8),%rax
ffff800000105936:	48 85 c0             	test   %rax,%rax
ffff800000105939:	74 3e                	je     ffff800000105979 <draw_pointer+0x22d>
ffff80000010593b:	48 b8 e0 9f 10 00 00 	movabs $0xffff800000109fe0,%rax
ffff800000105942:	80 ff ff 
ffff800000105945:	8b 55 f0             	mov    -0x10(%rbp),%edx
ffff800000105948:	48 63 d2             	movslq %edx,%rdx
ffff80000010594b:	8b 4d f4             	mov    -0xc(%rbp),%ecx
ffff80000010594e:	48 63 c9             	movslq %ecx,%rcx
ffff800000105951:	48 c1 e1 04          	shl    $0x4,%rcx
ffff800000105955:	48 01 ca             	add    %rcx,%rdx
ffff800000105958:	48 8b 14 d0          	mov    (%rax,%rdx,8),%rdx
ffff80000010595c:	48 b8 e0 10 11 00 00 	movabs $0xffff8000001110e0,%rax
ffff800000105963:	80 ff ff 
ffff800000105966:	48 8b 40 18          	mov    0x18(%rax),%rax
ffff80000010596a:	8b 4d e0             	mov    -0x20(%rbp),%ecx
ffff80000010596d:	48 63 c9             	movslq %ecx,%rcx
ffff800000105970:	48 c1 e1 02          	shl    $0x2,%rcx
ffff800000105974:	48 01 c8             	add    %rcx,%rax
ffff800000105977:	89 10                	mov    %edx,(%rax)
ffff800000105979:	83 45 f0 01          	addl   $0x1,-0x10(%rbp)
ffff80000010597d:	83 45 e4 01          	addl   $0x1,-0x1c(%rbp)
ffff800000105981:	83 7d f0 0f          	cmpl   $0xf,-0x10(%rbp)
ffff800000105985:	0f 8e 3f ff ff ff    	jle    ffff8000001058ca <draw_pointer+0x17e>
ffff80000010598b:	83 45 f4 01          	addl   $0x1,-0xc(%rbp)
ffff80000010598f:	48 b8 e0 10 11 00 00 	movabs $0xffff8000001110e0,%rax
ffff800000105996:	80 ff ff 
ffff800000105999:	8b 40 08             	mov    0x8(%rax),%eax
ffff80000010599c:	01 45 ec             	add    %eax,-0x14(%rbp)
ffff80000010599f:	83 7d f4 1f          	cmpl   $0x1f,-0xc(%rbp)
ffff8000001059a3:	0f 8e 0f ff ff ff    	jle    ffff8000001058b8 <draw_pointer+0x16c>
ffff8000001059a9:	48 b8 a0 17 11 00 00 	movabs $0xffff8000001117a0,%rax
ffff8000001059b0:	80 ff ff 
ffff8000001059b3:	8b 10                	mov    (%rax),%edx
ffff8000001059b5:	8b 45 dc             	mov    -0x24(%rbp),%eax
ffff8000001059b8:	01 c2                	add    %eax,%edx
ffff8000001059ba:	48 b8 a0 17 11 00 00 	movabs $0xffff8000001117a0,%rax
ffff8000001059c1:	80 ff ff 
ffff8000001059c4:	89 10                	mov    %edx,(%rax)
ffff8000001059c6:	48 b8 a0 17 11 00 00 	movabs $0xffff8000001117a0,%rax
ffff8000001059cd:	80 ff ff 
ffff8000001059d0:	8b 50 04             	mov    0x4(%rax),%edx
ffff8000001059d3:	8b 45 d8             	mov    -0x28(%rbp),%eax
ffff8000001059d6:	01 c2                	add    %eax,%edx
ffff8000001059d8:	48 b8 a0 17 11 00 00 	movabs $0xffff8000001117a0,%rax
ffff8000001059df:	80 ff ff 
ffff8000001059e2:	89 50 04             	mov    %edx,0x4(%rax)
ffff8000001059e5:	48 b8 a0 17 11 00 00 	movabs $0xffff8000001117a0,%rax
ffff8000001059ec:	80 ff ff 
ffff8000001059ef:	8b 00                	mov    (%rax),%eax
ffff8000001059f1:	85 c0                	test   %eax,%eax
ffff8000001059f3:	79 10                	jns    ffff800000105a05 <draw_pointer+0x2b9>
ffff8000001059f5:	48 b8 a0 17 11 00 00 	movabs $0xffff8000001117a0,%rax
ffff8000001059fc:	80 ff ff 
ffff8000001059ff:	c7 00 00 00 00 00    	movl   $0x0,(%rax)
ffff800000105a05:	48 b8 a0 17 11 00 00 	movabs $0xffff8000001117a0,%rax
ffff800000105a0c:	80 ff ff 
ffff800000105a0f:	8b 40 04             	mov    0x4(%rax),%eax
ffff800000105a12:	85 c0                	test   %eax,%eax
ffff800000105a14:	79 11                	jns    ffff800000105a27 <draw_pointer+0x2db>
ffff800000105a16:	48 b8 a0 17 11 00 00 	movabs $0xffff8000001117a0,%rax
ffff800000105a1d:	80 ff ff 
ffff800000105a20:	c7 40 04 00 00 00 00 	movl   $0x0,0x4(%rax)
ffff800000105a27:	48 b8 a0 17 11 00 00 	movabs $0xffff8000001117a0,%rax
ffff800000105a2e:	80 ff ff 
ffff800000105a31:	8b 10                	mov    (%rax),%edx
ffff800000105a33:	48 b8 e0 10 11 00 00 	movabs $0xffff8000001110e0,%rax
ffff800000105a3a:	80 ff ff 
ffff800000105a3d:	8b 40 08             	mov    0x8(%rax),%eax
ffff800000105a40:	39 c2                	cmp    %eax,%edx
ffff800000105a42:	7e 19                	jle    ffff800000105a5d <draw_pointer+0x311>
ffff800000105a44:	48 b8 e0 10 11 00 00 	movabs $0xffff8000001110e0,%rax
ffff800000105a4b:	80 ff ff 
ffff800000105a4e:	8b 40 08             	mov    0x8(%rax),%eax
ffff800000105a51:	48 ba a0 17 11 00 00 	movabs $0xffff8000001117a0,%rdx
ffff800000105a58:	80 ff ff 
ffff800000105a5b:	89 02                	mov    %eax,(%rdx)
ffff800000105a5d:	48 b8 a0 17 11 00 00 	movabs $0xffff8000001117a0,%rax
ffff800000105a64:	80 ff ff 
ffff800000105a67:	8b 50 04             	mov    0x4(%rax),%edx
ffff800000105a6a:	48 b8 e0 10 11 00 00 	movabs $0xffff8000001110e0,%rax
ffff800000105a71:	80 ff ff 
ffff800000105a74:	8b 40 0c             	mov    0xc(%rax),%eax
ffff800000105a77:	39 c2                	cmp    %eax,%edx
ffff800000105a79:	7e 1a                	jle    ffff800000105a95 <draw_pointer+0x349>
ffff800000105a7b:	48 b8 e0 10 11 00 00 	movabs $0xffff8000001110e0,%rax
ffff800000105a82:	80 ff ff 
ffff800000105a85:	8b 40 0c             	mov    0xc(%rax),%eax
ffff800000105a88:	48 ba a0 17 11 00 00 	movabs $0xffff8000001117a0,%rdx
ffff800000105a8f:	80 ff ff 
ffff800000105a92:	89 42 04             	mov    %eax,0x4(%rdx)
ffff800000105a95:	90                   	nop
ffff800000105a96:	5d                   	pop    %rbp
ffff800000105a97:	c3                   	retq   

ffff800000105a98 <SetPixel>:
ffff800000105a98:	55                   	push   %rbp
ffff800000105a99:	48 89 e5             	mov    %rsp,%rbp
ffff800000105a9c:	89 7d ec             	mov    %edi,-0x14(%rbp)
ffff800000105a9f:	89 75 e8             	mov    %esi,-0x18(%rbp)
ffff800000105aa2:	48 89 55 e0          	mov    %rdx,-0x20(%rbp)
ffff800000105aa6:	48 b8 e0 10 11 00 00 	movabs $0xffff8000001110e0,%rax
ffff800000105aad:	80 ff ff 
ffff800000105ab0:	8b 40 0c             	mov    0xc(%rax),%eax
ffff800000105ab3:	39 45 e8             	cmp    %eax,-0x18(%rbp)
ffff800000105ab6:	7d 5c                	jge    ffff800000105b14 <SetPixel+0x7c>
ffff800000105ab8:	48 b8 e0 10 11 00 00 	movabs $0xffff8000001110e0,%rax
ffff800000105abf:	80 ff ff 
ffff800000105ac2:	8b 40 08             	mov    0x8(%rax),%eax
ffff800000105ac5:	39 45 ec             	cmp    %eax,-0x14(%rbp)
ffff800000105ac8:	7d 4a                	jge    ffff800000105b14 <SetPixel+0x7c>
ffff800000105aca:	83 7d ec 00          	cmpl   $0x0,-0x14(%rbp)
ffff800000105ace:	78 44                	js     ffff800000105b14 <SetPixel+0x7c>
ffff800000105ad0:	83 7d e8 00          	cmpl   $0x0,-0x18(%rbp)
ffff800000105ad4:	78 3e                	js     ffff800000105b14 <SetPixel+0x7c>
ffff800000105ad6:	48 b8 e0 10 11 00 00 	movabs $0xffff8000001110e0,%rax
ffff800000105add:	80 ff ff 
ffff800000105ae0:	8b 40 08             	mov    0x8(%rax),%eax
ffff800000105ae3:	8b 55 e8             	mov    -0x18(%rbp),%edx
ffff800000105ae6:	0f af c2             	imul   %edx,%eax
ffff800000105ae9:	89 45 fc             	mov    %eax,-0x4(%rbp)
ffff800000105aec:	48 b8 e0 10 11 00 00 	movabs $0xffff8000001110e0,%rax
ffff800000105af3:	80 ff ff 
ffff800000105af6:	48 8b 40 18          	mov    0x18(%rax),%rax
ffff800000105afa:	8b 4d fc             	mov    -0x4(%rbp),%ecx
ffff800000105afd:	8b 55 ec             	mov    -0x14(%rbp),%edx
ffff800000105b00:	01 ca                	add    %ecx,%edx
ffff800000105b02:	48 63 d2             	movslq %edx,%rdx
ffff800000105b05:	48 c1 e2 02          	shl    $0x2,%rdx
ffff800000105b09:	48 01 d0             	add    %rdx,%rax
ffff800000105b0c:	48 8b 55 e0          	mov    -0x20(%rbp),%rdx
ffff800000105b10:	89 10                	mov    %edx,(%rax)
ffff800000105b12:	eb 01                	jmp    ffff800000105b15 <SetPixel+0x7d>
ffff800000105b14:	90                   	nop
ffff800000105b15:	5d                   	pop    %rbp
ffff800000105b16:	c3                   	retq   

ffff800000105b17 <GetPixel>:
ffff800000105b17:	55                   	push   %rbp
ffff800000105b18:	48 89 e5             	mov    %rsp,%rbp
ffff800000105b1b:	89 7d fc             	mov    %edi,-0x4(%rbp)
ffff800000105b1e:	89 75 f8             	mov    %esi,-0x8(%rbp)
ffff800000105b21:	48 b8 e0 10 11 00 00 	movabs $0xffff8000001110e0,%rax
ffff800000105b28:	80 ff ff 
ffff800000105b2b:	48 8b 50 18          	mov    0x18(%rax),%rdx
ffff800000105b2f:	48 b8 e0 10 11 00 00 	movabs $0xffff8000001110e0,%rax
ffff800000105b36:	80 ff ff 
ffff800000105b39:	8b 40 08             	mov    0x8(%rax),%eax
ffff800000105b3c:	0f af 45 f8          	imul   -0x8(%rbp),%eax
ffff800000105b40:	89 c1                	mov    %eax,%ecx
ffff800000105b42:	8b 45 fc             	mov    -0x4(%rbp),%eax
ffff800000105b45:	01 c8                	add    %ecx,%eax
ffff800000105b47:	48 98                	cltq   
ffff800000105b49:	48 c1 e0 02          	shl    $0x2,%rax
ffff800000105b4d:	48 01 d0             	add    %rdx,%rax
ffff800000105b50:	8b 00                	mov    (%rax),%eax
ffff800000105b52:	89 c0                	mov    %eax,%eax
ffff800000105b54:	5d                   	pop    %rbp
ffff800000105b55:	c3                   	retq   

ffff800000105b56 <InitGraph>:
ffff800000105b56:	55                   	push   %rbp
ffff800000105b57:	48 89 e5             	mov    %rsp,%rbp
ffff800000105b5a:	48 89 7d f8          	mov    %rdi,-0x8(%rbp)
ffff800000105b5e:	48 ba e0 10 11 00 00 	movabs $0xffff8000001110e0,%rdx
ffff800000105b65:	80 ff ff 
ffff800000105b68:	48 8b 45 f8          	mov    -0x8(%rbp),%rax
ffff800000105b6c:	48 89 42 18          	mov    %rax,0x18(%rdx)
ffff800000105b70:	48 b8 e0 10 11 00 00 	movabs $0xffff8000001110e0,%rax
ffff800000105b77:	80 ff ff 
ffff800000105b7a:	c7 40 04 00 00 00 00 	movl   $0x0,0x4(%rax)
ffff800000105b81:	48 b8 e0 10 11 00 00 	movabs $0xffff8000001110e0,%rax
ffff800000105b88:	80 ff ff 
ffff800000105b8b:	8b 40 04             	mov    0x4(%rax),%eax
ffff800000105b8e:	48 ba e0 10 11 00 00 	movabs $0xffff8000001110e0,%rdx
ffff800000105b95:	80 ff ff 
ffff800000105b98:	89 02                	mov    %eax,(%rdx)
ffff800000105b9a:	48 b8 e0 10 11 00 00 	movabs $0xffff8000001110e0,%rax
ffff800000105ba1:	80 ff ff 
ffff800000105ba4:	c7 40 08 a0 05 00 00 	movl   $0x5a0,0x8(%rax)
ffff800000105bab:	48 b8 e0 10 11 00 00 	movabs $0xffff8000001110e0,%rax
ffff800000105bb2:	80 ff ff 
ffff800000105bb5:	c7 40 0c 84 03 00 00 	movl   $0x384,0xc(%rax)
ffff800000105bbc:	48 b8 e0 10 11 00 00 	movabs $0xffff8000001110e0,%rax
ffff800000105bc3:	80 ff ff 
ffff800000105bc6:	c7 40 14 10 00 00 00 	movl   $0x10,0x14(%rax)
ffff800000105bcd:	48 b8 e0 10 11 00 00 	movabs $0xffff8000001110e0,%rax
ffff800000105bd4:	80 ff ff 
ffff800000105bd7:	c7 40 10 08 00 00 00 	movl   $0x8,0x10(%rax)
ffff800000105bde:	90                   	nop
ffff800000105bdf:	5d                   	pop    %rbp
ffff800000105be0:	c3                   	retq   

ffff800000105be1 <TranslateX>:
ffff800000105be1:	55                   	push   %rbp
ffff800000105be2:	48 89 e5             	mov    %rsp,%rbp
ffff800000105be5:	89 7d fc             	mov    %edi,-0x4(%rbp)
ffff800000105be8:	48 b8 e0 10 11 00 00 	movabs $0xffff8000001110e0,%rax
ffff800000105bef:	80 ff ff 
ffff800000105bf2:	8b 10                	mov    (%rax),%edx
ffff800000105bf4:	8b 45 fc             	mov    -0x4(%rbp),%eax
ffff800000105bf7:	01 c2                	add    %eax,%edx
ffff800000105bf9:	48 b8 e0 10 11 00 00 	movabs $0xffff8000001110e0,%rax
ffff800000105c00:	80 ff ff 
ffff800000105c03:	89 10                	mov    %edx,(%rax)
ffff800000105c05:	48 b8 e0 10 11 00 00 	movabs $0xffff8000001110e0,%rax
ffff800000105c0c:	80 ff ff 
ffff800000105c0f:	8b 00                	mov    (%rax),%eax
ffff800000105c11:	85 c0                	test   %eax,%eax
ffff800000105c13:	79 78                	jns    ffff800000105c8d <TranslateX+0xac>
ffff800000105c15:	48 b8 e0 10 11 00 00 	movabs $0xffff8000001110e0,%rax
ffff800000105c1c:	80 ff ff 
ffff800000105c1f:	8b 50 08             	mov    0x8(%rax),%edx
ffff800000105c22:	48 b8 e0 10 11 00 00 	movabs $0xffff8000001110e0,%rax
ffff800000105c29:	80 ff ff 
ffff800000105c2c:	8b 00                	mov    (%rax),%eax
ffff800000105c2e:	01 c2                	add    %eax,%edx
ffff800000105c30:	48 b8 e0 10 11 00 00 	movabs $0xffff8000001110e0,%rax
ffff800000105c37:	80 ff ff 
ffff800000105c3a:	89 10                	mov    %edx,(%rax)
ffff800000105c3c:	48 b8 e0 10 11 00 00 	movabs $0xffff8000001110e0,%rax
ffff800000105c43:	80 ff ff 
ffff800000105c46:	8b 50 04             	mov    0x4(%rax),%edx
ffff800000105c49:	48 b8 e0 10 11 00 00 	movabs $0xffff8000001110e0,%rax
ffff800000105c50:	80 ff ff 
ffff800000105c53:	8b 40 14             	mov    0x14(%rax),%eax
ffff800000105c56:	29 c2                	sub    %eax,%edx
ffff800000105c58:	48 b8 e0 10 11 00 00 	movabs $0xffff8000001110e0,%rax
ffff800000105c5f:	80 ff ff 
ffff800000105c62:	89 50 04             	mov    %edx,0x4(%rax)
ffff800000105c65:	48 b8 e0 10 11 00 00 	movabs $0xffff8000001110e0,%rax
ffff800000105c6c:	80 ff ff 
ffff800000105c6f:	8b 40 04             	mov    0x4(%rax),%eax
ffff800000105c72:	85 c0                	test   %eax,%eax
ffff800000105c74:	0f 89 81 00 00 00    	jns    ffff800000105cfb <TranslateX+0x11a>
ffff800000105c7a:	48 b8 e0 10 11 00 00 	movabs $0xffff8000001110e0,%rax
ffff800000105c81:	80 ff ff 
ffff800000105c84:	c7 40 04 00 00 00 00 	movl   $0x0,0x4(%rax)
ffff800000105c8b:	eb 6e                	jmp    ffff800000105cfb <TranslateX+0x11a>
ffff800000105c8d:	48 b8 e0 10 11 00 00 	movabs $0xffff8000001110e0,%rax
ffff800000105c94:	80 ff ff 
ffff800000105c97:	8b 10                	mov    (%rax),%edx
ffff800000105c99:	48 b8 e0 10 11 00 00 	movabs $0xffff8000001110e0,%rax
ffff800000105ca0:	80 ff ff 
ffff800000105ca3:	8b 40 08             	mov    0x8(%rax),%eax
ffff800000105ca6:	39 c2                	cmp    %eax,%edx
ffff800000105ca8:	7c 51                	jl     ffff800000105cfb <TranslateX+0x11a>
ffff800000105caa:	48 b8 e0 10 11 00 00 	movabs $0xffff8000001110e0,%rax
ffff800000105cb1:	80 ff ff 
ffff800000105cb4:	8b 50 04             	mov    0x4(%rax),%edx
ffff800000105cb7:	48 b8 e0 10 11 00 00 	movabs $0xffff8000001110e0,%rax
ffff800000105cbe:	80 ff ff 
ffff800000105cc1:	8b 40 14             	mov    0x14(%rax),%eax
ffff800000105cc4:	01 c2                	add    %eax,%edx
ffff800000105cc6:	48 b8 e0 10 11 00 00 	movabs $0xffff8000001110e0,%rax
ffff800000105ccd:	80 ff ff 
ffff800000105cd0:	89 50 04             	mov    %edx,0x4(%rax)
ffff800000105cd3:	48 b8 e0 10 11 00 00 	movabs $0xffff8000001110e0,%rax
ffff800000105cda:	80 ff ff 
ffff800000105cdd:	8b 00                	mov    (%rax),%eax
ffff800000105cdf:	48 ba e0 10 11 00 00 	movabs $0xffff8000001110e0,%rdx
ffff800000105ce6:	80 ff ff 
ffff800000105ce9:	8b 4a 08             	mov    0x8(%rdx),%ecx
ffff800000105cec:	99                   	cltd   
ffff800000105ced:	f7 f9                	idiv   %ecx
ffff800000105cef:	48 b8 e0 10 11 00 00 	movabs $0xffff8000001110e0,%rax
ffff800000105cf6:	80 ff ff 
ffff800000105cf9:	89 10                	mov    %edx,(%rax)
ffff800000105cfb:	90                   	nop
ffff800000105cfc:	5d                   	pop    %rbp
ffff800000105cfd:	c3                   	retq   

ffff800000105cfe <cls>:
ffff800000105cfe:	55                   	push   %rbp
ffff800000105cff:	48 89 e5             	mov    %rsp,%rbp
ffff800000105d02:	48 b8 e0 10 11 00 00 	movabs $0xffff8000001110e0,%rax
ffff800000105d09:	80 ff ff 
ffff800000105d0c:	c7 40 04 00 00 00 00 	movl   $0x0,0x4(%rax)
ffff800000105d13:	48 b8 e0 10 11 00 00 	movabs $0xffff8000001110e0,%rax
ffff800000105d1a:	80 ff ff 
ffff800000105d1d:	8b 40 04             	mov    0x4(%rax),%eax
ffff800000105d20:	48 ba e0 10 11 00 00 	movabs $0xffff8000001110e0,%rdx
ffff800000105d27:	80 ff ff 
ffff800000105d2a:	89 02                	mov    %eax,(%rdx)
ffff800000105d2c:	48 b8 e0 10 11 00 00 	movabs $0xffff8000001110e0,%rax
ffff800000105d33:	80 ff ff 
ffff800000105d36:	8b 50 08             	mov    0x8(%rax),%edx
ffff800000105d39:	48 b8 e0 10 11 00 00 	movabs $0xffff8000001110e0,%rax
ffff800000105d40:	80 ff ff 
ffff800000105d43:	8b 40 0c             	mov    0xc(%rax),%eax
ffff800000105d46:	0f af c2             	imul   %edx,%eax
ffff800000105d49:	48 98                	cltq   
ffff800000105d4b:	48 c1 e0 02          	shl    $0x2,%rax
ffff800000105d4f:	48 89 c2             	mov    %rax,%rdx
ffff800000105d52:	48 b8 e0 10 11 00 00 	movabs $0xffff8000001110e0,%rax
ffff800000105d59:	80 ff ff 
ffff800000105d5c:	48 8b 40 18          	mov    0x18(%rax),%rax
ffff800000105d60:	be 00 00 00 00       	mov    $0x0,%esi
ffff800000105d65:	48 89 c7             	mov    %rax,%rdi
ffff800000105d68:	48 b8 b1 43 10 00 00 	movabs $0xffff8000001043b1,%rax
ffff800000105d6f:	80 ff ff 
ffff800000105d72:	ff d0                	callq  *%rax
ffff800000105d74:	90                   	nop
ffff800000105d75:	5d                   	pop    %rbp
ffff800000105d76:	c3                   	retq   

ffff800000105d77 <backspace>:
ffff800000105d77:	55                   	push   %rbp
ffff800000105d78:	48 89 e5             	mov    %rsp,%rbp
ffff800000105d7b:	48 83 ec 20          	sub    $0x20,%rsp
ffff800000105d7f:	89 7d ec             	mov    %edi,-0x14(%rbp)
ffff800000105d82:	8b 45 ec             	mov    -0x14(%rbp),%eax
ffff800000105d85:	f7 d8                	neg    %eax
ffff800000105d87:	89 c2                	mov    %eax,%edx
ffff800000105d89:	48 b8 e0 10 11 00 00 	movabs $0xffff8000001110e0,%rax
ffff800000105d90:	80 ff ff 
ffff800000105d93:	8b 40 10             	mov    0x10(%rax),%eax
ffff800000105d96:	0f af c2             	imul   %edx,%eax
ffff800000105d99:	89 c7                	mov    %eax,%edi
ffff800000105d9b:	48 b8 e1 5b 10 00 00 	movabs $0xffff800000105be1,%rax
ffff800000105da2:	80 ff ff 
ffff800000105da5:	ff d0                	callq  *%rax
ffff800000105da7:	c7 45 fc 00 00 00 00 	movl   $0x0,-0x4(%rbp)
ffff800000105dae:	eb 1f                	jmp    ffff800000105dcf <backspace+0x58>
ffff800000105db0:	48 bf b8 b8 10 00 00 	movabs $0xffff80000010b8b8,%rdi
ffff800000105db7:	80 ff ff 
ffff800000105dba:	b8 00 00 00 00       	mov    $0x0,%eax
ffff800000105dbf:	48 ba 50 30 10 00 00 	movabs $0xffff800000103050,%rdx
ffff800000105dc6:	80 ff ff 
ffff800000105dc9:	ff d2                	callq  *%rdx
ffff800000105dcb:	83 45 fc 01          	addl   $0x1,-0x4(%rbp)
ffff800000105dcf:	8b 45 fc             	mov    -0x4(%rbp),%eax
ffff800000105dd2:	3b 45 ec             	cmp    -0x14(%rbp),%eax
ffff800000105dd5:	7c d9                	jl     ffff800000105db0 <backspace+0x39>
ffff800000105dd7:	8b 45 ec             	mov    -0x14(%rbp),%eax
ffff800000105dda:	f7 d8                	neg    %eax
ffff800000105ddc:	89 c2                	mov    %eax,%edx
ffff800000105dde:	48 b8 e0 10 11 00 00 	movabs $0xffff8000001110e0,%rax
ffff800000105de5:	80 ff ff 
ffff800000105de8:	8b 40 10             	mov    0x10(%rax),%eax
ffff800000105deb:	0f af c2             	imul   %edx,%eax
ffff800000105dee:	89 c7                	mov    %eax,%edi
ffff800000105df0:	48 b8 e1 5b 10 00 00 	movabs $0xffff800000105be1,%rax
ffff800000105df7:	80 ff ff 
ffff800000105dfa:	ff d0                	callq  *%rax
ffff800000105dfc:	90                   	nop
ffff800000105dfd:	c9                   	leaveq 
ffff800000105dfe:	c3                   	retq   

ffff800000105dff <set_background>:
ffff800000105dff:	55                   	push   %rbp
ffff800000105e00:	48 89 e5             	mov    %rsp,%rbp
ffff800000105e03:	48 89 7d f8          	mov    %rdi,-0x8(%rbp)
ffff800000105e07:	89 75 f4             	mov    %esi,-0xc(%rbp)
ffff800000105e0a:	89 55 f0             	mov    %edx,-0x10(%rbp)
ffff800000105e0d:	90                   	nop
ffff800000105e0e:	5d                   	pop    %rbp
ffff800000105e0f:	c3                   	retq   

ffff800000105e10 <InitMemory>:
ffff800000105e10:	55                   	push   %rbp
ffff800000105e11:	48 89 e5             	mov    %rsp,%rbp
ffff800000105e14:	b8 00 00 00 00       	mov    $0x0,%eax
ffff800000105e19:	48 ba ed 61 10 00 00 	movabs $0xffff8000001061ed,%rdx
ffff800000105e20:	80 ff ff 
ffff800000105e23:	ff d2                	callq  *%rdx
ffff800000105e25:	b8 00 00 00 00       	mov    $0x0,%eax
ffff800000105e2a:	48 ba 5b 5e 10 00 00 	movabs $0xffff800000105e5b,%rdx
ffff800000105e31:	80 ff ff 
ffff800000105e34:	ff d2                	callq  *%rdx
ffff800000105e36:	b8 00 00 00 00       	mov    $0x0,%eax
ffff800000105e3b:	48 ba 8b 69 10 00 00 	movabs $0xffff80000010698b,%rdx
ffff800000105e42:	80 ff ff 
ffff800000105e45:	ff d2                	callq  *%rdx
ffff800000105e47:	b8 00 00 00 00       	mov    $0x0,%eax
ffff800000105e4c:	48 ba e3 73 10 00 00 	movabs $0xffff8000001073e3,%rdx
ffff800000105e53:	80 ff ff 
ffff800000105e56:	ff d2                	callq  *%rdx
ffff800000105e58:	90                   	nop
ffff800000105e59:	5d                   	pop    %rbp
ffff800000105e5a:	c3                   	retq   

ffff800000105e5b <init_page>:
ffff800000105e5b:	55                   	push   %rbp
ffff800000105e5c:	48 89 e5             	mov    %rsp,%rbp
ffff800000105e5f:	48 83 ec 30          	sub    $0x30,%rsp
ffff800000105e63:	48 b8 00 15 11 00 00 	movabs $0xffff800000111500,%rax
ffff800000105e6a:	80 ff ff 
ffff800000105e6d:	48 8b 40 68          	mov    0x68(%rax),%rax
ffff800000105e71:	48 89 45 e0          	mov    %rax,-0x20(%rbp)
ffff800000105e75:	48 b8 00 15 11 00 00 	movabs $0xffff800000111500,%rax
ffff800000105e7c:	80 ff ff 
ffff800000105e7f:	8b 80 80 00 00 00    	mov    0x80(%rax),%eax
ffff800000105e85:	48 63 d0             	movslq %eax,%rdx
ffff800000105e88:	48 8b 45 e0          	mov    -0x20(%rbp),%rax
ffff800000105e8c:	48 01 d0             	add    %rdx,%rax
ffff800000105e8f:	48 89 45 d8          	mov    %rax,-0x28(%rbp)
ffff800000105e93:	48 ba 00 15 11 00 00 	movabs $0xffff800000111500,%rdx
ffff800000105e9a:	80 ff ff 
ffff800000105e9d:	48 8b 45 d8          	mov    -0x28(%rbp),%rax
ffff800000105ea1:	48 89 42 50          	mov    %rax,0x50(%rdx)
ffff800000105ea5:	48 8b 45 e0          	mov    -0x20(%rbp),%rax
ffff800000105ea9:	48 89 c1             	mov    %rax,%rcx
ffff800000105eac:	48 ba c0 b8 10 00 00 	movabs $0xffff80000010b8c0,%rdx
ffff800000105eb3:	80 ff ff 
ffff800000105eb6:	be ff ff 00 00       	mov    $0xffff,%esi
ffff800000105ebb:	bf 00 00 00 00       	mov    $0x0,%edi
ffff800000105ec0:	b8 00 00 00 00       	mov    $0x0,%eax
ffff800000105ec5:	49 b8 ed 27 10 00 00 	movabs $0xffff8000001027ed,%r8
ffff800000105ecc:	80 ff ff 
ffff800000105ecf:	41 ff d0             	callq  *%r8
ffff800000105ed2:	48 b8 00 15 11 00 00 	movabs $0xffff800000111500,%rax
ffff800000105ed9:	80 ff ff 
ffff800000105edc:	8b 80 80 00 00 00    	mov    0x80(%rax),%eax
ffff800000105ee2:	48 63 d0             	movslq %eax,%rdx
ffff800000105ee5:	48 b8 00 15 11 00 00 	movabs $0xffff800000111500,%rax
ffff800000105eec:	80 ff ff 
ffff800000105eef:	48 8b 40 68          	mov    0x68(%rax),%rax
ffff800000105ef3:	be 00 00 00 00       	mov    $0x0,%esi
ffff800000105ef8:	48 89 c7             	mov    %rax,%rdi
ffff800000105efb:	48 b8 b1 43 10 00 00 	movabs $0xffff8000001043b1,%rax
ffff800000105f02:	80 ff ff 
ffff800000105f05:	ff d0                	callq  *%rax
ffff800000105f07:	48 c7 45 f8 00 00 00 	movq   $0x0,-0x8(%rbp)
ffff800000105f0e:	00 
ffff800000105f0f:	eb 1c                	jmp    ffff800000105f2d <init_page+0xd2>
ffff800000105f11:	48 8b 45 f8          	mov    -0x8(%rbp),%rax
ffff800000105f15:	be 83 00 00 00       	mov    $0x83,%esi
ffff800000105f1a:	89 c7                	mov    %eax,%edi
ffff800000105f1c:	48 b8 0f 65 10 00 00 	movabs $0xffff80000010650f,%rax
ffff800000105f23:	80 ff ff 
ffff800000105f26:	ff d0                	callq  *%rax
ffff800000105f28:	48 83 45 f8 01       	addq   $0x1,-0x8(%rbp)
ffff800000105f2d:	48 8b 45 f8          	mov    -0x8(%rbp),%rax
ffff800000105f31:	48 c1 e0 15          	shl    $0x15,%rax
ffff800000105f35:	48 89 c2             	mov    %rax,%rdx
ffff800000105f38:	48 b8 00 15 11 00 00 	movabs $0xffff800000111500,%rax
ffff800000105f3f:	80 ff ff 
ffff800000105f42:	48 8b 40 78          	mov    0x78(%rax),%rax
ffff800000105f46:	48 b9 00 00 00 00 00 	movabs $0x800000000000,%rcx
ffff800000105f4d:	80 00 00 
ffff800000105f50:	48 01 c8             	add    %rcx,%rax
ffff800000105f53:	48 39 c2             	cmp    %rax,%rdx
ffff800000105f56:	72 b9                	jb     ffff800000105f11 <init_page+0xb6>
ffff800000105f58:	48 8b 45 f8          	mov    -0x8(%rbp),%rax
ffff800000105f5c:	48 89 c1             	mov    %rax,%rcx
ffff800000105f5f:	48 ba d2 b8 10 00 00 	movabs $0xffff80000010b8d2,%rdx
ffff800000105f66:	80 ff ff 
ffff800000105f69:	be ff ff 00 00       	mov    $0xffff,%esi
ffff800000105f6e:	bf 00 00 00 00       	mov    $0x0,%edi
ffff800000105f73:	b8 00 00 00 00       	mov    $0x0,%eax
ffff800000105f78:	49 b8 ed 27 10 00 00 	movabs $0xffff8000001027ed,%r8
ffff800000105f7f:	80 ff ff 
ffff800000105f82:	41 ff d0             	callq  *%r8
ffff800000105f85:	48 8b 45 f8          	mov    -0x8(%rbp),%rax
ffff800000105f89:	48 89 45 f0          	mov    %rax,-0x10(%rbp)
ffff800000105f8d:	48 c7 45 f8 00 00 00 	movq   $0x0,-0x8(%rbp)
ffff800000105f94:	00 
ffff800000105f95:	e9 a1 01 00 00       	jmpq   ffff80000010613b <init_page+0x2e0>
ffff800000105f9a:	48 ba 00 15 11 00 00 	movabs $0xffff800000111500,%rdx
ffff800000105fa1:	80 ff ff 
ffff800000105fa4:	48 8b 45 f8          	mov    -0x8(%rbp),%rax
ffff800000105fa8:	48 8b 04 c2          	mov    (%rdx,%rax,8),%rax
ffff800000105fac:	48 8b 40 10          	mov    0x10(%rax),%rax
ffff800000105fb0:	48 85 c0             	test   %rax,%rax
ffff800000105fb3:	0f 84 79 01 00 00    	je     ffff800000106132 <init_page+0x2d7>
ffff800000105fb9:	48 ba 00 15 11 00 00 	movabs $0xffff800000111500,%rdx
ffff800000105fc0:	80 ff ff 
ffff800000105fc3:	48 8b 45 f8          	mov    -0x8(%rbp),%rax
ffff800000105fc7:	48 8b 04 c2          	mov    (%rdx,%rax,8),%rax
ffff800000105fcb:	48 8b 00             	mov    (%rax),%rax
ffff800000105fce:	48 89 45 d0          	mov    %rax,-0x30(%rbp)
ffff800000105fd2:	48 8b 45 d0          	mov    -0x30(%rbp),%rax
ffff800000105fd6:	48 c1 e8 15          	shr    $0x15,%rax
ffff800000105fda:	48 89 45 e8          	mov    %rax,-0x18(%rbp)
ffff800000105fde:	48 8b 45 e8          	mov    -0x18(%rbp),%rax
ffff800000105fe2:	48 3b 45 f0          	cmp    -0x10(%rbp),%rax
ffff800000105fe6:	0f 82 49 01 00 00    	jb     ffff800000106135 <init_page+0x2da>
ffff800000105fec:	eb 3e                	jmp    ffff80000010602c <init_page+0x1d1>
ffff800000105fee:	48 8b 45 f0          	mov    -0x10(%rbp),%rax
ffff800000105ff2:	48 89 c6             	mov    %rax,%rsi
ffff800000105ff5:	48 bf ed b8 10 00 00 	movabs $0xffff80000010b8ed,%rdi
ffff800000105ffc:	80 ff ff 
ffff800000105fff:	b8 00 00 00 00       	mov    $0x0,%eax
ffff800000106004:	48 ba 50 30 10 00 00 	movabs $0xffff800000103050,%rdx
ffff80000010600b:	80 ff ff 
ffff80000010600e:	ff d2                	callq  *%rdx
ffff800000106010:	48 8b 45 f0          	mov    -0x10(%rbp),%rax
ffff800000106014:	be 83 00 00 00       	mov    $0x83,%esi
ffff800000106019:	89 c7                	mov    %eax,%edi
ffff80000010601b:	48 b8 0f 65 10 00 00 	movabs $0xffff80000010650f,%rax
ffff800000106022:	80 ff ff 
ffff800000106025:	ff d0                	callq  *%rax
ffff800000106027:	48 83 45 f0 01       	addq   $0x1,-0x10(%rbp)
ffff80000010602c:	48 8b 45 f0          	mov    -0x10(%rbp),%rax
ffff800000106030:	48 3b 45 e8          	cmp    -0x18(%rbp),%rax
ffff800000106034:	72 b8                	jb     ffff800000105fee <init_page+0x193>
ffff800000106036:	e9 b5 00 00 00       	jmpq   ffff8000001060f0 <init_page+0x295>
ffff80000010603b:	48 b8 00 15 11 00 00 	movabs $0xffff800000111500,%rax
ffff800000106042:	80 ff ff 
ffff800000106045:	48 8b 48 50          	mov    0x50(%rax),%rcx
ffff800000106049:	48 8b 55 e8          	mov    -0x18(%rbp),%rdx
ffff80000010604d:	48 89 d0             	mov    %rdx,%rax
ffff800000106050:	48 01 c0             	add    %rax,%rax
ffff800000106053:	48 01 d0             	add    %rdx,%rax
ffff800000106056:	48 c1 e0 03          	shl    $0x3,%rax
ffff80000010605a:	48 01 c8             	add    %rcx,%rax
ffff80000010605d:	48 8b 55 e8          	mov    -0x18(%rbp),%rdx
ffff800000106061:	48 c1 e2 15          	shl    $0x15,%rdx
ffff800000106065:	48 89 50 08          	mov    %rdx,0x8(%rax)
ffff800000106069:	48 b8 00 15 11 00 00 	movabs $0xffff800000111500,%rax
ffff800000106070:	80 ff ff 
ffff800000106073:	48 8b 48 50          	mov    0x50(%rax),%rcx
ffff800000106077:	48 8b 55 e8          	mov    -0x18(%rbp),%rdx
ffff80000010607b:	48 89 d0             	mov    %rdx,%rax
ffff80000010607e:	48 01 c0             	add    %rax,%rax
ffff800000106081:	48 01 d0             	add    %rdx,%rax
ffff800000106084:	48 c1 e0 03          	shl    $0x3,%rax
ffff800000106088:	48 01 c8             	add    %rcx,%rax
ffff80000010608b:	48 8b 48 08          	mov    0x8(%rax),%rcx
ffff80000010608f:	48 b8 00 15 11 00 00 	movabs $0xffff800000111500,%rax
ffff800000106096:	80 ff ff 
ffff800000106099:	48 8b 70 50          	mov    0x50(%rax),%rsi
ffff80000010609d:	48 8b 55 e8          	mov    -0x18(%rbp),%rdx
ffff8000001060a1:	48 89 d0             	mov    %rdx,%rax
ffff8000001060a4:	48 01 c0             	add    %rax,%rax
ffff8000001060a7:	48 01 d0             	add    %rdx,%rax
ffff8000001060aa:	48 c1 e0 03          	shl    $0x3,%rax
ffff8000001060ae:	48 01 f0             	add    %rsi,%rax
ffff8000001060b1:	48 ba 00 00 00 00 00 	movabs $0xffff800000000000,%rdx
ffff8000001060b8:	80 ff ff 
ffff8000001060bb:	48 01 ca             	add    %rcx,%rdx
ffff8000001060be:	48 89 10             	mov    %rdx,(%rax)
ffff8000001060c1:	48 b8 00 15 11 00 00 	movabs $0xffff800000111500,%rax
ffff8000001060c8:	80 ff ff 
ffff8000001060cb:	48 8b 48 50          	mov    0x50(%rax),%rcx
ffff8000001060cf:	48 8b 55 e8          	mov    -0x18(%rbp),%rdx
ffff8000001060d3:	48 89 d0             	mov    %rdx,%rax
ffff8000001060d6:	48 01 c0             	add    %rax,%rax
ffff8000001060d9:	48 01 d0             	add    %rdx,%rax
ffff8000001060dc:	48 c1 e0 03          	shl    $0x3,%rax
ffff8000001060e0:	48 01 c8             	add    %rcx,%rax
ffff8000001060e3:	48 c7 40 10 00 00 00 	movq   $0x0,0x10(%rax)
ffff8000001060ea:	00 
ffff8000001060eb:	48 83 45 e8 01       	addq   $0x1,-0x18(%rbp)
ffff8000001060f0:	48 ba 00 15 11 00 00 	movabs $0xffff800000111500,%rdx
ffff8000001060f7:	80 ff ff 
ffff8000001060fa:	48 8b 45 f8          	mov    -0x8(%rbp),%rax
ffff8000001060fe:	48 8b 04 c2          	mov    (%rdx,%rax,8),%rax
ffff800000106102:	48 8b 40 10          	mov    0x10(%rax),%rax
ffff800000106106:	48 39 45 e8          	cmp    %rax,-0x18(%rbp)
ffff80000010610a:	0f 86 2b ff ff ff    	jbe    ffff80000010603b <init_page+0x1e0>
ffff800000106110:	48 ba 00 15 11 00 00 	movabs $0xffff800000111500,%rdx
ffff800000106117:	80 ff ff 
ffff80000010611a:	48 8b 45 f8          	mov    -0x8(%rbp),%rax
ffff80000010611e:	48 8b 04 c2          	mov    (%rdx,%rax,8),%rax
ffff800000106122:	48 8b 40 18          	mov    0x18(%rax),%rax
ffff800000106126:	48 25 00 00 e0 ff    	and    $0xffffffffffe00000,%rax
ffff80000010612c:	48 89 45 f0          	mov    %rax,-0x10(%rbp)
ffff800000106130:	eb 04                	jmp    ffff800000106136 <init_page+0x2db>
ffff800000106132:	90                   	nop
ffff800000106133:	eb 01                	jmp    ffff800000106136 <init_page+0x2db>
ffff800000106135:	90                   	nop
ffff800000106136:	48 83 45 f8 01       	addq   $0x1,-0x8(%rbp)
ffff80000010613b:	48 b8 bc 17 11 00 00 	movabs $0xffff8000001117bc,%rax
ffff800000106142:	80 ff ff 
ffff800000106145:	8b 00                	mov    (%rax),%eax
ffff800000106147:	48 98                	cltq   
ffff800000106149:	48 39 45 f8          	cmp    %rax,-0x8(%rbp)
ffff80000010614d:	0f 82 47 fe ff ff    	jb     ffff800000105f9a <init_page+0x13f>
ffff800000106153:	be 83 00 00 00       	mov    $0x83,%esi
ffff800000106158:	bf 05 00 00 00       	mov    $0x5,%edi
ffff80000010615d:	48 b8 0f 65 10 00 00 	movabs $0xffff80000010650f,%rax
ffff800000106164:	80 ff ff 
ffff800000106167:	ff d0                	callq  *%rax
ffff800000106169:	be 83 00 00 00       	mov    $0x83,%esi
ffff80000010616e:	bf 06 00 00 00       	mov    $0x6,%edi
ffff800000106173:	48 b8 0f 65 10 00 00 	movabs $0xffff80000010650f,%rax
ffff80000010617a:	80 ff ff 
ffff80000010617d:	ff d0                	callq  *%rax
ffff80000010617f:	be 83 00 00 00       	mov    $0x83,%esi
ffff800000106184:	bf 07 00 00 00       	mov    $0x7,%edi
ffff800000106189:	48 b8 0f 65 10 00 00 	movabs $0xffff80000010650f,%rax
ffff800000106190:	80 ff ff 
ffff800000106193:	ff d0                	callq  *%rax
ffff800000106195:	48 b8 00 15 11 00 00 	movabs $0xffff800000111500,%rax
ffff80000010619c:	80 ff ff 
ffff80000010619f:	48 8b 48 50          	mov    0x50(%rax),%rcx
ffff8000001061a3:	48 b8 00 15 11 00 00 	movabs $0xffff800000111500,%rax
ffff8000001061aa:	80 ff ff 
ffff8000001061ad:	48 8b 50 58          	mov    0x58(%rax),%rdx
ffff8000001061b1:	48 89 d0             	mov    %rdx,%rax
ffff8000001061b4:	48 01 c0             	add    %rax,%rax
ffff8000001061b7:	48 01 d0             	add    %rdx,%rax
ffff8000001061ba:	48 c1 e0 03          	shl    $0x3,%rax
ffff8000001061be:	48 01 c8             	add    %rcx,%rax
ffff8000001061c1:	48 89 c1             	mov    %rax,%rcx
ffff8000001061c4:	48 ba f6 b8 10 00 00 	movabs $0xffff80000010b8f6,%rdx
ffff8000001061cb:	80 ff ff 
ffff8000001061ce:	be 00 ff 00 00       	mov    $0xff00,%esi
ffff8000001061d3:	bf 00 00 00 00       	mov    $0x0,%edi
ffff8000001061d8:	b8 00 00 00 00       	mov    $0x0,%eax
ffff8000001061dd:	49 b8 ed 27 10 00 00 	movabs $0xffff8000001027ed,%r8
ffff8000001061e4:	80 ff ff 
ffff8000001061e7:	41 ff d0             	callq  *%r8
ffff8000001061ea:	90                   	nop
ffff8000001061eb:	c9                   	leaveq 
ffff8000001061ec:	c3                   	retq   

ffff8000001061ed <search_memory>:
ffff8000001061ed:	55                   	push   %rbp
ffff8000001061ee:	48 89 e5             	mov    %rsp,%rbp
ffff8000001061f1:	48 83 ec 20          	sub    $0x20,%rsp
ffff8000001061f5:	48 b8 bc 17 11 00 00 	movabs $0xffff8000001117bc,%rax
ffff8000001061fc:	80 ff ff 
ffff8000001061ff:	c7 00 00 00 00 00    	movl   $0x0,(%rax)
ffff800000106205:	48 c7 45 f8 00 00 00 	movq   $0x0,-0x8(%rbp)
ffff80000010620c:	00 
ffff80000010620d:	48 b8 00 00 00 00 00 	movabs $0xffff800000000000,%rax
ffff800000106214:	80 ff ff 
ffff800000106217:	48 89 45 f0          	mov    %rax,-0x10(%rbp)
ffff80000010621b:	48 ba 00 00 10 00 00 	movabs $0xffff800000100000,%rdx
ffff800000106222:	80 ff ff 
ffff800000106225:	48 b8 00 15 11 00 00 	movabs $0xffff800000111500,%rax
ffff80000010622c:	80 ff ff 
ffff80000010622f:	48 89 50 70          	mov    %rdx,0x70(%rax)
ffff800000106233:	48 ba 40 2b 11 00 00 	movabs $0xffff800000112b40,%rdx
ffff80000010623a:	80 ff ff 
ffff80000010623d:	48 b8 00 15 11 00 00 	movabs $0xffff800000111500,%rax
ffff800000106244:	80 ff ff 
ffff800000106247:	48 89 50 78          	mov    %rdx,0x78(%rax)
ffff80000010624b:	48 c7 45 e8 00 00 00 	movq   $0x0,-0x18(%rbp)
ffff800000106252:	00 
ffff800000106253:	48 b8 00 7c 00 00 00 	movabs $0xffff800000007c00,%rax
ffff80000010625a:	80 ff ff 
ffff80000010625d:	48 89 45 f8          	mov    %rax,-0x8(%rbp)
ffff800000106261:	c7 45 e4 00 00 00 00 	movl   $0x0,-0x1c(%rbp)
ffff800000106268:	e9 bd 01 00 00       	jmpq   ffff80000010642a <search_memory+0x23d>
ffff80000010626d:	48 8b 45 f8          	mov    -0x8(%rbp),%rax
ffff800000106271:	8b 48 10             	mov    0x10(%rax),%ecx
ffff800000106274:	48 8b 45 f8          	mov    -0x8(%rbp),%rax
ffff800000106278:	48 8b 50 08          	mov    0x8(%rax),%rdx
ffff80000010627c:	48 8b 45 f8          	mov    -0x8(%rbp),%rax
ffff800000106280:	48 8b 00             	mov    (%rax),%rax
ffff800000106283:	41 89 c9             	mov    %ecx,%r9d
ffff800000106286:	49 89 d0             	mov    %rdx,%r8
ffff800000106289:	48 89 c1             	mov    %rax,%rcx
ffff80000010628c:	48 ba 08 b9 10 00 00 	movabs $0xffff80000010b908,%rdx
ffff800000106293:	80 ff ff 
ffff800000106296:	be 00 ff 00 00       	mov    $0xff00,%esi
ffff80000010629b:	bf 00 00 00 00       	mov    $0x0,%edi
ffff8000001062a0:	b8 00 00 00 00       	mov    $0x0,%eax
ffff8000001062a5:	49 ba ed 27 10 00 00 	movabs $0xffff8000001027ed,%r10
ffff8000001062ac:	80 ff ff 
ffff8000001062af:	41 ff d2             	callq  *%r10
ffff8000001062b2:	48 8b 45 f8          	mov    -0x8(%rbp),%rax
ffff8000001062b6:	8b 40 10             	mov    0x10(%rax),%eax
ffff8000001062b9:	83 f8 01             	cmp    $0x1,%eax
ffff8000001062bc:	0f 85 43 01 00 00    	jne    ffff800000106405 <search_memory+0x218>
ffff8000001062c2:	48 8b 45 f8          	mov    -0x8(%rbp),%rax
ffff8000001062c6:	48 8b 00             	mov    (%rax),%rax
ffff8000001062c9:	48 05 ff ff 1f 00    	add    $0x1fffff,%rax
ffff8000001062cf:	48 25 00 00 e0 ff    	and    $0xffffffffffe00000,%rax
ffff8000001062d5:	48 89 c2             	mov    %rax,%rdx
ffff8000001062d8:	48 8b 45 f0          	mov    -0x10(%rbp),%rax
ffff8000001062dc:	48 89 10             	mov    %rdx,(%rax)
ffff8000001062df:	48 8b 45 f0          	mov    -0x10(%rbp),%rax
ffff8000001062e3:	48 8b 00             	mov    (%rax),%rax
ffff8000001062e6:	48 ba 00 00 00 00 00 	movabs $0xffff800000000000,%rdx
ffff8000001062ed:	80 ff ff 
ffff8000001062f0:	48 01 c2             	add    %rax,%rdx
ffff8000001062f3:	48 8b 45 f0          	mov    -0x10(%rbp),%rax
ffff8000001062f7:	48 89 50 08          	mov    %rdx,0x8(%rax)
ffff8000001062fb:	48 8b 45 f8          	mov    -0x8(%rbp),%rax
ffff8000001062ff:	48 8b 50 08          	mov    0x8(%rax),%rdx
ffff800000106303:	48 8b 45 f8          	mov    -0x8(%rbp),%rax
ffff800000106307:	48 8b 00             	mov    (%rax),%rax
ffff80000010630a:	48 05 ff ff 1f 00    	add    $0x1fffff,%rax
ffff800000106310:	48 25 00 00 e0 ff    	and    $0xffffffffffe00000,%rax
ffff800000106316:	48 01 c2             	add    %rax,%rdx
ffff800000106319:	48 8b 45 f8          	mov    -0x8(%rbp),%rax
ffff80000010631d:	48 8b 00             	mov    (%rax),%rax
ffff800000106320:	48 29 c2             	sub    %rax,%rdx
ffff800000106323:	48 89 d0             	mov    %rdx,%rax
ffff800000106326:	48 c1 e8 15          	shr    $0x15,%rax
ffff80000010632a:	48 89 c2             	mov    %rax,%rdx
ffff80000010632d:	48 8b 45 f0          	mov    -0x10(%rbp),%rax
ffff800000106331:	48 89 50 10          	mov    %rdx,0x10(%rax)
ffff800000106335:	48 8b 45 f8          	mov    -0x8(%rbp),%rax
ffff800000106339:	48 8b 10             	mov    (%rax),%rdx
ffff80000010633c:	48 8b 45 f8          	mov    -0x8(%rbp),%rax
ffff800000106340:	48 8b 40 08          	mov    0x8(%rax),%rax
ffff800000106344:	48 01 c2             	add    %rax,%rdx
ffff800000106347:	48 8b 45 f0          	mov    -0x10(%rbp),%rax
ffff80000010634b:	48 89 50 18          	mov    %rdx,0x18(%rax)
ffff80000010634f:	48 8b 45 f0          	mov    -0x10(%rbp),%rax
ffff800000106353:	48 8b 50 10          	mov    0x10(%rax),%rdx
ffff800000106357:	48 8b 45 f0          	mov    -0x10(%rbp),%rax
ffff80000010635b:	48 8b 70 10          	mov    0x10(%rax),%rsi
ffff80000010635f:	48 8b 45 f0          	mov    -0x10(%rbp),%rax
ffff800000106363:	48 8b 48 08          	mov    0x8(%rax),%rcx
ffff800000106367:	48 8b 45 f0          	mov    -0x10(%rbp),%rax
ffff80000010636b:	48 8b 00             	mov    (%rax),%rax
ffff80000010636e:	48 83 ec 08          	sub    $0x8,%rsp
ffff800000106372:	52                   	push   %rdx
ffff800000106373:	49 89 f1             	mov    %rsi,%r9
ffff800000106376:	49 89 c8             	mov    %rcx,%r8
ffff800000106379:	48 89 c1             	mov    %rax,%rcx
ffff80000010637c:	48 ba 30 b9 10 00 00 	movabs $0xffff80000010b930,%rdx
ffff800000106383:	80 ff ff 
ffff800000106386:	be 00 ff 00 00       	mov    $0xff00,%esi
ffff80000010638b:	bf 00 00 00 00       	mov    $0x0,%edi
ffff800000106390:	b8 00 00 00 00       	mov    $0x0,%eax
ffff800000106395:	49 ba ed 27 10 00 00 	movabs $0xffff8000001027ed,%r10
ffff80000010639c:	80 ff ff 
ffff80000010639f:	41 ff d2             	callq  *%r10
ffff8000001063a2:	48 83 c4 10          	add    $0x10,%rsp
ffff8000001063a6:	48 b8 bc 17 11 00 00 	movabs $0xffff8000001117bc,%rax
ffff8000001063ad:	80 ff ff 
ffff8000001063b0:	8b 00                	mov    (%rax),%eax
ffff8000001063b2:	8d 50 01             	lea    0x1(%rax),%edx
ffff8000001063b5:	48 b9 bc 17 11 00 00 	movabs $0xffff8000001117bc,%rcx
ffff8000001063bc:	80 ff ff 
ffff8000001063bf:	89 11                	mov    %edx,(%rcx)
ffff8000001063c1:	48 b9 00 15 11 00 00 	movabs $0xffff800000111500,%rcx
ffff8000001063c8:	80 ff ff 
ffff8000001063cb:	48 98                	cltq   
ffff8000001063cd:	48 8b 55 f0          	mov    -0x10(%rbp),%rdx
ffff8000001063d1:	48 89 14 c1          	mov    %rdx,(%rcx,%rax,8)
ffff8000001063d5:	48 8b 45 f8          	mov    -0x8(%rbp),%rax
ffff8000001063d9:	48 8b 10             	mov    (%rax),%rdx
ffff8000001063dc:	48 8b 45 f8          	mov    -0x8(%rbp),%rax
ffff8000001063e0:	48 8b 40 08          	mov    0x8(%rax),%rax
ffff8000001063e4:	48 01 d0             	add    %rdx,%rax
ffff8000001063e7:	48 39 45 e8          	cmp    %rax,-0x18(%rbp)
ffff8000001063eb:	73 2f                	jae    ffff80000010641c <search_memory+0x22f>
ffff8000001063ed:	48 8b 45 f8          	mov    -0x8(%rbp),%rax
ffff8000001063f1:	48 8b 10             	mov    (%rax),%rdx
ffff8000001063f4:	48 8b 45 f8          	mov    -0x8(%rbp),%rax
ffff8000001063f8:	48 8b 40 08          	mov    0x8(%rax),%rax
ffff8000001063fc:	48 01 d0             	add    %rdx,%rax
ffff8000001063ff:	48 89 45 e8          	mov    %rax,-0x18(%rbp)
ffff800000106403:	eb 17                	jmp    ffff80000010641c <search_memory+0x22f>
ffff800000106405:	48 8b 45 f8          	mov    -0x8(%rbp),%rax
ffff800000106409:	8b 40 10             	mov    0x10(%rax),%eax
ffff80000010640c:	83 f8 04             	cmp    $0x4,%eax
ffff80000010640f:	77 23                	ja     ffff800000106434 <search_memory+0x247>
ffff800000106411:	48 8b 45 f8          	mov    -0x8(%rbp),%rax
ffff800000106415:	8b 40 10             	mov    0x10(%rax),%eax
ffff800000106418:	85 c0                	test   %eax,%eax
ffff80000010641a:	74 18                	je     ffff800000106434 <search_memory+0x247>
ffff80000010641c:	48 83 45 f8 14       	addq   $0x14,-0x8(%rbp)
ffff800000106421:	48 83 45 f0 20       	addq   $0x20,-0x10(%rbp)
ffff800000106426:	83 45 e4 01          	addl   $0x1,-0x1c(%rbp)
ffff80000010642a:	83 7d e4 1f          	cmpl   $0x1f,-0x1c(%rbp)
ffff80000010642e:	0f 8e 39 fe ff ff    	jle    ffff80000010626d <search_memory+0x80>
ffff800000106434:	48 b8 00 15 11 00 00 	movabs $0xffff800000111500,%rax
ffff80000010643b:	80 ff ff 
ffff80000010643e:	8b 80 84 00 00 00    	mov    0x84(%rax),%eax
ffff800000106444:	83 c0 3f             	add    $0x3f,%eax
ffff800000106447:	8d 50 07             	lea    0x7(%rax),%edx
ffff80000010644a:	85 c0                	test   %eax,%eax
ffff80000010644c:	0f 48 c2             	cmovs  %edx,%eax
ffff80000010644f:	c1 f8 03             	sar    $0x3,%eax
ffff800000106452:	89 c2                	mov    %eax,%edx
ffff800000106454:	48 b8 00 15 11 00 00 	movabs $0xffff800000111500,%rax
ffff80000010645b:	80 ff ff 
ffff80000010645e:	89 90 80 00 00 00    	mov    %edx,0x80(%rax)
ffff800000106464:	48 b8 00 15 11 00 00 	movabs $0xffff800000111500,%rax
ffff80000010646b:	80 ff ff 
ffff80000010646e:	48 bf 00 02 00 00 00 	movabs $0xffff800000000200,%rdi
ffff800000106475:	80 ff ff 
ffff800000106478:	48 89 78 68          	mov    %rdi,0x68(%rax)
ffff80000010647c:	48 b8 00 15 11 00 00 	movabs $0xffff800000111500,%rax
ffff800000106483:	80 ff ff 
ffff800000106486:	8b 80 80 00 00 00    	mov    0x80(%rax),%eax
ffff80000010648c:	48 98                	cltq   
ffff80000010648e:	48 ba 00 02 00 00 00 	movabs $0xffff800000000200,%rdx
ffff800000106495:	80 ff ff 
ffff800000106498:	48 01 d0             	add    %rdx,%rax
ffff80000010649b:	48 89 c2             	mov    %rax,%rdx
ffff80000010649e:	48 b8 00 15 11 00 00 	movabs $0xffff800000111500,%rax
ffff8000001064a5:	80 ff ff 
ffff8000001064a8:	48 89 50 50          	mov    %rdx,0x50(%rax)
ffff8000001064ac:	48 8b 45 e8          	mov    -0x18(%rbp),%rax
ffff8000001064b0:	48 c1 e8 15          	shr    $0x15,%rax
ffff8000001064b4:	89 c2                	mov    %eax,%edx
ffff8000001064b6:	48 b8 00 15 11 00 00 	movabs $0xffff800000111500,%rax
ffff8000001064bd:	80 ff ff 
ffff8000001064c0:	89 90 84 00 00 00    	mov    %edx,0x84(%rax)
ffff8000001064c6:	48 b8 00 15 11 00 00 	movabs $0xffff800000111500,%rax
ffff8000001064cd:	80 ff ff 
ffff8000001064d0:	8b 80 84 00 00 00    	mov    0x84(%rax),%eax
ffff8000001064d6:	48 98                	cltq   
ffff8000001064d8:	48 ba 00 15 11 00 00 	movabs $0xffff800000111500,%rdx
ffff8000001064df:	80 ff ff 
ffff8000001064e2:	48 89 42 58          	mov    %rax,0x58(%rdx)
ffff8000001064e6:	48 8b 45 e8          	mov    -0x18(%rbp),%rax
ffff8000001064ea:	48 c1 e8 14          	shr    $0x14,%rax
ffff8000001064ee:	48 89 c6             	mov    %rax,%rsi
ffff8000001064f1:	48 bf 74 b9 10 00 00 	movabs $0xffff80000010b974,%rdi
ffff8000001064f8:	80 ff ff 
ffff8000001064fb:	b8 00 00 00 00       	mov    $0x0,%eax
ffff800000106500:	48 ba 50 30 10 00 00 	movabs $0xffff800000103050,%rdx
ffff800000106507:	80 ff ff 
ffff80000010650a:	ff d2                	callq  *%rdx
ffff80000010650c:	90                   	nop
ffff80000010650d:	c9                   	leaveq 
ffff80000010650e:	c3                   	retq   

ffff80000010650f <use_page>:
ffff80000010650f:	55                   	push   %rbp
ffff800000106510:	48 89 e5             	mov    %rsp,%rbp
ffff800000106513:	48 83 ec 10          	sub    $0x10,%rsp
ffff800000106517:	89 7d fc             	mov    %edi,-0x4(%rbp)
ffff80000010651a:	48 89 75 f0          	mov    %rsi,-0x10(%rbp)
ffff80000010651e:	48 b8 00 15 11 00 00 	movabs $0xffff800000111500,%rax
ffff800000106525:	80 ff ff 
ffff800000106528:	8b 80 84 00 00 00    	mov    0x84(%rax),%eax
ffff80000010652e:	39 45 fc             	cmp    %eax,-0x4(%rbp)
ffff800000106531:	7c 35                	jl     ffff800000106568 <use_page+0x59>
ffff800000106533:	8b 45 fc             	mov    -0x4(%rbp),%eax
ffff800000106536:	89 c1                	mov    %eax,%ecx
ffff800000106538:	48 ba 8c b9 10 00 00 	movabs $0xffff80000010b98c,%rdx
ffff80000010653f:	80 ff ff 
ffff800000106542:	be 00 00 ff 00       	mov    $0xff0000,%esi
ffff800000106547:	bf 00 00 00 00       	mov    $0x0,%edi
ffff80000010654c:	b8 00 00 00 00       	mov    $0x0,%eax
ffff800000106551:	49 b8 ed 27 10 00 00 	movabs $0xffff8000001027ed,%r8
ffff800000106558:	80 ff ff 
ffff80000010655b:	41 ff d0             	callq  *%r8
ffff80000010655e:	b8 00 00 00 00       	mov    $0x0,%eax
ffff800000106563:	e9 94 01 00 00       	jmpq   ffff8000001066fc <use_page+0x1ed>
ffff800000106568:	48 b8 00 15 11 00 00 	movabs $0xffff800000111500,%rax
ffff80000010656f:	80 ff ff 
ffff800000106572:	48 8b 50 68          	mov    0x68(%rax),%rdx
ffff800000106576:	8b 45 fc             	mov    -0x4(%rbp),%eax
ffff800000106579:	8d 48 07             	lea    0x7(%rax),%ecx
ffff80000010657c:	85 c0                	test   %eax,%eax
ffff80000010657e:	0f 48 c1             	cmovs  %ecx,%eax
ffff800000106581:	c1 f8 03             	sar    $0x3,%eax
ffff800000106584:	48 98                	cltq   
ffff800000106586:	48 01 d0             	add    %rdx,%rax
ffff800000106589:	0f b6 30             	movzbl (%rax),%esi
ffff80000010658c:	8b 45 fc             	mov    -0x4(%rbp),%eax
ffff80000010658f:	99                   	cltd   
ffff800000106590:	c1 ea 1d             	shr    $0x1d,%edx
ffff800000106593:	01 d0                	add    %edx,%eax
ffff800000106595:	83 e0 07             	and    $0x7,%eax
ffff800000106598:	29 d0                	sub    %edx,%eax
ffff80000010659a:	ba 01 00 00 00       	mov    $0x1,%edx
ffff80000010659f:	89 c1                	mov    %eax,%ecx
ffff8000001065a1:	d3 e2                	shl    %cl,%edx
ffff8000001065a3:	89 d0                	mov    %edx,%eax
ffff8000001065a5:	21 f0                	and    %esi,%eax
ffff8000001065a7:	84 c0                	test   %al,%al
ffff8000001065a9:	74 35                	je     ffff8000001065e0 <use_page+0xd1>
ffff8000001065ab:	8b 45 fc             	mov    -0x4(%rbp),%eax
ffff8000001065ae:	89 c1                	mov    %eax,%ecx
ffff8000001065b0:	48 ba a3 b9 10 00 00 	movabs $0xffff80000010b9a3,%rdx
ffff8000001065b7:	80 ff ff 
ffff8000001065ba:	be 00 00 ff 00       	mov    $0xff0000,%esi
ffff8000001065bf:	bf 00 00 00 00       	mov    $0x0,%edi
ffff8000001065c4:	b8 00 00 00 00       	mov    $0x0,%eax
ffff8000001065c9:	49 b8 ed 27 10 00 00 	movabs $0xffff8000001027ed,%r8
ffff8000001065d0:	80 ff ff 
ffff8000001065d3:	41 ff d0             	callq  *%r8
ffff8000001065d6:	b8 00 00 00 00       	mov    $0x0,%eax
ffff8000001065db:	e9 1c 01 00 00       	jmpq   ffff8000001066fc <use_page+0x1ed>
ffff8000001065e0:	48 b8 00 15 11 00 00 	movabs $0xffff800000111500,%rax
ffff8000001065e7:	80 ff ff 
ffff8000001065ea:	48 8b 48 50          	mov    0x50(%rax),%rcx
ffff8000001065ee:	8b 45 fc             	mov    -0x4(%rbp),%eax
ffff8000001065f1:	48 63 d0             	movslq %eax,%rdx
ffff8000001065f4:	48 89 d0             	mov    %rdx,%rax
ffff8000001065f7:	48 01 c0             	add    %rax,%rax
ffff8000001065fa:	48 01 d0             	add    %rdx,%rax
ffff8000001065fd:	48 c1 e0 03          	shl    $0x3,%rax
ffff800000106601:	48 8d 14 01          	lea    (%rcx,%rax,1),%rdx
ffff800000106605:	48 8b 45 f0          	mov    -0x10(%rbp),%rax
ffff800000106609:	48 89 42 10          	mov    %rax,0x10(%rdx)
ffff80000010660d:	48 b8 00 15 11 00 00 	movabs $0xffff800000111500,%rax
ffff800000106614:	80 ff ff 
ffff800000106617:	48 8b 50 68          	mov    0x68(%rax),%rdx
ffff80000010661b:	8b 45 fc             	mov    -0x4(%rbp),%eax
ffff80000010661e:	8d 48 07             	lea    0x7(%rax),%ecx
ffff800000106621:	85 c0                	test   %eax,%eax
ffff800000106623:	0f 48 c1             	cmovs  %ecx,%eax
ffff800000106626:	c1 f8 03             	sar    $0x3,%eax
ffff800000106629:	89 c6                	mov    %eax,%esi
ffff80000010662b:	48 63 c6             	movslq %esi,%rax
ffff80000010662e:	48 01 d0             	add    %rdx,%rax
ffff800000106631:	0f b6 38             	movzbl (%rax),%edi
ffff800000106634:	8b 45 fc             	mov    -0x4(%rbp),%eax
ffff800000106637:	99                   	cltd   
ffff800000106638:	c1 ea 1d             	shr    $0x1d,%edx
ffff80000010663b:	01 d0                	add    %edx,%eax
ffff80000010663d:	83 e0 07             	and    $0x7,%eax
ffff800000106640:	29 d0                	sub    %edx,%eax
ffff800000106642:	ba 01 00 00 00       	mov    $0x1,%edx
ffff800000106647:	89 c1                	mov    %eax,%ecx
ffff800000106649:	d3 e2                	shl    %cl,%edx
ffff80000010664b:	89 d0                	mov    %edx,%eax
ffff80000010664d:	89 c1                	mov    %eax,%ecx
ffff80000010664f:	48 b8 00 15 11 00 00 	movabs $0xffff800000111500,%rax
ffff800000106656:	80 ff ff 
ffff800000106659:	48 8b 50 68          	mov    0x68(%rax),%rdx
ffff80000010665d:	48 63 c6             	movslq %esi,%rax
ffff800000106660:	48 01 d0             	add    %rdx,%rax
ffff800000106663:	09 cf                	or     %ecx,%edi
ffff800000106665:	89 fa                	mov    %edi,%edx
ffff800000106667:	88 10                	mov    %dl,(%rax)
ffff800000106669:	48 b8 00 15 11 00 00 	movabs $0xffff800000111500,%rax
ffff800000106670:	80 ff ff 
ffff800000106673:	48 8b 50 68          	mov    0x68(%rax),%rdx
ffff800000106677:	8b 45 fc             	mov    -0x4(%rbp),%eax
ffff80000010667a:	8d 48 07             	lea    0x7(%rax),%ecx
ffff80000010667d:	85 c0                	test   %eax,%eax
ffff80000010667f:	0f 48 c1             	cmovs  %ecx,%eax
ffff800000106682:	c1 f8 03             	sar    $0x3,%eax
ffff800000106685:	48 98                	cltq   
ffff800000106687:	48 01 d0             	add    %rdx,%rax
ffff80000010668a:	0f b6 00             	movzbl (%rax),%eax
ffff80000010668d:	0f b6 c8             	movzbl %al,%ecx
ffff800000106690:	48 b8 00 15 11 00 00 	movabs $0xffff800000111500,%rax
ffff800000106697:	80 ff ff 
ffff80000010669a:	48 8b 70 50          	mov    0x50(%rax),%rsi
ffff80000010669e:	8b 45 fc             	mov    -0x4(%rbp),%eax
ffff8000001066a1:	48 63 d0             	movslq %eax,%rdx
ffff8000001066a4:	48 89 d0             	mov    %rdx,%rax
ffff8000001066a7:	48 01 c0             	add    %rax,%rax
ffff8000001066aa:	48 01 d0             	add    %rdx,%rax
ffff8000001066ad:	48 c1 e0 03          	shl    $0x3,%rax
ffff8000001066b1:	48 01 f0             	add    %rsi,%rax
ffff8000001066b4:	48 8b 10             	mov    (%rax),%rdx
ffff8000001066b7:	8b 45 fc             	mov    -0x4(%rbp),%eax
ffff8000001066ba:	89 c6                	mov    %eax,%esi
ffff8000001066bc:	48 bf b8 b9 10 00 00 	movabs $0xffff80000010b9b8,%rdi
ffff8000001066c3:	80 ff ff 
ffff8000001066c6:	b8 00 00 00 00       	mov    $0x0,%eax
ffff8000001066cb:	49 b8 50 30 10 00 00 	movabs $0xffff800000103050,%r8
ffff8000001066d2:	80 ff ff 
ffff8000001066d5:	41 ff d0             	callq  *%r8
ffff8000001066d8:	48 b8 00 15 11 00 00 	movabs $0xffff800000111500,%rax
ffff8000001066df:	80 ff ff 
ffff8000001066e2:	48 8b 48 50          	mov    0x50(%rax),%rcx
ffff8000001066e6:	8b 45 fc             	mov    -0x4(%rbp),%eax
ffff8000001066e9:	48 63 d0             	movslq %eax,%rdx
ffff8000001066ec:	48 89 d0             	mov    %rdx,%rax
ffff8000001066ef:	48 01 c0             	add    %rax,%rax
ffff8000001066f2:	48 01 d0             	add    %rdx,%rax
ffff8000001066f5:	48 c1 e0 03          	shl    $0x3,%rax
ffff8000001066f9:	48 01 c8             	add    %rcx,%rax
ffff8000001066fc:	c9                   	leaveq 
ffff8000001066fd:	c3                   	retq   

ffff8000001066fe <alloc_page>:
ffff8000001066fe:	55                   	push   %rbp
ffff8000001066ff:	48 89 e5             	mov    %rsp,%rbp
ffff800000106702:	48 83 ec 20          	sub    $0x20,%rsp
ffff800000106706:	48 89 7d e8          	mov    %rdi,-0x18(%rbp)
ffff80000010670a:	48 b8 00 15 11 00 00 	movabs $0xffff800000111500,%rax
ffff800000106711:	80 ff ff 
ffff800000106714:	48 8b 40 58          	mov    0x58(%rax),%rax
ffff800000106718:	48 85 c0             	test   %rax,%rax
ffff80000010671b:	75 2f                	jne    ffff80000010674c <alloc_page+0x4e>
ffff80000010671d:	48 ba de b9 10 00 00 	movabs $0xffff80000010b9de,%rdx
ffff800000106724:	80 ff ff 
ffff800000106727:	be 00 00 ff 00       	mov    $0xff0000,%esi
ffff80000010672c:	bf 00 00 00 00       	mov    $0x0,%edi
ffff800000106731:	b8 00 00 00 00       	mov    $0x0,%eax
ffff800000106736:	48 b9 ed 27 10 00 00 	movabs $0xffff8000001027ed,%rcx
ffff80000010673d:	80 ff ff 
ffff800000106740:	ff d1                	callq  *%rcx
ffff800000106742:	b8 00 00 00 00       	mov    $0x0,%eax
ffff800000106747:	e9 24 01 00 00       	jmpq   ffff800000106870 <alloc_page+0x172>
ffff80000010674c:	c7 45 fc 00 00 00 00 	movl   $0x0,-0x4(%rbp)
ffff800000106753:	e9 d5 00 00 00       	jmpq   ffff80000010682d <alloc_page+0x12f>
ffff800000106758:	48 b8 00 15 11 00 00 	movabs $0xffff800000111500,%rax
ffff80000010675f:	80 ff ff 
ffff800000106762:	48 8b 50 68          	mov    0x68(%rax),%rdx
ffff800000106766:	8b 45 fc             	mov    -0x4(%rbp),%eax
ffff800000106769:	48 98                	cltq   
ffff80000010676b:	48 01 d0             	add    %rdx,%rax
ffff80000010676e:	0f b6 00             	movzbl (%rax),%eax
ffff800000106771:	3c ff                	cmp    $0xff,%al
ffff800000106773:	0f 84 af 00 00 00    	je     ffff800000106828 <alloc_page+0x12a>
ffff800000106779:	c7 45 f8 00 00 00 00 	movl   $0x0,-0x8(%rbp)
ffff800000106780:	e9 97 00 00 00       	jmpq   ffff80000010681c <alloc_page+0x11e>
ffff800000106785:	48 b8 00 15 11 00 00 	movabs $0xffff800000111500,%rax
ffff80000010678c:	80 ff ff 
ffff80000010678f:	48 8b 50 68          	mov    0x68(%rax),%rdx
ffff800000106793:	8b 45 fc             	mov    -0x4(%rbp),%eax
ffff800000106796:	48 98                	cltq   
ffff800000106798:	48 01 d0             	add    %rdx,%rax
ffff80000010679b:	0f b6 10             	movzbl (%rax),%edx
ffff80000010679e:	8b 45 f8             	mov    -0x8(%rbp),%eax
ffff8000001067a1:	be 01 00 00 00       	mov    $0x1,%esi
ffff8000001067a6:	89 c1                	mov    %eax,%ecx
ffff8000001067a8:	d3 e6                	shl    %cl,%esi
ffff8000001067aa:	89 f0                	mov    %esi,%eax
ffff8000001067ac:	21 d0                	and    %edx,%eax
ffff8000001067ae:	84 c0                	test   %al,%al
ffff8000001067b0:	75 66                	jne    ffff800000106818 <alloc_page+0x11a>
ffff8000001067b2:	48 b8 00 15 11 00 00 	movabs $0xffff800000111500,%rax
ffff8000001067b9:	80 ff ff 
ffff8000001067bc:	48 8b 40 60          	mov    0x60(%rax),%rax
ffff8000001067c0:	48 8d 50 01          	lea    0x1(%rax),%rdx
ffff8000001067c4:	48 b8 00 15 11 00 00 	movabs $0xffff800000111500,%rax
ffff8000001067cb:	80 ff ff 
ffff8000001067ce:	48 89 50 60          	mov    %rdx,0x60(%rax)
ffff8000001067d2:	48 b8 00 15 11 00 00 	movabs $0xffff800000111500,%rax
ffff8000001067d9:	80 ff ff 
ffff8000001067dc:	48 8b 40 58          	mov    0x58(%rax),%rax
ffff8000001067e0:	48 8d 50 ff          	lea    -0x1(%rax),%rdx
ffff8000001067e4:	48 b8 00 15 11 00 00 	movabs $0xffff800000111500,%rax
ffff8000001067eb:	80 ff ff 
ffff8000001067ee:	48 89 50 58          	mov    %rdx,0x58(%rax)
ffff8000001067f2:	8b 45 fc             	mov    -0x4(%rbp),%eax
ffff8000001067f5:	8d 14 c5 00 00 00 00 	lea    0x0(,%rax,8),%edx
ffff8000001067fc:	8b 45 f8             	mov    -0x8(%rbp),%eax
ffff8000001067ff:	01 c2                	add    %eax,%edx
ffff800000106801:	48 8b 45 e8          	mov    -0x18(%rbp),%rax
ffff800000106805:	48 89 c6             	mov    %rax,%rsi
ffff800000106808:	89 d7                	mov    %edx,%edi
ffff80000010680a:	48 b8 0f 65 10 00 00 	movabs $0xffff80000010650f,%rax
ffff800000106811:	80 ff ff 
ffff800000106814:	ff d0                	callq  *%rax
ffff800000106816:	eb 58                	jmp    ffff800000106870 <alloc_page+0x172>
ffff800000106818:	83 45 f8 01          	addl   $0x1,-0x8(%rbp)
ffff80000010681c:	83 7d f8 07          	cmpl   $0x7,-0x8(%rbp)
ffff800000106820:	0f 8e 5f ff ff ff    	jle    ffff800000106785 <alloc_page+0x87>
ffff800000106826:	eb 01                	jmp    ffff800000106829 <alloc_page+0x12b>
ffff800000106828:	90                   	nop
ffff800000106829:	83 45 fc 01          	addl   $0x1,-0x4(%rbp)
ffff80000010682d:	48 b8 00 15 11 00 00 	movabs $0xffff800000111500,%rax
ffff800000106834:	80 ff ff 
ffff800000106837:	8b 80 80 00 00 00    	mov    0x80(%rax),%eax
ffff80000010683d:	39 45 fc             	cmp    %eax,-0x4(%rbp)
ffff800000106840:	0f 8c 12 ff ff ff    	jl     ffff800000106758 <alloc_page+0x5a>
ffff800000106846:	48 ba ec b9 10 00 00 	movabs $0xffff80000010b9ec,%rdx
ffff80000010684d:	80 ff ff 
ffff800000106850:	be 00 00 ff 00       	mov    $0xff0000,%esi
ffff800000106855:	bf 00 00 00 00       	mov    $0x0,%edi
ffff80000010685a:	b8 00 00 00 00       	mov    $0x0,%eax
ffff80000010685f:	48 b9 ed 27 10 00 00 	movabs $0xffff8000001027ed,%rcx
ffff800000106866:	80 ff ff 
ffff800000106869:	ff d1                	callq  *%rcx
ffff80000010686b:	b8 00 00 00 00       	mov    $0x0,%eax
ffff800000106870:	c9                   	leaveq 
ffff800000106871:	c3                   	retq   

ffff800000106872 <free_page>:
ffff800000106872:	55                   	push   %rbp
ffff800000106873:	48 89 e5             	mov    %rsp,%rbp
ffff800000106876:	48 83 ec 20          	sub    $0x20,%rsp
ffff80000010687a:	48 89 7d e8          	mov    %rdi,-0x18(%rbp)
ffff80000010687e:	48 83 7d e8 00       	cmpq   $0x0,-0x18(%rbp)
ffff800000106883:	75 2a                	jne    ffff8000001068af <free_page+0x3d>
ffff800000106885:	48 ba fa b9 10 00 00 	movabs $0xffff80000010b9fa,%rdx
ffff80000010688c:	80 ff ff 
ffff80000010688f:	be 00 00 ff 00       	mov    $0xff0000,%esi
ffff800000106894:	bf 00 00 00 00       	mov    $0x0,%edi
ffff800000106899:	b8 00 00 00 00       	mov    $0x0,%eax
ffff80000010689e:	48 b9 ed 27 10 00 00 	movabs $0xffff8000001027ed,%rcx
ffff8000001068a5:	80 ff ff 
ffff8000001068a8:	ff d1                	callq  *%rcx
ffff8000001068aa:	e9 da 00 00 00       	jmpq   ffff800000106989 <free_page+0x117>
ffff8000001068af:	c7 45 fc 00 00 00 00 	movl   $0x0,-0x4(%rbp)
ffff8000001068b6:	e9 90 00 00 00       	jmpq   ffff80000010694b <free_page+0xd9>
ffff8000001068bb:	48 b8 00 15 11 00 00 	movabs $0xffff800000111500,%rax
ffff8000001068c2:	80 ff ff 
ffff8000001068c5:	48 8b 48 50          	mov    0x50(%rax),%rcx
ffff8000001068c9:	8b 45 fc             	mov    -0x4(%rbp),%eax
ffff8000001068cc:	48 63 d0             	movslq %eax,%rdx
ffff8000001068cf:	48 89 d0             	mov    %rdx,%rax
ffff8000001068d2:	48 01 c0             	add    %rax,%rax
ffff8000001068d5:	48 01 d0             	add    %rdx,%rax
ffff8000001068d8:	48 c1 e0 03          	shl    $0x3,%rax
ffff8000001068dc:	48 01 c8             	add    %rcx,%rax
ffff8000001068df:	48 39 45 e8          	cmp    %rax,-0x18(%rbp)
ffff8000001068e3:	75 62                	jne    ffff800000106947 <free_page+0xd5>
ffff8000001068e5:	48 b8 00 15 11 00 00 	movabs $0xffff800000111500,%rax
ffff8000001068ec:	80 ff ff 
ffff8000001068ef:	48 8b 50 68          	mov    0x68(%rax),%rdx
ffff8000001068f3:	8b 45 fc             	mov    -0x4(%rbp),%eax
ffff8000001068f6:	8d 48 07             	lea    0x7(%rax),%ecx
ffff8000001068f9:	85 c0                	test   %eax,%eax
ffff8000001068fb:	0f 48 c1             	cmovs  %ecx,%eax
ffff8000001068fe:	c1 f8 03             	sar    $0x3,%eax
ffff800000106901:	89 c6                	mov    %eax,%esi
ffff800000106903:	48 63 c6             	movslq %esi,%rax
ffff800000106906:	48 01 d0             	add    %rdx,%rax
ffff800000106909:	0f b6 00             	movzbl (%rax),%eax
ffff80000010690c:	89 c7                	mov    %eax,%edi
ffff80000010690e:	8b 45 fc             	mov    -0x4(%rbp),%eax
ffff800000106911:	99                   	cltd   
ffff800000106912:	c1 ea 1d             	shr    $0x1d,%edx
ffff800000106915:	01 d0                	add    %edx,%eax
ffff800000106917:	83 e0 07             	and    $0x7,%eax
ffff80000010691a:	29 d0                	sub    %edx,%eax
ffff80000010691c:	ba 01 00 00 00       	mov    $0x1,%edx
ffff800000106921:	89 c1                	mov    %eax,%ecx
ffff800000106923:	d3 e2                	shl    %cl,%edx
ffff800000106925:	89 d0                	mov    %edx,%eax
ffff800000106927:	f7 d0                	not    %eax
ffff800000106929:	21 c7                	and    %eax,%edi
ffff80000010692b:	89 f9                	mov    %edi,%ecx
ffff80000010692d:	48 b8 00 15 11 00 00 	movabs $0xffff800000111500,%rax
ffff800000106934:	80 ff ff 
ffff800000106937:	48 8b 50 68          	mov    0x68(%rax),%rdx
ffff80000010693b:	48 63 c6             	movslq %esi,%rax
ffff80000010693e:	48 01 d0             	add    %rdx,%rax
ffff800000106941:	89 ca                	mov    %ecx,%edx
ffff800000106943:	88 10                	mov    %dl,(%rax)
ffff800000106945:	eb 42                	jmp    ffff800000106989 <free_page+0x117>
ffff800000106947:	83 45 fc 01          	addl   $0x1,-0x4(%rbp)
ffff80000010694b:	48 b8 00 15 11 00 00 	movabs $0xffff800000111500,%rax
ffff800000106952:	80 ff ff 
ffff800000106955:	8b 80 84 00 00 00    	mov    0x84(%rax),%eax
ffff80000010695b:	39 45 fc             	cmp    %eax,-0x4(%rbp)
ffff80000010695e:	0f 8c 57 ff ff ff    	jl     ffff8000001068bb <free_page+0x49>
ffff800000106964:	48 ba 08 ba 10 00 00 	movabs $0xffff80000010ba08,%rdx
ffff80000010696b:	80 ff ff 
ffff80000010696e:	be 00 00 ff 00       	mov    $0xff0000,%esi
ffff800000106973:	bf 00 00 00 00       	mov    $0x0,%edi
ffff800000106978:	b8 00 00 00 00       	mov    $0x0,%eax
ffff80000010697d:	48 b9 ed 27 10 00 00 	movabs $0xffff8000001027ed,%rcx
ffff800000106984:	80 ff ff 
ffff800000106987:	ff d1                	callq  *%rcx
ffff800000106989:	c9                   	leaveq 
ffff80000010698a:	c3                   	retq   

ffff80000010698b <init_slab>:
ffff80000010698b:	55                   	push   %rbp
ffff80000010698c:	48 89 e5             	mov    %rsp,%rbp
ffff80000010698f:	c7 45 f8 20 00 00 00 	movl   $0x20,-0x8(%rbp)
ffff800000106996:	c7 45 fc 00 00 00 00 	movl   $0x0,-0x4(%rbp)
ffff80000010699d:	e9 85 00 00 00       	jmpq   ffff800000106a27 <init_slab+0x9c>
ffff8000001069a2:	48 ba a0 15 11 00 00 	movabs $0xffff8000001115a0,%rdx
ffff8000001069a9:	80 ff ff 
ffff8000001069ac:	8b 45 fc             	mov    -0x4(%rbp),%eax
ffff8000001069af:	48 98                	cltq   
ffff8000001069b1:	48 c1 e0 05          	shl    $0x5,%rax
ffff8000001069b5:	48 01 d0             	add    %rdx,%rax
ffff8000001069b8:	48 8d 50 18          	lea    0x18(%rax),%rdx
ffff8000001069bc:	8b 45 f8             	mov    -0x8(%rbp),%eax
ffff8000001069bf:	89 02                	mov    %eax,(%rdx)
ffff8000001069c1:	48 ba a0 15 11 00 00 	movabs $0xffff8000001115a0,%rdx
ffff8000001069c8:	80 ff ff 
ffff8000001069cb:	8b 45 fc             	mov    -0x4(%rbp),%eax
ffff8000001069ce:	48 98                	cltq   
ffff8000001069d0:	48 c1 e0 05          	shl    $0x5,%rax
ffff8000001069d4:	48 01 d0             	add    %rdx,%rax
ffff8000001069d7:	48 83 c0 08          	add    $0x8,%rax
ffff8000001069db:	48 c7 00 00 00 00 00 	movq   $0x0,(%rax)
ffff8000001069e2:	48 ba a0 15 11 00 00 	movabs $0xffff8000001115a0,%rdx
ffff8000001069e9:	80 ff ff 
ffff8000001069ec:	8b 45 fc             	mov    -0x4(%rbp),%eax
ffff8000001069ef:	48 98                	cltq   
ffff8000001069f1:	48 c1 e0 05          	shl    $0x5,%rax
ffff8000001069f5:	48 01 d0             	add    %rdx,%rax
ffff8000001069f8:	48 83 c0 10          	add    $0x10,%rax
ffff8000001069fc:	48 c7 00 00 00 00 00 	movq   $0x0,(%rax)
ffff800000106a03:	48 ba a0 15 11 00 00 	movabs $0xffff8000001115a0,%rdx
ffff800000106a0a:	80 ff ff 
ffff800000106a0d:	8b 45 fc             	mov    -0x4(%rbp),%eax
ffff800000106a10:	48 98                	cltq   
ffff800000106a12:	48 c1 e0 05          	shl    $0x5,%rax
ffff800000106a16:	48 01 d0             	add    %rdx,%rax
ffff800000106a19:	48 c7 00 00 00 00 00 	movq   $0x0,(%rax)
ffff800000106a20:	d1 65 f8             	shll   -0x8(%rbp)
ffff800000106a23:	83 45 fc 01          	addl   $0x1,-0x4(%rbp)
ffff800000106a27:	83 7d fc 0f          	cmpl   $0xf,-0x4(%rbp)
ffff800000106a2b:	0f 8e 71 ff ff ff    	jle    ffff8000001069a2 <init_slab+0x17>
ffff800000106a31:	90                   	nop
ffff800000106a32:	5d                   	pop    %rbp
ffff800000106a33:	c3                   	retq   

ffff800000106a34 <kmalloc>:
ffff800000106a34:	55                   	push   %rbp
ffff800000106a35:	48 89 e5             	mov    %rsp,%rbp
ffff800000106a38:	48 83 ec 20          	sub    $0x20,%rsp
ffff800000106a3c:	89 7d ec             	mov    %edi,-0x14(%rbp)
ffff800000106a3f:	c7 45 f8 20 00 00 00 	movl   $0x20,-0x8(%rbp)
ffff800000106a46:	c7 45 fc 00 00 00 00 	movl   $0x0,-0x4(%rbp)
ffff800000106a4d:	eb 2f                	jmp    ffff800000106a7e <kmalloc+0x4a>
ffff800000106a4f:	8b 45 f8             	mov    -0x8(%rbp),%eax
ffff800000106a52:	3b 45 ec             	cmp    -0x14(%rbp),%eax
ffff800000106a55:	7c 20                	jl     ffff800000106a77 <kmalloc+0x43>
ffff800000106a57:	8b 55 f8             	mov    -0x8(%rbp),%edx
ffff800000106a5a:	8b 45 fc             	mov    -0x4(%rbp),%eax
ffff800000106a5d:	89 d6                	mov    %edx,%esi
ffff800000106a5f:	89 c7                	mov    %eax,%edi
ffff800000106a61:	48 b8 b6 6a 10 00 00 	movabs $0xffff800000106ab6,%rax
ffff800000106a68:	80 ff ff 
ffff800000106a6b:	ff d0                	callq  *%rax
ffff800000106a6d:	48 89 45 f0          	mov    %rax,-0x10(%rbp)
ffff800000106a71:	48 8b 45 f0          	mov    -0x10(%rbp),%rax
ffff800000106a75:	eb 3d                	jmp    ffff800000106ab4 <kmalloc+0x80>
ffff800000106a77:	d1 65 f8             	shll   -0x8(%rbp)
ffff800000106a7a:	83 45 fc 01          	addl   $0x1,-0x4(%rbp)
ffff800000106a7e:	83 7d fc 0f          	cmpl   $0xf,-0x4(%rbp)
ffff800000106a82:	7e cb                	jle    ffff800000106a4f <kmalloc+0x1b>
ffff800000106a84:	8b 45 ec             	mov    -0x14(%rbp),%eax
ffff800000106a87:	89 c1                	mov    %eax,%ecx
ffff800000106a89:	48 ba 18 ba 10 00 00 	movabs $0xffff80000010ba18,%rdx
ffff800000106a90:	80 ff ff 
ffff800000106a93:	be 00 00 ff 00       	mov    $0xff0000,%esi
ffff800000106a98:	bf 00 00 00 00       	mov    $0x0,%edi
ffff800000106a9d:	b8 00 00 00 00       	mov    $0x0,%eax
ffff800000106aa2:	49 b8 ed 27 10 00 00 	movabs $0xffff8000001027ed,%r8
ffff800000106aa9:	80 ff ff 
ffff800000106aac:	41 ff d0             	callq  *%r8
ffff800000106aaf:	b8 00 00 00 00       	mov    $0x0,%eax
ffff800000106ab4:	c9                   	leaveq 
ffff800000106ab5:	c3                   	retq   

ffff800000106ab6 <alloc_slab>:
ffff800000106ab6:	55                   	push   %rbp
ffff800000106ab7:	48 89 e5             	mov    %rsp,%rbp
ffff800000106aba:	48 83 ec 20          	sub    $0x20,%rsp
ffff800000106abe:	89 7d ec             	mov    %edi,-0x14(%rbp)
ffff800000106ac1:	89 75 e8             	mov    %esi,-0x18(%rbp)
ffff800000106ac4:	48 ba a0 15 11 00 00 	movabs $0xffff8000001115a0,%rdx
ffff800000106acb:	80 ff ff 
ffff800000106ace:	8b 45 ec             	mov    -0x14(%rbp),%eax
ffff800000106ad1:	48 98                	cltq   
ffff800000106ad3:	48 c1 e0 05          	shl    $0x5,%rax
ffff800000106ad7:	48 01 d0             	add    %rdx,%rax
ffff800000106ada:	48 8b 00             	mov    (%rax),%rax
ffff800000106add:	48 89 45 f8          	mov    %rax,-0x8(%rbp)
ffff800000106ae1:	eb 0c                	jmp    ffff800000106aef <alloc_slab+0x39>
ffff800000106ae3:	48 8b 45 f8          	mov    -0x8(%rbp),%rax
ffff800000106ae7:	48 8b 40 30          	mov    0x30(%rax),%rax
ffff800000106aeb:	48 89 45 f8          	mov    %rax,-0x8(%rbp)
ffff800000106aef:	48 83 7d f8 00       	cmpq   $0x0,-0x8(%rbp)
ffff800000106af4:	74 0d                	je     ffff800000106b03 <alloc_slab+0x4d>
ffff800000106af6:	48 8b 45 f8          	mov    -0x8(%rbp),%rax
ffff800000106afa:	48 8b 40 08          	mov    0x8(%rax),%rax
ffff800000106afe:	48 85 c0             	test   %rax,%rax
ffff800000106b01:	74 e0                	je     ffff800000106ae3 <alloc_slab+0x2d>
ffff800000106b03:	48 83 7d f8 00       	cmpq   $0x0,-0x8(%rbp)
ffff800000106b08:	75 15                	jne    ffff800000106b1f <alloc_slab+0x69>
ffff800000106b0a:	8b 45 e8             	mov    -0x18(%rbp),%eax
ffff800000106b0d:	89 c7                	mov    %eax,%edi
ffff800000106b0f:	48 b8 86 6c 10 00 00 	movabs $0xffff800000106c86,%rax
ffff800000106b16:	80 ff ff 
ffff800000106b19:	ff d0                	callq  *%rax
ffff800000106b1b:	48 89 45 f8          	mov    %rax,-0x8(%rbp)
ffff800000106b1f:	48 83 7d f8 00       	cmpq   $0x0,-0x8(%rbp)
ffff800000106b24:	75 0a                	jne    ffff800000106b30 <alloc_slab+0x7a>
ffff800000106b26:	b8 00 00 00 00       	mov    $0x0,%eax
ffff800000106b2b:	e9 54 01 00 00       	jmpq   ffff800000106c84 <alloc_slab+0x1ce>
ffff800000106b30:	48 8b 45 f8          	mov    -0x8(%rbp),%rax
ffff800000106b34:	48 8b 40 08          	mov    0x8(%rax),%rax
ffff800000106b38:	89 c2                	mov    %eax,%edx
ffff800000106b3a:	48 8b 45 f8          	mov    -0x8(%rbp),%rax
ffff800000106b3e:	48 8b 40 10          	mov    0x10(%rax),%rax
ffff800000106b42:	01 d0                	add    %edx,%eax
ffff800000106b44:	89 45 f4             	mov    %eax,-0xc(%rbp)
ffff800000106b47:	c7 45 ec 00 00 00 00 	movl   $0x0,-0x14(%rbp)
ffff800000106b4e:	e9 fb 00 00 00       	jmpq   ffff800000106c4e <alloc_slab+0x198>
ffff800000106b53:	48 8b 45 f8          	mov    -0x8(%rbp),%rax
ffff800000106b57:	48 8b 50 20          	mov    0x20(%rax),%rdx
ffff800000106b5b:	8b 45 ec             	mov    -0x14(%rbp),%eax
ffff800000106b5e:	8d 48 07             	lea    0x7(%rax),%ecx
ffff800000106b61:	85 c0                	test   %eax,%eax
ffff800000106b63:	0f 48 c1             	cmovs  %ecx,%eax
ffff800000106b66:	c1 f8 03             	sar    $0x3,%eax
ffff800000106b69:	48 98                	cltq   
ffff800000106b6b:	48 01 d0             	add    %rdx,%rax
ffff800000106b6e:	0f b6 00             	movzbl (%rax),%eax
ffff800000106b71:	3c ff                	cmp    $0xff,%al
ffff800000106b73:	0f 84 d0 00 00 00    	je     ffff800000106c49 <alloc_slab+0x193>
ffff800000106b79:	48 8b 45 f8          	mov    -0x8(%rbp),%rax
ffff800000106b7d:	48 8b 50 20          	mov    0x20(%rax),%rdx
ffff800000106b81:	8b 45 ec             	mov    -0x14(%rbp),%eax
ffff800000106b84:	8d 48 07             	lea    0x7(%rax),%ecx
ffff800000106b87:	85 c0                	test   %eax,%eax
ffff800000106b89:	0f 48 c1             	cmovs  %ecx,%eax
ffff800000106b8c:	c1 f8 03             	sar    $0x3,%eax
ffff800000106b8f:	48 98                	cltq   
ffff800000106b91:	48 01 d0             	add    %rdx,%rax
ffff800000106b94:	0f b6 00             	movzbl (%rax),%eax
ffff800000106b97:	0f b6 f0             	movzbl %al,%esi
ffff800000106b9a:	8b 45 ec             	mov    -0x14(%rbp),%eax
ffff800000106b9d:	99                   	cltd   
ffff800000106b9e:	c1 ea 1d             	shr    $0x1d,%edx
ffff800000106ba1:	01 d0                	add    %edx,%eax
ffff800000106ba3:	83 e0 07             	and    $0x7,%eax
ffff800000106ba6:	29 d0                	sub    %edx,%eax
ffff800000106ba8:	89 c1                	mov    %eax,%ecx
ffff800000106baa:	d3 fe                	sar    %cl,%esi
ffff800000106bac:	89 f0                	mov    %esi,%eax
ffff800000106bae:	83 e0 01             	and    $0x1,%eax
ffff800000106bb1:	85 c0                	test   %eax,%eax
ffff800000106bb3:	0f 85 91 00 00 00    	jne    ffff800000106c4a <alloc_slab+0x194>
ffff800000106bb9:	48 8b 45 f8          	mov    -0x8(%rbp),%rax
ffff800000106bbd:	48 8b 40 08          	mov    0x8(%rax),%rax
ffff800000106bc1:	48 8d 50 ff          	lea    -0x1(%rax),%rdx
ffff800000106bc5:	48 8b 45 f8          	mov    -0x8(%rbp),%rax
ffff800000106bc9:	48 89 50 08          	mov    %rdx,0x8(%rax)
ffff800000106bcd:	48 8b 45 f8          	mov    -0x8(%rbp),%rax
ffff800000106bd1:	48 8b 40 10          	mov    0x10(%rax),%rax
ffff800000106bd5:	48 8d 50 01          	lea    0x1(%rax),%rdx
ffff800000106bd9:	48 8b 45 f8          	mov    -0x8(%rbp),%rax
ffff800000106bdd:	48 89 50 10          	mov    %rdx,0x10(%rax)
ffff800000106be1:	48 8b 45 f8          	mov    -0x8(%rbp),%rax
ffff800000106be5:	48 8b 50 20          	mov    0x20(%rax),%rdx
ffff800000106be9:	8b 45 ec             	mov    -0x14(%rbp),%eax
ffff800000106bec:	8d 48 07             	lea    0x7(%rax),%ecx
ffff800000106bef:	85 c0                	test   %eax,%eax
ffff800000106bf1:	0f 48 c1             	cmovs  %ecx,%eax
ffff800000106bf4:	c1 f8 03             	sar    $0x3,%eax
ffff800000106bf7:	89 c6                	mov    %eax,%esi
ffff800000106bf9:	48 63 c6             	movslq %esi,%rax
ffff800000106bfc:	48 01 d0             	add    %rdx,%rax
ffff800000106bff:	0f b6 38             	movzbl (%rax),%edi
ffff800000106c02:	8b 45 ec             	mov    -0x14(%rbp),%eax
ffff800000106c05:	99                   	cltd   
ffff800000106c06:	c1 ea 1d             	shr    $0x1d,%edx
ffff800000106c09:	01 d0                	add    %edx,%eax
ffff800000106c0b:	83 e0 07             	and    $0x7,%eax
ffff800000106c0e:	29 d0                	sub    %edx,%eax
ffff800000106c10:	ba 01 00 00 00       	mov    $0x1,%edx
ffff800000106c15:	89 c1                	mov    %eax,%ecx
ffff800000106c17:	d3 e2                	shl    %cl,%edx
ffff800000106c19:	89 d0                	mov    %edx,%eax
ffff800000106c1b:	89 c1                	mov    %eax,%ecx
ffff800000106c1d:	48 8b 45 f8          	mov    -0x8(%rbp),%rax
ffff800000106c21:	48 8b 50 20          	mov    0x20(%rax),%rdx
ffff800000106c25:	48 63 c6             	movslq %esi,%rax
ffff800000106c28:	48 01 d0             	add    %rdx,%rax
ffff800000106c2b:	09 cf                	or     %ecx,%edi
ffff800000106c2d:	89 fa                	mov    %edi,%edx
ffff800000106c2f:	88 10                	mov    %dl,(%rax)
ffff800000106c31:	48 8b 45 f8          	mov    -0x8(%rbp),%rax
ffff800000106c35:	48 8b 00             	mov    (%rax),%rax
ffff800000106c38:	48 8b 10             	mov    (%rax),%rdx
ffff800000106c3b:	8b 45 ec             	mov    -0x14(%rbp),%eax
ffff800000106c3e:	0f af 45 e8          	imul   -0x18(%rbp),%eax
ffff800000106c42:	48 98                	cltq   
ffff800000106c44:	48 01 d0             	add    %rdx,%rax
ffff800000106c47:	eb 3b                	jmp    ffff800000106c84 <alloc_slab+0x1ce>
ffff800000106c49:	90                   	nop
ffff800000106c4a:	83 45 ec 01          	addl   $0x1,-0x14(%rbp)
ffff800000106c4e:	8b 45 ec             	mov    -0x14(%rbp),%eax
ffff800000106c51:	3b 45 f4             	cmp    -0xc(%rbp),%eax
ffff800000106c54:	0f 8c f9 fe ff ff    	jl     ffff800000106b53 <alloc_slab+0x9d>
ffff800000106c5a:	48 ba 2c ba 10 00 00 	movabs $0xffff80000010ba2c,%rdx
ffff800000106c61:	80 ff ff 
ffff800000106c64:	be 00 00 ff 00       	mov    $0xff0000,%esi
ffff800000106c69:	bf 00 00 00 00       	mov    $0x0,%edi
ffff800000106c6e:	b8 00 00 00 00       	mov    $0x0,%eax
ffff800000106c73:	48 b9 ed 27 10 00 00 	movabs $0xffff8000001027ed,%rcx
ffff800000106c7a:	80 ff ff 
ffff800000106c7d:	ff d1                	callq  *%rcx
ffff800000106c7f:	b8 00 00 00 00       	mov    $0x0,%eax
ffff800000106c84:	c9                   	leaveq 
ffff800000106c85:	c3                   	retq   

ffff800000106c86 <create_slab>:
ffff800000106c86:	55                   	push   %rbp
ffff800000106c87:	48 89 e5             	mov    %rsp,%rbp
ffff800000106c8a:	48 83 ec 30          	sub    $0x30,%rsp
ffff800000106c8e:	89 7d dc             	mov    %edi,-0x24(%rbp)
ffff800000106c91:	bf 83 00 00 00       	mov    $0x83,%edi
ffff800000106c96:	48 b8 fe 66 10 00 00 	movabs $0xffff8000001066fe,%rax
ffff800000106c9d:	80 ff ff 
ffff800000106ca0:	ff d0                	callq  *%rax
ffff800000106ca2:	48 89 45 e8          	mov    %rax,-0x18(%rbp)
ffff800000106ca6:	48 c7 45 f8 00 00 00 	movq   $0x0,-0x8(%rbp)
ffff800000106cad:	00 
ffff800000106cae:	48 83 7d e8 00       	cmpq   $0x0,-0x18(%rbp)
ffff800000106cb3:	75 0a                	jne    ffff800000106cbf <create_slab+0x39>
ffff800000106cb5:	b8 00 00 00 00       	mov    $0x0,%eax
ffff800000106cba:	e9 76 03 00 00       	jmpq   ffff800000107035 <create_slab+0x3af>
ffff800000106cbf:	81 7d dc 00 10 00 00 	cmpl   $0x1000,-0x24(%rbp)
ffff800000106cc6:	0f 84 4b 02 00 00    	je     ffff800000106f17 <create_slab+0x291>
ffff800000106ccc:	81 7d dc 00 10 00 00 	cmpl   $0x1000,-0x24(%rbp)
ffff800000106cd3:	7f 68                	jg     ffff800000106d3d <create_slab+0xb7>
ffff800000106cd5:	81 7d dc 00 01 00 00 	cmpl   $0x100,-0x24(%rbp)
ffff800000106cdc:	0f 84 e4 00 00 00    	je     ffff800000106dc6 <create_slab+0x140>
ffff800000106ce2:	81 7d dc 00 01 00 00 	cmpl   $0x100,-0x24(%rbp)
ffff800000106ce9:	7f 26                	jg     ffff800000106d11 <create_slab+0x8b>
ffff800000106ceb:	83 7d dc 40          	cmpl   $0x40,-0x24(%rbp)
ffff800000106cef:	0f 84 d1 00 00 00    	je     ffff800000106dc6 <create_slab+0x140>
ffff800000106cf5:	81 7d dc 80 00 00 00 	cmpl   $0x80,-0x24(%rbp)
ffff800000106cfc:	0f 84 c4 00 00 00    	je     ffff800000106dc6 <create_slab+0x140>
ffff800000106d02:	83 7d dc 20          	cmpl   $0x20,-0x24(%rbp)
ffff800000106d06:	0f 84 ba 00 00 00    	je     ffff800000106dc6 <create_slab+0x140>
ffff800000106d0c:	e9 e7 02 00 00       	jmpq   ffff800000106ff8 <create_slab+0x372>
ffff800000106d11:	81 7d dc 00 04 00 00 	cmpl   $0x400,-0x24(%rbp)
ffff800000106d18:	0f 84 f9 01 00 00    	je     ffff800000106f17 <create_slab+0x291>
ffff800000106d1e:	81 7d dc 00 08 00 00 	cmpl   $0x800,-0x24(%rbp)
ffff800000106d25:	0f 84 ec 01 00 00    	je     ffff800000106f17 <create_slab+0x291>
ffff800000106d2b:	81 7d dc 00 02 00 00 	cmpl   $0x200,-0x24(%rbp)
ffff800000106d32:	0f 84 8e 00 00 00    	je     ffff800000106dc6 <create_slab+0x140>
ffff800000106d38:	e9 bb 02 00 00       	jmpq   ffff800000106ff8 <create_slab+0x372>
ffff800000106d3d:	81 7d dc 00 00 01 00 	cmpl   $0x10000,-0x24(%rbp)
ffff800000106d44:	0f 84 cd 01 00 00    	je     ffff800000106f17 <create_slab+0x291>
ffff800000106d4a:	81 7d dc 00 00 01 00 	cmpl   $0x10000,-0x24(%rbp)
ffff800000106d51:	7f 2c                	jg     ffff800000106d7f <create_slab+0xf9>
ffff800000106d53:	81 7d dc 00 40 00 00 	cmpl   $0x4000,-0x24(%rbp)
ffff800000106d5a:	0f 84 b7 01 00 00    	je     ffff800000106f17 <create_slab+0x291>
ffff800000106d60:	81 7d dc 00 80 00 00 	cmpl   $0x8000,-0x24(%rbp)
ffff800000106d67:	0f 84 aa 01 00 00    	je     ffff800000106f17 <create_slab+0x291>
ffff800000106d6d:	81 7d dc 00 20 00 00 	cmpl   $0x2000,-0x24(%rbp)
ffff800000106d74:	0f 84 9d 01 00 00    	je     ffff800000106f17 <create_slab+0x291>
ffff800000106d7a:	e9 79 02 00 00       	jmpq   ffff800000106ff8 <create_slab+0x372>
ffff800000106d7f:	81 7d dc 00 00 04 00 	cmpl   $0x40000,-0x24(%rbp)
ffff800000106d86:	0f 84 8b 01 00 00    	je     ffff800000106f17 <create_slab+0x291>
ffff800000106d8c:	81 7d dc 00 00 04 00 	cmpl   $0x40000,-0x24(%rbp)
ffff800000106d93:	7f 12                	jg     ffff800000106da7 <create_slab+0x121>
ffff800000106d95:	81 7d dc 00 00 02 00 	cmpl   $0x20000,-0x24(%rbp)
ffff800000106d9c:	0f 84 75 01 00 00    	je     ffff800000106f17 <create_slab+0x291>
ffff800000106da2:	e9 51 02 00 00       	jmpq   ffff800000106ff8 <create_slab+0x372>
ffff800000106da7:	81 7d dc 00 00 08 00 	cmpl   $0x80000,-0x24(%rbp)
ffff800000106dae:	0f 84 63 01 00 00    	je     ffff800000106f17 <create_slab+0x291>
ffff800000106db4:	81 7d dc 00 00 10 00 	cmpl   $0x100000,-0x24(%rbp)
ffff800000106dbb:	0f 84 56 01 00 00    	je     ffff800000106f17 <create_slab+0x291>
ffff800000106dc1:	e9 32 02 00 00       	jmpq   ffff800000106ff8 <create_slab+0x372>
ffff800000106dc6:	48 8b 45 e8          	mov    -0x18(%rbp),%rax
ffff800000106dca:	48 8b 00             	mov    (%rax),%rax
ffff800000106dcd:	48 89 45 f8          	mov    %rax,-0x8(%rbp)
ffff800000106dd1:	48 8b 45 f8          	mov    -0x8(%rbp),%rax
ffff800000106dd5:	48 8b 55 e8          	mov    -0x18(%rbp),%rdx
ffff800000106dd9:	48 89 10             	mov    %rdx,(%rax)
ffff800000106ddc:	48 8b 45 e8          	mov    -0x18(%rbp),%rax
ffff800000106de0:	48 8b 00             	mov    (%rax),%rax
ffff800000106de3:	48 83 c0 38          	add    $0x38,%rax
ffff800000106de7:	48 89 c2             	mov    %rax,%rdx
ffff800000106dea:	48 8b 45 f8          	mov    -0x8(%rbp),%rax
ffff800000106dee:	48 89 50 20          	mov    %rdx,0x20(%rax)
ffff800000106df2:	8b 45 dc             	mov    -0x24(%rbp),%eax
ffff800000106df5:	48 63 c8             	movslq %eax,%rcx
ffff800000106df8:	b8 00 00 20 00       	mov    $0x200000,%eax
ffff800000106dfd:	ba 00 00 00 00       	mov    $0x0,%edx
ffff800000106e02:	48 f7 f1             	div    %rcx
ffff800000106e05:	48 89 c2             	mov    %rax,%rdx
ffff800000106e08:	48 8b 45 f8          	mov    -0x8(%rbp),%rax
ffff800000106e0c:	48 89 50 08          	mov    %rdx,0x8(%rax)
ffff800000106e10:	48 8b 45 f8          	mov    -0x8(%rbp),%rax
ffff800000106e14:	48 8b 40 08          	mov    0x8(%rax),%rax
ffff800000106e18:	48 c1 e8 03          	shr    $0x3,%rax
ffff800000106e1c:	48 89 c2             	mov    %rax,%rdx
ffff800000106e1f:	48 8b 45 f8          	mov    -0x8(%rbp),%rax
ffff800000106e23:	48 89 50 18          	mov    %rdx,0x18(%rax)
ffff800000106e27:	48 8b 45 f8          	mov    -0x8(%rbp),%rax
ffff800000106e2b:	48 8b 50 18          	mov    0x18(%rax),%rdx
ffff800000106e2f:	8b 45 dc             	mov    -0x24(%rbp),%eax
ffff800000106e32:	48 98                	cltq   
ffff800000106e34:	48 01 d0             	add    %rdx,%rax
ffff800000106e37:	48 83 c0 37          	add    $0x37,%rax
ffff800000106e3b:	8b 55 dc             	mov    -0x24(%rbp),%edx
ffff800000106e3e:	48 63 f2             	movslq %edx,%rsi
ffff800000106e41:	ba 00 00 00 00       	mov    $0x0,%edx
ffff800000106e46:	48 f7 f6             	div    %rsi
ffff800000106e49:	48 89 c2             	mov    %rax,%rdx
ffff800000106e4c:	48 8b 45 f8          	mov    -0x8(%rbp),%rax
ffff800000106e50:	48 89 50 10          	mov    %rdx,0x10(%rax)
ffff800000106e54:	48 8b 45 f8          	mov    -0x8(%rbp),%rax
ffff800000106e58:	48 8b 50 08          	mov    0x8(%rax),%rdx
ffff800000106e5c:	48 8b 45 f8          	mov    -0x8(%rbp),%rax
ffff800000106e60:	48 8b 40 10          	mov    0x10(%rax),%rax
ffff800000106e64:	48 29 c2             	sub    %rax,%rdx
ffff800000106e67:	48 8b 45 f8          	mov    -0x8(%rbp),%rax
ffff800000106e6b:	48 89 50 08          	mov    %rdx,0x8(%rax)
ffff800000106e6f:	48 8b 45 f8          	mov    -0x8(%rbp),%rax
ffff800000106e73:	48 8b 40 18          	mov    0x18(%rax),%rax
ffff800000106e77:	48 89 c2             	mov    %rax,%rdx
ffff800000106e7a:	48 8b 45 f8          	mov    -0x8(%rbp),%rax
ffff800000106e7e:	48 8b 40 20          	mov    0x20(%rax),%rax
ffff800000106e82:	be 00 00 00 00       	mov    $0x0,%esi
ffff800000106e87:	48 89 c7             	mov    %rax,%rdi
ffff800000106e8a:	48 b8 b1 43 10 00 00 	movabs $0xffff8000001043b1,%rax
ffff800000106e91:	80 ff ff 
ffff800000106e94:	ff d0                	callq  *%rax
ffff800000106e96:	c7 45 f4 00 00 00 00 	movl   $0x0,-0xc(%rbp)
ffff800000106e9d:	eb 54                	jmp    ffff800000106ef3 <create_slab+0x26d>
ffff800000106e9f:	48 8b 45 f8          	mov    -0x8(%rbp),%rax
ffff800000106ea3:	48 8b 50 20          	mov    0x20(%rax),%rdx
ffff800000106ea7:	8b 45 f4             	mov    -0xc(%rbp),%eax
ffff800000106eaa:	8d 48 07             	lea    0x7(%rax),%ecx
ffff800000106ead:	85 c0                	test   %eax,%eax
ffff800000106eaf:	0f 48 c1             	cmovs  %ecx,%eax
ffff800000106eb2:	c1 f8 03             	sar    $0x3,%eax
ffff800000106eb5:	89 c6                	mov    %eax,%esi
ffff800000106eb7:	48 63 c6             	movslq %esi,%rax
ffff800000106eba:	48 01 d0             	add    %rdx,%rax
ffff800000106ebd:	0f b6 38             	movzbl (%rax),%edi
ffff800000106ec0:	8b 45 f4             	mov    -0xc(%rbp),%eax
ffff800000106ec3:	99                   	cltd   
ffff800000106ec4:	c1 ea 1d             	shr    $0x1d,%edx
ffff800000106ec7:	01 d0                	add    %edx,%eax
ffff800000106ec9:	83 e0 07             	and    $0x7,%eax
ffff800000106ecc:	29 d0                	sub    %edx,%eax
ffff800000106ece:	ba 01 00 00 00       	mov    $0x1,%edx
ffff800000106ed3:	89 c1                	mov    %eax,%ecx
ffff800000106ed5:	d3 e2                	shl    %cl,%edx
ffff800000106ed7:	89 d0                	mov    %edx,%eax
ffff800000106ed9:	89 c1                	mov    %eax,%ecx
ffff800000106edb:	48 8b 45 f8          	mov    -0x8(%rbp),%rax
ffff800000106edf:	48 8b 50 20          	mov    0x20(%rax),%rdx
ffff800000106ee3:	48 63 c6             	movslq %esi,%rax
ffff800000106ee6:	48 01 d0             	add    %rdx,%rax
ffff800000106ee9:	09 cf                	or     %ecx,%edi
ffff800000106eeb:	89 fa                	mov    %edi,%edx
ffff800000106eed:	88 10                	mov    %dl,(%rax)
ffff800000106eef:	83 45 f4 01          	addl   $0x1,-0xc(%rbp)
ffff800000106ef3:	8b 45 f4             	mov    -0xc(%rbp),%eax
ffff800000106ef6:	48 63 d0             	movslq %eax,%rdx
ffff800000106ef9:	48 8b 45 f8          	mov    -0x8(%rbp),%rax
ffff800000106efd:	48 8b 40 10          	mov    0x10(%rax),%rax
ffff800000106f01:	48 39 c2             	cmp    %rax,%rdx
ffff800000106f04:	72 99                	jb     ffff800000106e9f <create_slab+0x219>
ffff800000106f06:	48 8b 45 f8          	mov    -0x8(%rbp),%rax
ffff800000106f0a:	48 c7 40 30 00 00 00 	movq   $0x0,0x30(%rax)
ffff800000106f11:	00 
ffff800000106f12:	e9 02 01 00 00       	jmpq   ffff800000107019 <create_slab+0x393>
ffff800000106f17:	bf 38 00 00 00       	mov    $0x38,%edi
ffff800000106f1c:	48 b8 34 6a 10 00 00 	movabs $0xffff800000106a34,%rax
ffff800000106f23:	80 ff ff 
ffff800000106f26:	ff d0                	callq  *%rax
ffff800000106f28:	48 89 45 f8          	mov    %rax,-0x8(%rbp)
ffff800000106f2c:	48 83 7d f8 00       	cmpq   $0x0,-0x8(%rbp)
ffff800000106f31:	75 2f                	jne    ffff800000106f62 <create_slab+0x2dc>
ffff800000106f33:	48 ba 3e ba 10 00 00 	movabs $0xffff80000010ba3e,%rdx
ffff800000106f3a:	80 ff ff 
ffff800000106f3d:	be 00 00 ff 00       	mov    $0xff0000,%esi
ffff800000106f42:	bf 00 00 00 00       	mov    $0x0,%edi
ffff800000106f47:	b8 00 00 00 00       	mov    $0x0,%eax
ffff800000106f4c:	48 b9 ed 27 10 00 00 	movabs $0xffff8000001027ed,%rcx
ffff800000106f53:	80 ff ff 
ffff800000106f56:	ff d1                	callq  *%rcx
ffff800000106f58:	b8 00 00 00 00       	mov    $0x0,%eax
ffff800000106f5d:	e9 d3 00 00 00       	jmpq   ffff800000107035 <create_slab+0x3af>
ffff800000106f62:	48 8b 45 f8          	mov    -0x8(%rbp),%rax
ffff800000106f66:	48 8b 40 08          	mov    0x8(%rax),%rax
ffff800000106f6a:	48 c1 e8 03          	shr    $0x3,%rax
ffff800000106f6e:	48 89 c2             	mov    %rax,%rdx
ffff800000106f71:	48 8b 45 f8          	mov    -0x8(%rbp),%rax
ffff800000106f75:	48 89 50 18          	mov    %rdx,0x18(%rax)
ffff800000106f79:	48 8b 45 f8          	mov    -0x8(%rbp),%rax
ffff800000106f7d:	48 8b 40 18          	mov    0x18(%rax),%rax
ffff800000106f81:	89 c7                	mov    %eax,%edi
ffff800000106f83:	48 b8 34 6a 10 00 00 	movabs $0xffff800000106a34,%rax
ffff800000106f8a:	80 ff ff 
ffff800000106f8d:	ff d0                	callq  *%rax
ffff800000106f8f:	48 89 c2             	mov    %rax,%rdx
ffff800000106f92:	48 8b 45 f8          	mov    -0x8(%rbp),%rax
ffff800000106f96:	48 89 50 20          	mov    %rdx,0x20(%rax)
ffff800000106f9a:	48 8b 45 f8          	mov    -0x8(%rbp),%rax
ffff800000106f9e:	48 8b 55 e8          	mov    -0x18(%rbp),%rdx
ffff800000106fa2:	48 89 10             	mov    %rdx,(%rax)
ffff800000106fa5:	8b 45 dc             	mov    -0x24(%rbp),%eax
ffff800000106fa8:	48 63 c8             	movslq %eax,%rcx
ffff800000106fab:	b8 00 00 20 00       	mov    $0x200000,%eax
ffff800000106fb0:	ba 00 00 00 00       	mov    $0x0,%edx
ffff800000106fb5:	48 f7 f1             	div    %rcx
ffff800000106fb8:	48 89 c2             	mov    %rax,%rdx
ffff800000106fbb:	48 8b 45 f8          	mov    -0x8(%rbp),%rax
ffff800000106fbf:	48 89 50 08          	mov    %rdx,0x8(%rax)
ffff800000106fc3:	48 8b 45 f8          	mov    -0x8(%rbp),%rax
ffff800000106fc7:	48 c7 40 10 00 00 00 	movq   $0x0,0x10(%rax)
ffff800000106fce:	00 
ffff800000106fcf:	48 8b 45 f8          	mov    -0x8(%rbp),%rax
ffff800000106fd3:	48 8b 40 18          	mov    0x18(%rax),%rax
ffff800000106fd7:	48 89 c2             	mov    %rax,%rdx
ffff800000106fda:	48 8b 45 f8          	mov    -0x8(%rbp),%rax
ffff800000106fde:	48 8b 40 20          	mov    0x20(%rax),%rax
ffff800000106fe2:	be 00 00 00 00       	mov    $0x0,%esi
ffff800000106fe7:	48 89 c7             	mov    %rax,%rdi
ffff800000106fea:	48 b8 b1 43 10 00 00 	movabs $0xffff8000001043b1,%rax
ffff800000106ff1:	80 ff ff 
ffff800000106ff4:	ff d0                	callq  *%rax
ffff800000106ff6:	eb 21                	jmp    ffff800000107019 <create_slab+0x393>
ffff800000106ff8:	8b 45 dc             	mov    -0x24(%rbp),%eax
ffff800000106ffb:	89 c6                	mov    %eax,%esi
ffff800000106ffd:	48 bf 50 ba 10 00 00 	movabs $0xffff80000010ba50,%rdi
ffff800000107004:	80 ff ff 
ffff800000107007:	b8 00 00 00 00       	mov    $0x0,%eax
ffff80000010700c:	48 ba 50 30 10 00 00 	movabs $0xffff800000103050,%rdx
ffff800000107013:	80 ff ff 
ffff800000107016:	ff d2                	callq  *%rdx
ffff800000107018:	90                   	nop
ffff800000107019:	8b 55 dc             	mov    -0x24(%rbp),%edx
ffff80000010701c:	48 8b 45 f8          	mov    -0x8(%rbp),%rax
ffff800000107020:	89 d6                	mov    %edx,%esi
ffff800000107022:	48 89 c7             	mov    %rax,%rdi
ffff800000107025:	48 b8 37 70 10 00 00 	movabs $0xffff800000107037,%rax
ffff80000010702c:	80 ff ff 
ffff80000010702f:	ff d0                	callq  *%rax
ffff800000107031:	48 8b 45 f8          	mov    -0x8(%rbp),%rax
ffff800000107035:	c9                   	leaveq 
ffff800000107036:	c3                   	retq   

ffff800000107037 <append_slab>:
ffff800000107037:	55                   	push   %rbp
ffff800000107038:	48 89 e5             	mov    %rsp,%rbp
ffff80000010703b:	48 83 ec 20          	sub    $0x20,%rsp
ffff80000010703f:	48 89 7d e8          	mov    %rdi,-0x18(%rbp)
ffff800000107043:	89 75 e4             	mov    %esi,-0x1c(%rbp)
ffff800000107046:	c7 45 f8 20 00 00 00 	movl   $0x20,-0x8(%rbp)
ffff80000010704d:	c7 45 fc 00 00 00 00 	movl   $0x0,-0x4(%rbp)
ffff800000107054:	eb 0f                	jmp    ffff800000107065 <append_slab+0x2e>
ffff800000107056:	8b 45 f8             	mov    -0x8(%rbp),%eax
ffff800000107059:	3b 45 e4             	cmp    -0x1c(%rbp),%eax
ffff80000010705c:	74 0f                	je     ffff80000010706d <append_slab+0x36>
ffff80000010705e:	d1 65 f8             	shll   -0x8(%rbp)
ffff800000107061:	83 45 fc 01          	addl   $0x1,-0x4(%rbp)
ffff800000107065:	83 7d fc 0f          	cmpl   $0xf,-0x4(%rbp)
ffff800000107069:	7e eb                	jle    ffff800000107056 <append_slab+0x1f>
ffff80000010706b:	eb 01                	jmp    ffff80000010706e <append_slab+0x37>
ffff80000010706d:	90                   	nop
ffff80000010706e:	83 7d fc 10          	cmpl   $0x10,-0x4(%rbp)
ffff800000107072:	75 25                	jne    ffff800000107099 <append_slab+0x62>
ffff800000107074:	8b 45 e4             	mov    -0x1c(%rbp),%eax
ffff800000107077:	89 c6                	mov    %eax,%esi
ffff800000107079:	48 bf 5f ba 10 00 00 	movabs $0xffff80000010ba5f,%rdi
ffff800000107080:	80 ff ff 
ffff800000107083:	b8 00 00 00 00       	mov    $0x0,%eax
ffff800000107088:	48 ba 50 30 10 00 00 	movabs $0xffff800000103050,%rdx
ffff80000010708f:	80 ff ff 
ffff800000107092:	ff d2                	callq  *%rdx
ffff800000107094:	e9 b2 00 00 00       	jmpq   ffff80000010714b <append_slab+0x114>
ffff800000107099:	48 ba a0 15 11 00 00 	movabs $0xffff8000001115a0,%rdx
ffff8000001070a0:	80 ff ff 
ffff8000001070a3:	8b 45 fc             	mov    -0x4(%rbp),%eax
ffff8000001070a6:	48 98                	cltq   
ffff8000001070a8:	48 c1 e0 05          	shl    $0x5,%rax
ffff8000001070ac:	48 01 d0             	add    %rdx,%rax
ffff8000001070af:	48 8b 00             	mov    (%rax),%rax
ffff8000001070b2:	48 89 45 f0          	mov    %rax,-0x10(%rbp)
ffff8000001070b6:	48 83 7d f0 00       	cmpq   $0x0,-0x10(%rbp)
ffff8000001070bb:	75 2b                	jne    ffff8000001070e8 <append_slab+0xb1>
ffff8000001070bd:	48 ba a0 15 11 00 00 	movabs $0xffff8000001115a0,%rdx
ffff8000001070c4:	80 ff ff 
ffff8000001070c7:	8b 45 fc             	mov    -0x4(%rbp),%eax
ffff8000001070ca:	48 98                	cltq   
ffff8000001070cc:	48 c1 e0 05          	shl    $0x5,%rax
ffff8000001070d0:	48 01 c2             	add    %rax,%rdx
ffff8000001070d3:	48 8b 45 e8          	mov    -0x18(%rbp),%rax
ffff8000001070d7:	48 89 02             	mov    %rax,(%rdx)
ffff8000001070da:	eb 6f                	jmp    ffff80000010714b <append_slab+0x114>
ffff8000001070dc:	48 8b 45 f0          	mov    -0x10(%rbp),%rax
ffff8000001070e0:	48 8b 40 30          	mov    0x30(%rax),%rax
ffff8000001070e4:	48 89 45 f0          	mov    %rax,-0x10(%rbp)
ffff8000001070e8:	48 8b 45 f0          	mov    -0x10(%rbp),%rax
ffff8000001070ec:	48 8b 40 30          	mov    0x30(%rax),%rax
ffff8000001070f0:	48 85 c0             	test   %rax,%rax
ffff8000001070f3:	75 e7                	jne    ffff8000001070dc <append_slab+0xa5>
ffff8000001070f5:	48 8b 45 f0          	mov    -0x10(%rbp),%rax
ffff8000001070f9:	48 8b 55 e8          	mov    -0x18(%rbp),%rdx
ffff8000001070fd:	48 89 50 30          	mov    %rdx,0x30(%rax)
ffff800000107101:	48 8b 45 e8          	mov    -0x18(%rbp),%rax
ffff800000107105:	48 8b 55 f0          	mov    -0x10(%rbp),%rdx
ffff800000107109:	48 89 50 28          	mov    %rdx,0x28(%rax)
ffff80000010710d:	48 ba a0 15 11 00 00 	movabs $0xffff8000001115a0,%rdx
ffff800000107114:	80 ff ff 
ffff800000107117:	8b 45 fc             	mov    -0x4(%rbp),%eax
ffff80000010711a:	48 98                	cltq   
ffff80000010711c:	48 c1 e0 05          	shl    $0x5,%rax
ffff800000107120:	48 01 d0             	add    %rdx,%rax
ffff800000107123:	48 83 c0 08          	add    $0x8,%rax
ffff800000107127:	48 8b 00             	mov    (%rax),%rax
ffff80000010712a:	48 8d 50 01          	lea    0x1(%rax),%rdx
ffff80000010712e:	48 b9 a0 15 11 00 00 	movabs $0xffff8000001115a0,%rcx
ffff800000107135:	80 ff ff 
ffff800000107138:	8b 45 fc             	mov    -0x4(%rbp),%eax
ffff80000010713b:	48 98                	cltq   
ffff80000010713d:	48 c1 e0 05          	shl    $0x5,%rax
ffff800000107141:	48 01 c8             	add    %rcx,%rax
ffff800000107144:	48 83 c0 08          	add    $0x8,%rax
ffff800000107148:	48 89 10             	mov    %rdx,(%rax)
ffff80000010714b:	c9                   	leaveq 
ffff80000010714c:	c3                   	retq   

ffff80000010714d <delete_slab>:
ffff80000010714d:	55                   	push   %rbp
ffff80000010714e:	48 89 e5             	mov    %rsp,%rbp
ffff800000107151:	48 83 ec 10          	sub    $0x10,%rsp
ffff800000107155:	48 89 7d f8          	mov    %rdi,-0x8(%rbp)
ffff800000107159:	89 75 f4             	mov    %esi,-0xc(%rbp)
ffff80000010715c:	48 8b 45 f8          	mov    -0x8(%rbp),%rax
ffff800000107160:	48 8b 40 28          	mov    0x28(%rax),%rax
ffff800000107164:	48 85 c0             	test   %rax,%rax
ffff800000107167:	0f 84 88 00 00 00    	je     ffff8000001071f5 <delete_slab+0xa8>
ffff80000010716d:	48 8b 45 f8          	mov    -0x8(%rbp),%rax
ffff800000107171:	48 8b 40 28          	mov    0x28(%rax),%rax
ffff800000107175:	48 8b 55 f8          	mov    -0x8(%rbp),%rdx
ffff800000107179:	48 8b 52 30          	mov    0x30(%rdx),%rdx
ffff80000010717d:	48 89 50 30          	mov    %rdx,0x30(%rax)
ffff800000107181:	48 8b 45 f8          	mov    -0x8(%rbp),%rax
ffff800000107185:	48 8b 40 30          	mov    0x30(%rax),%rax
ffff800000107189:	48 8b 55 f8          	mov    -0x8(%rbp),%rdx
ffff80000010718d:	48 8b 52 28          	mov    0x28(%rdx),%rdx
ffff800000107191:	48 89 50 28          	mov    %rdx,0x28(%rax)
ffff800000107195:	81 7d f4 80 00 00 00 	cmpl   $0x80,-0xc(%rbp)
ffff80000010719c:	74 29                	je     ffff8000001071c7 <delete_slab+0x7a>
ffff80000010719e:	81 7d f4 80 00 00 00 	cmpl   $0x80,-0xc(%rbp)
ffff8000001071a5:	7f 0e                	jg     ffff8000001071b5 <delete_slab+0x68>
ffff8000001071a7:	83 7d f4 20          	cmpl   $0x20,-0xc(%rbp)
ffff8000001071ab:	74 1a                	je     ffff8000001071c7 <delete_slab+0x7a>
ffff8000001071ad:	83 7d f4 40          	cmpl   $0x40,-0xc(%rbp)
ffff8000001071b1:	74 14                	je     ffff8000001071c7 <delete_slab+0x7a>
ffff8000001071b3:	eb 2a                	jmp    ffff8000001071df <delete_slab+0x92>
ffff8000001071b5:	81 7d f4 00 01 00 00 	cmpl   $0x100,-0xc(%rbp)
ffff8000001071bc:	74 09                	je     ffff8000001071c7 <delete_slab+0x7a>
ffff8000001071be:	81 7d f4 00 02 00 00 	cmpl   $0x200,-0xc(%rbp)
ffff8000001071c5:	75 18                	jne    ffff8000001071df <delete_slab+0x92>
ffff8000001071c7:	48 8b 45 f8          	mov    -0x8(%rbp),%rax
ffff8000001071cb:	48 8b 00             	mov    (%rax),%rax
ffff8000001071ce:	48 89 c7             	mov    %rax,%rdi
ffff8000001071d1:	48 b8 72 68 10 00 00 	movabs $0xffff800000106872,%rax
ffff8000001071d8:	80 ff ff 
ffff8000001071db:	ff d0                	callq  *%rax
ffff8000001071dd:	eb 17                	jmp    ffff8000001071f6 <delete_slab+0xa9>
ffff8000001071df:	48 8b 45 f8          	mov    -0x8(%rbp),%rax
ffff8000001071e3:	48 89 c7             	mov    %rax,%rdi
ffff8000001071e6:	48 b8 f8 71 10 00 00 	movabs $0xffff8000001071f8,%rax
ffff8000001071ed:	80 ff ff 
ffff8000001071f0:	ff d0                	callq  *%rax
ffff8000001071f2:	90                   	nop
ffff8000001071f3:	eb 01                	jmp    ffff8000001071f6 <delete_slab+0xa9>
ffff8000001071f5:	90                   	nop
ffff8000001071f6:	c9                   	leaveq 
ffff8000001071f7:	c3                   	retq   

ffff8000001071f8 <kfree>:
ffff8000001071f8:	55                   	push   %rbp
ffff8000001071f9:	48 89 e5             	mov    %rsp,%rbp
ffff8000001071fc:	48 83 ec 30          	sub    $0x30,%rsp
ffff800000107200:	48 89 7d d8          	mov    %rdi,-0x28(%rbp)
ffff800000107204:	48 8b 45 d8          	mov    -0x28(%rbp),%rax
ffff800000107208:	48 25 00 00 e0 ff    	and    $0xffffffffffe00000,%rax
ffff80000010720e:	48 89 45 e8          	mov    %rax,-0x18(%rbp)
ffff800000107212:	c7 45 fc 00 00 00 00 	movl   $0x0,-0x4(%rbp)
ffff800000107219:	e9 91 01 00 00       	jmpq   ffff8000001073af <kfree+0x1b7>
ffff80000010721e:	48 ba a0 15 11 00 00 	movabs $0xffff8000001115a0,%rdx
ffff800000107225:	80 ff ff 
ffff800000107228:	8b 45 fc             	mov    -0x4(%rbp),%eax
ffff80000010722b:	48 98                	cltq   
ffff80000010722d:	48 c1 e0 05          	shl    $0x5,%rax
ffff800000107231:	48 01 d0             	add    %rdx,%rax
ffff800000107234:	48 8b 00             	mov    (%rax),%rax
ffff800000107237:	48 89 45 f0          	mov    %rax,-0x10(%rbp)
ffff80000010723b:	e9 60 01 00 00       	jmpq   ffff8000001073a0 <kfree+0x1a8>
ffff800000107240:	48 8b 45 f0          	mov    -0x10(%rbp),%rax
ffff800000107244:	48 8b 00             	mov    (%rax),%rax
ffff800000107247:	48 8b 00             	mov    (%rax),%rax
ffff80000010724a:	48 39 45 e8          	cmp    %rax,-0x18(%rbp)
ffff80000010724e:	0f 85 40 01 00 00    	jne    ffff800000107394 <kfree+0x19c>
ffff800000107254:	48 8b 45 d8          	mov    -0x28(%rbp),%rax
ffff800000107258:	48 2b 45 e8          	sub    -0x18(%rbp),%rax
ffff80000010725c:	48 b9 a0 15 11 00 00 	movabs $0xffff8000001115a0,%rcx
ffff800000107263:	80 ff ff 
ffff800000107266:	8b 55 fc             	mov    -0x4(%rbp),%edx
ffff800000107269:	48 63 d2             	movslq %edx,%rdx
ffff80000010726c:	48 c1 e2 05          	shl    $0x5,%rdx
ffff800000107270:	48 01 ca             	add    %rcx,%rdx
ffff800000107273:	48 83 c2 18          	add    $0x18,%rdx
ffff800000107277:	8b 12                	mov    (%rdx),%edx
ffff800000107279:	48 63 f2             	movslq %edx,%rsi
ffff80000010727c:	ba 00 00 00 00       	mov    $0x0,%edx
ffff800000107281:	48 f7 f6             	div    %rsi
ffff800000107284:	89 45 e4             	mov    %eax,-0x1c(%rbp)
ffff800000107287:	48 8b 45 f0          	mov    -0x10(%rbp),%rax
ffff80000010728b:	48 8b 50 20          	mov    0x20(%rax),%rdx
ffff80000010728f:	8b 45 e4             	mov    -0x1c(%rbp),%eax
ffff800000107292:	8d 48 07             	lea    0x7(%rax),%ecx
ffff800000107295:	85 c0                	test   %eax,%eax
ffff800000107297:	0f 48 c1             	cmovs  %ecx,%eax
ffff80000010729a:	c1 f8 03             	sar    $0x3,%eax
ffff80000010729d:	89 c6                	mov    %eax,%esi
ffff80000010729f:	48 63 c6             	movslq %esi,%rax
ffff8000001072a2:	48 01 d0             	add    %rdx,%rax
ffff8000001072a5:	0f b6 10             	movzbl (%rax),%edx
ffff8000001072a8:	8b 45 e4             	mov    -0x1c(%rbp),%eax
ffff8000001072ab:	bf 01 00 00 00       	mov    $0x1,%edi
ffff8000001072b0:	89 c1                	mov    %eax,%ecx
ffff8000001072b2:	d3 e7                	shl    %cl,%edi
ffff8000001072b4:	89 f8                	mov    %edi,%eax
ffff8000001072b6:	f7 d0                	not    %eax
ffff8000001072b8:	89 c7                	mov    %eax,%edi
ffff8000001072ba:	48 8b 45 f0          	mov    -0x10(%rbp),%rax
ffff8000001072be:	48 8b 48 20          	mov    0x20(%rax),%rcx
ffff8000001072c2:	48 63 c6             	movslq %esi,%rax
ffff8000001072c5:	48 01 c8             	add    %rcx,%rax
ffff8000001072c8:	21 fa                	and    %edi,%edx
ffff8000001072ca:	88 10                	mov    %dl,(%rax)
ffff8000001072cc:	48 8b 45 f0          	mov    -0x10(%rbp),%rax
ffff8000001072d0:	48 8b 40 08          	mov    0x8(%rax),%rax
ffff8000001072d4:	48 8d 50 01          	lea    0x1(%rax),%rdx
ffff8000001072d8:	48 8b 45 f0          	mov    -0x10(%rbp),%rax
ffff8000001072dc:	48 89 50 08          	mov    %rdx,0x8(%rax)
ffff8000001072e0:	48 8b 45 f0          	mov    -0x10(%rbp),%rax
ffff8000001072e4:	48 8b 40 10          	mov    0x10(%rax),%rax
ffff8000001072e8:	48 8d 50 ff          	lea    -0x1(%rax),%rdx
ffff8000001072ec:	48 8b 45 f0          	mov    -0x10(%rbp),%rax
ffff8000001072f0:	48 89 50 10          	mov    %rdx,0x10(%rax)
ffff8000001072f4:	48 8b 45 f0          	mov    -0x10(%rbp),%rax
ffff8000001072f8:	48 8b 40 10          	mov    0x10(%rax),%rax
ffff8000001072fc:	48 85 c0             	test   %rax,%rax
ffff8000001072ff:	0f 85 db 00 00 00    	jne    ffff8000001073e0 <kfree+0x1e8>
ffff800000107305:	48 8b 45 f0          	mov    -0x10(%rbp),%rax
ffff800000107309:	48 8b 50 08          	mov    0x8(%rax),%rdx
ffff80000010730d:	48 89 d0             	mov    %rdx,%rax
ffff800000107310:	48 01 c0             	add    %rax,%rax
ffff800000107313:	48 01 d0             	add    %rdx,%rax
ffff800000107316:	48 d1 e8             	shr    %rax
ffff800000107319:	48 89 c2             	mov    %rax,%rdx
ffff80000010731c:	48 b9 a0 15 11 00 00 	movabs $0xffff8000001115a0,%rcx
ffff800000107323:	80 ff ff 
ffff800000107326:	8b 45 fc             	mov    -0x4(%rbp),%eax
ffff800000107329:	48 98                	cltq   
ffff80000010732b:	48 c1 e0 05          	shl    $0x5,%rax
ffff80000010732f:	48 01 c8             	add    %rcx,%rax
ffff800000107332:	48 83 c0 08          	add    $0x8,%rax
ffff800000107336:	48 8b 00             	mov    (%rax),%rax
ffff800000107339:	48 39 c2             	cmp    %rax,%rdx
ffff80000010733c:	0f 87 9e 00 00 00    	ja     ffff8000001073e0 <kfree+0x1e8>
ffff800000107342:	48 ba a0 15 11 00 00 	movabs $0xffff8000001115a0,%rdx
ffff800000107349:	80 ff ff 
ffff80000010734c:	8b 45 fc             	mov    -0x4(%rbp),%eax
ffff80000010734f:	48 98                	cltq   
ffff800000107351:	48 c1 e0 05          	shl    $0x5,%rax
ffff800000107355:	48 01 d0             	add    %rdx,%rax
ffff800000107358:	48 8b 00             	mov    (%rax),%rax
ffff80000010735b:	48 39 45 f0          	cmp    %rax,-0x10(%rbp)
ffff80000010735f:	74 7f                	je     ffff8000001073e0 <kfree+0x1e8>
ffff800000107361:	48 ba a0 15 11 00 00 	movabs $0xffff8000001115a0,%rdx
ffff800000107368:	80 ff ff 
ffff80000010736b:	8b 45 fc             	mov    -0x4(%rbp),%eax
ffff80000010736e:	48 98                	cltq   
ffff800000107370:	48 c1 e0 05          	shl    $0x5,%rax
ffff800000107374:	48 01 d0             	add    %rdx,%rax
ffff800000107377:	48 83 c0 18          	add    $0x18,%rax
ffff80000010737b:	8b 10                	mov    (%rax),%edx
ffff80000010737d:	48 8b 45 f0          	mov    -0x10(%rbp),%rax
ffff800000107381:	89 d6                	mov    %edx,%esi
ffff800000107383:	48 89 c7             	mov    %rax,%rdi
ffff800000107386:	48 b8 4d 71 10 00 00 	movabs $0xffff80000010714d,%rax
ffff80000010738d:	80 ff ff 
ffff800000107390:	ff d0                	callq  *%rax
ffff800000107392:	eb 4c                	jmp    ffff8000001073e0 <kfree+0x1e8>
ffff800000107394:	48 8b 45 f0          	mov    -0x10(%rbp),%rax
ffff800000107398:	48 8b 40 30          	mov    0x30(%rax),%rax
ffff80000010739c:	48 89 45 f0          	mov    %rax,-0x10(%rbp)
ffff8000001073a0:	48 83 7d f0 00       	cmpq   $0x0,-0x10(%rbp)
ffff8000001073a5:	0f 85 95 fe ff ff    	jne    ffff800000107240 <kfree+0x48>
ffff8000001073ab:	83 45 fc 01          	addl   $0x1,-0x4(%rbp)
ffff8000001073af:	83 7d fc 0f          	cmpl   $0xf,-0x4(%rbp)
ffff8000001073b3:	0f 8e 65 fe ff ff    	jle    ffff80000010721e <kfree+0x26>
ffff8000001073b9:	48 ba 7a ba 10 00 00 	movabs $0xffff80000010ba7a,%rdx
ffff8000001073c0:	80 ff ff 
ffff8000001073c3:	be 00 00 ff 00       	mov    $0xff0000,%esi
ffff8000001073c8:	bf 00 00 00 00       	mov    $0x0,%edi
ffff8000001073cd:	b8 00 00 00 00       	mov    $0x0,%eax
ffff8000001073d2:	48 b9 ed 27 10 00 00 	movabs $0xffff8000001027ed,%rcx
ffff8000001073d9:	80 ff ff 
ffff8000001073dc:	ff d1                	callq  *%rcx
ffff8000001073de:	eb 01                	jmp    ffff8000001073e1 <kfree+0x1e9>
ffff8000001073e0:	90                   	nop
ffff8000001073e1:	c9                   	leaveq 
ffff8000001073e2:	c3                   	retq   

ffff8000001073e3 <init_page_table>:
ffff8000001073e3:	55                   	push   %rbp
ffff8000001073e4:	48 89 e5             	mov    %rsp,%rbp
ffff8000001073e7:	48 83 ec 30          	sub    $0x30,%rsp
ffff8000001073eb:	b8 00 00 00 00       	mov    $0x0,%eax
ffff8000001073f0:	48 ba cc 15 10 00 00 	movabs $0xffff8000001015cc,%rdx
ffff8000001073f7:	80 ff ff 
ffff8000001073fa:	ff d2                	callq  *%rdx
ffff8000001073fc:	48 89 c2             	mov    %rax,%rdx
ffff8000001073ff:	48 b8 00 00 00 00 00 	movabs $0xffff800000000000,%rax
ffff800000107406:	80 ff ff 
ffff800000107409:	48 01 d0             	add    %rdx,%rax
ffff80000010740c:	48 89 45 f0          	mov    %rax,-0x10(%rbp)
ffff800000107410:	48 81 45 f0 00 08 00 	addq   $0x800,-0x10(%rbp)
ffff800000107417:	00 
ffff800000107418:	48 8b 45 f0          	mov    -0x10(%rbp),%rax
ffff80000010741c:	48 8b 00             	mov    (%rax),%rax
ffff80000010741f:	48 85 c0             	test   %rax,%rax
ffff800000107422:	74 1b                	je     ffff80000010743f <init_page_table+0x5c>
ffff800000107424:	48 8b 45 f0          	mov    -0x10(%rbp),%rax
ffff800000107428:	48 8b 00             	mov    (%rax),%rax
ffff80000010742b:	48 89 c2             	mov    %rax,%rdx
ffff80000010742e:	48 b8 00 00 00 00 00 	movabs $0xffff800000000000,%rax
ffff800000107435:	80 ff ff 
ffff800000107438:	48 01 d0             	add    %rdx,%rax
ffff80000010743b:	48 89 45 e8          	mov    %rax,-0x18(%rbp)
ffff80000010743f:	48 b8 00 20 01 00 00 	movabs $0xffff800000012000,%rax
ffff800000107446:	80 ff ff 
ffff800000107449:	48 89 45 e0          	mov    %rax,-0x20(%rbp)
ffff80000010744d:	48 b8 00 15 11 00 00 	movabs $0xffff800000111500,%rax
ffff800000107454:	80 ff ff 
ffff800000107457:	48 8b 40 50          	mov    0x50(%rax),%rax
ffff80000010745b:	48 89 45 d8          	mov    %rax,-0x28(%rbp)
ffff80000010745f:	48 ba 86 ba 10 00 00 	movabs $0xffff80000010ba86,%rdx
ffff800000107466:	80 ff ff 
ffff800000107469:	be 00 ff 00 00       	mov    $0xff00,%esi
ffff80000010746e:	bf 00 00 00 00       	mov    $0x0,%edi
ffff800000107473:	b8 00 00 00 00       	mov    $0x0,%eax
ffff800000107478:	48 b9 ed 27 10 00 00 	movabs $0xffff8000001027ed,%rcx
ffff80000010747f:	80 ff ff 
ffff800000107482:	ff d1                	callq  *%rcx
ffff800000107484:	c7 45 fc 00 00 00 00 	movl   $0x0,-0x4(%rbp)
ffff80000010748b:	eb 67                	jmp    ffff8000001074f4 <init_page_table+0x111>
ffff80000010748d:	8b 45 fc             	mov    -0x4(%rbp),%eax
ffff800000107490:	48 98                	cltq   
ffff800000107492:	48 8d 14 c5 00 00 00 	lea    0x0(,%rax,8),%rdx
ffff800000107499:	00 
ffff80000010749a:	48 8b 45 e0          	mov    -0x20(%rbp),%rax
ffff80000010749e:	48 01 d0             	add    %rdx,%rax
ffff8000001074a1:	48 8b 00             	mov    (%rax),%rax
ffff8000001074a4:	48 85 c0             	test   %rax,%rax
ffff8000001074a7:	75 46                	jne    ffff8000001074ef <init_page_table+0x10c>
ffff8000001074a9:	8b 45 fc             	mov    -0x4(%rbp),%eax
ffff8000001074ac:	48 63 d0             	movslq %eax,%rdx
ffff8000001074af:	48 89 d0             	mov    %rdx,%rax
ffff8000001074b2:	48 01 c0             	add    %rax,%rax
ffff8000001074b5:	48 01 d0             	add    %rdx,%rax
ffff8000001074b8:	48 c1 e0 03          	shl    $0x3,%rax
ffff8000001074bc:	48 89 c2             	mov    %rax,%rdx
ffff8000001074bf:	48 8b 45 d8          	mov    -0x28(%rbp),%rax
ffff8000001074c3:	48 01 d0             	add    %rdx,%rax
ffff8000001074c6:	48 8b 40 08          	mov    0x8(%rax),%rax
ffff8000001074ca:	48 25 00 f0 ff ff    	and    $0xfffffffffffff000,%rax
ffff8000001074d0:	48 89 c2             	mov    %rax,%rdx
ffff8000001074d3:	8b 45 fc             	mov    -0x4(%rbp),%eax
ffff8000001074d6:	48 98                	cltq   
ffff8000001074d8:	48 8d 0c c5 00 00 00 	lea    0x0(,%rax,8),%rcx
ffff8000001074df:	00 
ffff8000001074e0:	48 8b 45 e0          	mov    -0x20(%rbp),%rax
ffff8000001074e4:	48 01 c8             	add    %rcx,%rax
ffff8000001074e7:	80 ca 83             	or     $0x83,%dl
ffff8000001074ea:	48 89 10             	mov    %rdx,(%rax)
ffff8000001074ed:	eb 01                	jmp    ffff8000001074f0 <init_page_table+0x10d>
ffff8000001074ef:	90                   	nop
ffff8000001074f0:	83 45 fc 01          	addl   $0x1,-0x4(%rbp)
ffff8000001074f4:	48 b8 00 15 11 00 00 	movabs $0xffff800000111500,%rax
ffff8000001074fb:	80 ff ff 
ffff8000001074fe:	8b 80 84 00 00 00    	mov    0x84(%rax),%eax
ffff800000107504:	39 45 fc             	cmp    %eax,-0x4(%rbp)
ffff800000107507:	7c 84                	jl     ffff80000010748d <init_page_table+0xaa>
ffff800000107509:	0f 20 d8             	mov    %cr3,%rax
ffff80000010750c:	0f 22 d8             	mov    %rax,%cr3
ffff80000010750f:	48 89 45 d0          	mov    %rax,-0x30(%rbp)
ffff800000107513:	48 ba 8d ba 10 00 00 	movabs $0xffff80000010ba8d,%rdx
ffff80000010751a:	80 ff ff 
ffff80000010751d:	be 00 ff 00 00       	mov    $0xff00,%esi
ffff800000107522:	bf 00 00 00 00       	mov    $0x0,%edi
ffff800000107527:	b8 00 00 00 00       	mov    $0x0,%eax
ffff80000010752c:	48 b9 ed 27 10 00 00 	movabs $0xffff8000001027ed,%rcx
ffff800000107533:	80 ff ff 
ffff800000107536:	ff d1                	callq  *%rcx
ffff800000107538:	90                   	nop
ffff800000107539:	c9                   	leaveq 
ffff80000010753a:	c3                   	retq   

ffff80000010753b <main>:
ffff80000010753b:	55                   	push   %rbp
ffff80000010753c:	48 89 e5             	mov    %rsp,%rbp
ffff80000010753f:	48 83 ec 10          	sub    $0x10,%rsp
ffff800000107543:	48 bf 00 00 a0 00 00 	movabs $0xffff800000a00000,%rdi
ffff80000010754a:	80 ff ff 
ffff80000010754d:	48 b8 56 5b 10 00 00 	movabs $0xffff800000105b56,%rax
ffff800000107554:	80 ff ff 
ffff800000107557:	ff d0                	callq  *%rax
ffff800000107559:	b8 00 00 00 00       	mov    $0x0,%eax
ffff80000010755e:	48 ba d2 48 10 00 00 	movabs $0xffff8000001048d2,%rdx
ffff800000107565:	80 ff ff 
ffff800000107568:	ff d2                	callq  *%rdx
ffff80000010756a:	b8 00 00 00 00       	mov    $0x0,%eax
ffff80000010756f:	48 ba 03 16 10 00 00 	movabs $0xffff800000101603,%rdx
ffff800000107576:	80 ff ff 
ffff800000107579:	ff d2                	callq  *%rdx
ffff80000010757b:	b8 00 00 00 00       	mov    $0x0,%eax
ffff800000107580:	48 ba fd 43 10 00 00 	movabs $0xffff8000001043fd,%rdx
ffff800000107587:	80 ff ff 
ffff80000010758a:	ff d2                	callq  *%rdx
ffff80000010758c:	b8 00 00 00 00       	mov    $0x0,%eax
ffff800000107591:	48 ba 10 5e 10 00 00 	movabs $0xffff800000105e10,%rdx
ffff800000107598:	80 ff ff 
ffff80000010759b:	ff d2                	callq  *%rdx
ffff80000010759d:	b8 00 00 00 00       	mov    $0x0,%eax
ffff8000001075a2:	48 ba 15 7e 10 00 00 	movabs $0xffff800000107e15,%rdx
ffff8000001075a9:	80 ff ff 
ffff8000001075ac:	ff d2                	callq  *%rdx
ffff8000001075ae:	b8 00 00 00 00       	mov    $0x0,%eax
ffff8000001075b3:	48 ba 93 50 10 00 00 	movabs $0xffff800000105093,%rdx
ffff8000001075ba:	80 ff ff 
ffff8000001075bd:	ff d2                	callq  *%rdx
ffff8000001075bf:	b8 00 00 00 00       	mov    $0x0,%eax
ffff8000001075c4:	48 ba 18 7c 10 00 00 	movabs $0xffff800000107c18,%rdx
ffff8000001075cb:	80 ff ff 
ffff8000001075ce:	ff d2                	callq  *%rdx
ffff8000001075d0:	48 bf 08 bb 10 00 00 	movabs $0xffff80000010bb08,%rdi
ffff8000001075d7:	80 ff ff 
ffff8000001075da:	b8 00 00 00 00       	mov    $0x0,%eax
ffff8000001075df:	48 ba 50 30 10 00 00 	movabs $0xffff800000103050,%rdx
ffff8000001075e6:	80 ff ff 
ffff8000001075e9:	ff d2                	callq  *%rdx
ffff8000001075eb:	b8 00 00 00 00       	mov    $0x0,%eax
ffff8000001075f0:	48 ba 45 85 10 00 00 	movabs $0xffff800000108545,%rdx
ffff8000001075f7:	80 ff ff 
ffff8000001075fa:	ff d2                	callq  *%rdx
ffff8000001075fc:	b8 00 00 00 00       	mov    $0x0,%eax
ffff800000107601:	48 ba cf 8b 10 00 00 	movabs $0xffff800000108bcf,%rdx
ffff800000107608:	80 ff ff 
ffff80000010760b:	ff d2                	callq  *%rdx
ffff80000010760d:	8b 45 fc             	mov    -0x4(%rbp),%eax
ffff800000107610:	8d 50 01             	lea    0x1(%rax),%edx
ffff800000107613:	89 55 fc             	mov    %edx,-0x4(%rbp)
ffff800000107616:	48 ba e0 19 11 00 00 	movabs $0xffff8000001119e0,%rdx
ffff80000010761d:	80 ff ff 
ffff800000107620:	48 98                	cltq   
ffff800000107622:	48 b9 e1 8d 10 00 00 	movabs $0xffff800000108de1,%rcx
ffff800000107629:	80 ff ff 
ffff80000010762c:	48 89 0c c2          	mov    %rcx,(%rdx,%rax,8)
ffff800000107630:	8b 45 fc             	mov    -0x4(%rbp),%eax
ffff800000107633:	8d 50 01             	lea    0x1(%rax),%edx
ffff800000107636:	89 55 fc             	mov    %edx,-0x4(%rbp)
ffff800000107639:	48 ba e0 19 11 00 00 	movabs $0xffff8000001119e0,%rdx
ffff800000107640:	80 ff ff 
ffff800000107643:	48 98                	cltq   
ffff800000107645:	48 be fe 5c 10 00 00 	movabs $0xffff800000105cfe,%rsi
ffff80000010764c:	80 ff ff 
ffff80000010764f:	48 89 34 c2          	mov    %rsi,(%rdx,%rax,8)
ffff800000107653:	8b 45 fc             	mov    -0x4(%rbp),%eax
ffff800000107656:	8d 50 01             	lea    0x1(%rax),%edx
ffff800000107659:	89 55 fc             	mov    %edx,-0x4(%rbp)
ffff80000010765c:	48 ba e0 19 11 00 00 	movabs $0xffff8000001119e0,%rdx
ffff800000107663:	80 ff ff 
ffff800000107666:	48 98                	cltq   
ffff800000107668:	48 b9 78 76 10 00 00 	movabs $0xffff800000107678,%rcx
ffff80000010766f:	80 ff ff 
ffff800000107672:	48 89 0c c2          	mov    %rcx,(%rdx,%rax,8)
ffff800000107676:	eb fe                	jmp    ffff800000107676 <main+0x13b>

ffff800000107678 <help>:
ffff800000107678:	55                   	push   %rbp
ffff800000107679:	48 89 e5             	mov    %rsp,%rbp
ffff80000010767c:	48 83 ec 10          	sub    $0x10,%rsp
ffff800000107680:	c7 45 fc 00 00 00 00 	movl   $0x0,-0x4(%rbp)
ffff800000107687:	eb 56                	jmp    ffff8000001076df <help+0x67>
ffff800000107689:	48 ba 00 b0 10 00 00 	movabs $0xffff80000010b000,%rdx
ffff800000107690:	80 ff ff 
ffff800000107693:	8b 45 fc             	mov    -0x4(%rbp),%eax
ffff800000107696:	48 98                	cltq   
ffff800000107698:	48 8b 14 c2          	mov    (%rdx,%rax,8),%rdx
ffff80000010769c:	48 b9 e0 af 10 00 00 	movabs $0xffff80000010afe0,%rcx
ffff8000001076a3:	80 ff ff 
ffff8000001076a6:	8b 45 fc             	mov    -0x4(%rbp),%eax
ffff8000001076a9:	48 98                	cltq   
ffff8000001076ab:	48 8b 04 c1          	mov    (%rcx,%rax,8),%rax
ffff8000001076af:	49 89 d0             	mov    %rdx,%r8
ffff8000001076b2:	48 89 c1             	mov    %rax,%rcx
ffff8000001076b5:	48 ba 19 bb 10 00 00 	movabs $0xffff80000010bb19,%rdx
ffff8000001076bc:	80 ff ff 
ffff8000001076bf:	be 00 ff 00 00       	mov    $0xff00,%esi
ffff8000001076c4:	bf 00 00 00 00       	mov    $0x0,%edi
ffff8000001076c9:	b8 00 00 00 00       	mov    $0x0,%eax
ffff8000001076ce:	49 b9 ed 27 10 00 00 	movabs $0xffff8000001027ed,%r9
ffff8000001076d5:	80 ff ff 
ffff8000001076d8:	41 ff d1             	callq  *%r9
ffff8000001076db:	83 45 fc 01          	addl   $0x1,-0x4(%rbp)
ffff8000001076df:	83 7d fc 03          	cmpl   $0x3,-0x4(%rbp)
ffff8000001076e3:	7e a4                	jle    ffff800000107689 <help+0x11>
ffff8000001076e5:	90                   	nop
ffff8000001076e6:	c9                   	leaveq 
ffff8000001076e7:	c3                   	retq   

ffff8000001076e8 <InitProcess>:
ffff8000001076e8:	55                   	push   %rbp
ffff8000001076e9:	48 89 e5             	mov    %rsp,%rbp
ffff8000001076ec:	48 b8 40 1e 11 00 00 	movabs $0xffff800000111e40,%rax
ffff8000001076f3:	80 ff ff 
ffff8000001076f6:	48 c7 00 00 00 00 00 	movq   $0x0,(%rax)
ffff8000001076fd:	48 ba 21 bb 10 00 00 	movabs $0xffff80000010bb21,%rdx
ffff800000107704:	80 ff ff 
ffff800000107707:	be 00 ff ff 00       	mov    $0xffff00,%esi
ffff80000010770c:	bf 00 00 00 00       	mov    $0x0,%edi
ffff800000107711:	b8 00 00 00 00       	mov    $0x0,%eax
ffff800000107716:	48 b9 ed 27 10 00 00 	movabs $0xffff8000001027ed,%rcx
ffff80000010771d:	80 ff ff 
ffff800000107720:	ff d1                	callq  *%rcx
ffff800000107722:	48 b8 40 1a 11 00 00 	movabs $0xffff800000111a40,%rax
ffff800000107729:	80 ff ff 
ffff80000010772c:	48 b9 a3 77 10 00 00 	movabs $0xffff8000001077a3,%rcx
ffff800000107733:	80 ff ff 
ffff800000107736:	48 89 08             	mov    %rcx,(%rax)
ffff800000107739:	bf 00 00 00 00       	mov    $0x0,%edi
ffff80000010773e:	b8 00 00 00 00       	mov    $0x0,%eax
ffff800000107743:	48 ba 01 79 10 00 00 	movabs $0xffff800000107901,%rdx
ffff80000010774a:	80 ff ff 
ffff80000010774d:	ff d2                	callq  *%rdx
ffff80000010774f:	48 bf 04 7b 10 00 00 	movabs $0xffff800000107b04,%rdi
ffff800000107756:	80 ff ff 
ffff800000107759:	b8 00 00 00 00       	mov    $0x0,%eax
ffff80000010775e:	48 ba 01 79 10 00 00 	movabs $0xffff800000107901,%rdx
ffff800000107765:	80 ff ff 
ffff800000107768:	ff d2                	callq  *%rdx
ffff80000010776a:	48 bf 2f 7b 10 00 00 	movabs $0xffff800000107b2f,%rdi
ffff800000107771:	80 ff ff 
ffff800000107774:	b8 00 00 00 00       	mov    $0x0,%eax
ffff800000107779:	48 ba 01 79 10 00 00 	movabs $0xffff800000107901,%rdx
ffff800000107780:	80 ff ff 
ffff800000107783:	ff d2                	callq  *%rdx
ffff800000107785:	48 be 78 7a 10 00 00 	movabs $0xffff800000107a78,%rsi
ffff80000010778c:	80 ff ff 
ffff80000010778f:	bf 20 00 00 00       	mov    $0x20,%edi
ffff800000107794:	48 b8 f0 47 10 00 00 	movabs $0xffff8000001047f0,%rax
ffff80000010779b:	80 ff ff 
ffff80000010779e:	ff d0                	callq  *%rax
ffff8000001077a0:	90                   	nop
ffff8000001077a1:	5d                   	pop    %rbp
ffff8000001077a2:	c3                   	retq   

ffff8000001077a3 <print>:
ffff8000001077a3:	55                   	push   %rbp
ffff8000001077a4:	48 89 e5             	mov    %rsp,%rbp
ffff8000001077a7:	48 bf 2a bb 10 00 00 	movabs $0xffff80000010bb2a,%rdi
ffff8000001077ae:	80 ff ff 
ffff8000001077b1:	b8 00 00 00 00       	mov    $0x0,%eax
ffff8000001077b6:	48 ba 50 30 10 00 00 	movabs $0xffff800000103050,%rdx
ffff8000001077bd:	80 ff ff 
ffff8000001077c0:	ff d2                	callq  *%rdx
ffff8000001077c2:	90                   	nop
ffff8000001077c3:	5d                   	pop    %rbp
ffff8000001077c4:	c3                   	retq   

ffff8000001077c5 <system>:
ffff8000001077c5:	55                   	push   %rbp
ffff8000001077c6:	48 89 e5             	mov    %rsp,%rbp
ffff8000001077c9:	48 83 ec 10          	sub    $0x10,%rsp
ffff8000001077cd:	48 89 7d f8          	mov    %rdi,-0x8(%rbp)
ffff8000001077d1:	48 89 75 f0          	mov    %rsi,-0x10(%rbp)
ffff8000001077d5:	48 8b 45 f8          	mov    -0x8(%rbp),%rax
ffff8000001077d9:	48 8b 80 90 00 00 00 	mov    0x90(%rax),%rax
ffff8000001077e0:	48 89 c1             	mov    %rax,%rcx
ffff8000001077e3:	48 ba 37 bb 10 00 00 	movabs $0xffff80000010bb37,%rdx
ffff8000001077ea:	80 ff ff 
ffff8000001077ed:	be 00 00 ff 00       	mov    $0xff0000,%esi
ffff8000001077f2:	bf 00 00 00 00       	mov    $0x0,%edi
ffff8000001077f7:	b8 00 00 00 00       	mov    $0x0,%eax
ffff8000001077fc:	49 b8 ed 27 10 00 00 	movabs $0xffff8000001027ed,%r8
ffff800000107803:	80 ff ff 
ffff800000107806:	41 ff d0             	callq  *%r8
ffff800000107809:	be 08 00 00 00       	mov    $0x8,%esi
ffff80000010780e:	bf 74 01 00 00       	mov    $0x174,%edi
ffff800000107813:	b8 00 00 00 00       	mov    $0x0,%eax
ffff800000107818:	48 ba dd 15 10 00 00 	movabs $0xffff8000001015dd,%rdx
ffff80000010781f:	80 ff ff 
ffff800000107822:	ff d2                	callq  *%rdx
ffff800000107824:	48 8b 45 f8          	mov    -0x8(%rbp),%rax
ffff800000107828:	48 8b 80 b0 00 00 00 	mov    0xb0(%rax),%rax
ffff80000010782f:	48 89 c6             	mov    %rax,%rsi
ffff800000107832:	bf 75 01 00 00       	mov    $0x175,%edi
ffff800000107837:	b8 00 00 00 00       	mov    $0x0,%eax
ffff80000010783c:	48 ba dd 15 10 00 00 	movabs $0xffff8000001015dd,%rdx
ffff800000107843:	80 ff ff 
ffff800000107846:	ff d2                	callq  *%rdx
ffff800000107848:	48 b8 da 12 10 00 00 	movabs $0xffff8000001012da,%rax
ffff80000010784f:	80 ff ff 
ffff800000107852:	48 89 c6             	mov    %rax,%rsi
ffff800000107855:	bf 76 01 00 00       	mov    $0x176,%edi
ffff80000010785a:	b8 00 00 00 00       	mov    $0x0,%eax
ffff80000010785f:	48 ba dd 15 10 00 00 	movabs $0xffff8000001015dd,%rdx
ffff800000107866:	80 ff ff 
ffff800000107869:	ff d2                	callq  *%rdx
ffff80000010786b:	48 8b 45 f0          	mov    -0x10(%rbp),%rax
ffff80000010786f:	48 8d 15 05 00 00 00 	lea    0x5(%rip),%rdx        # ffff80000010787b <ret_addr>
ffff800000107876:	48 89 e1             	mov    %rsp,%rcx
ffff800000107879:	0f 34                	sysenter 

ffff80000010787b <ret_addr>:
ffff80000010787b:	90                   	nop
ffff80000010787c:	c9                   	leaveq 
ffff80000010787d:	c3                   	retq   

ffff80000010787e <do_system_call>:
ffff80000010787e:	55                   	push   %rbp
ffff80000010787f:	48 89 e5             	mov    %rsp,%rbp
ffff800000107882:	48 83 ec 10          	sub    $0x10,%rsp
ffff800000107886:	48 89 7d f8          	mov    %rdi,-0x8(%rbp)
ffff80000010788a:	48 8b 45 f8          	mov    -0x8(%rbp),%rax
ffff80000010788e:	48 8b 80 80 00 00 00 	mov    0x80(%rax),%rax
ffff800000107895:	48 ba 40 1a 11 00 00 	movabs $0xffff800000111a40,%rdx
ffff80000010789c:	80 ff ff 
ffff80000010789f:	48 8b 04 c2          	mov    (%rdx,%rax,8),%rax
ffff8000001078a3:	48 85 c0             	test   %rax,%rax
ffff8000001078a6:	74 22                	je     ffff8000001078ca <do_system_call+0x4c>
ffff8000001078a8:	48 8b 45 f8          	mov    -0x8(%rbp),%rax
ffff8000001078ac:	48 8b 80 80 00 00 00 	mov    0x80(%rax),%rax
ffff8000001078b3:	48 ba 40 1a 11 00 00 	movabs $0xffff800000111a40,%rdx
ffff8000001078ba:	80 ff ff 
ffff8000001078bd:	48 8b 14 c2          	mov    (%rdx,%rax,8),%rdx
ffff8000001078c1:	b8 00 00 00 00       	mov    $0x0,%eax
ffff8000001078c6:	ff d2                	callq  *%rdx
ffff8000001078c8:	eb 34                	jmp    ffff8000001078fe <do_system_call+0x80>
ffff8000001078ca:	48 8b 45 f8          	mov    -0x8(%rbp),%rax
ffff8000001078ce:	48 8b 80 80 00 00 00 	mov    0x80(%rax),%rax
ffff8000001078d5:	48 89 c1             	mov    %rax,%rcx
ffff8000001078d8:	48 ba 3f bb 10 00 00 	movabs $0xffff80000010bb3f,%rdx
ffff8000001078df:	80 ff ff 
ffff8000001078e2:	be 00 00 ff 00       	mov    $0xff0000,%esi
ffff8000001078e7:	bf 00 00 00 00       	mov    $0x0,%edi
ffff8000001078ec:	b8 00 00 00 00       	mov    $0x0,%eax
ffff8000001078f1:	49 b8 ed 27 10 00 00 	movabs $0xffff8000001027ed,%r8
ffff8000001078f8:	80 ff ff 
ffff8000001078fb:	41 ff d0             	callq  *%r8
ffff8000001078fe:	90                   	nop
ffff8000001078ff:	c9                   	leaveq 
ffff800000107900:	c3                   	retq   

ffff800000107901 <create_process>:
ffff800000107901:	55                   	push   %rbp
ffff800000107902:	48 89 e5             	mov    %rsp,%rbp
ffff800000107905:	53                   	push   %rbx
ffff800000107906:	48 83 ec 28          	sub    $0x28,%rsp
ffff80000010790a:	48 89 7d d8          	mov    %rdi,-0x28(%rbp)
ffff80000010790e:	bf 38 00 00 00       	mov    $0x38,%edi
ffff800000107913:	48 b8 34 6a 10 00 00 	movabs $0xffff800000106a34,%rax
ffff80000010791a:	80 ff ff 
ffff80000010791d:	ff d0                	callq  *%rax
ffff80000010791f:	48 89 45 e8          	mov    %rax,-0x18(%rbp)
ffff800000107923:	bf 00 10 00 00       	mov    $0x1000,%edi
ffff800000107928:	48 b8 34 6a 10 00 00 	movabs $0xffff800000106a34,%rax
ffff80000010792f:	80 ff ff 
ffff800000107932:	ff d0                	callq  *%rax
ffff800000107934:	48 05 38 0f 00 00    	add    $0xf38,%rax
ffff80000010793a:	48 89 c2             	mov    %rax,%rdx
ffff80000010793d:	48 8b 45 e8          	mov    -0x18(%rbp),%rax
ffff800000107941:	48 89 50 20          	mov    %rdx,0x20(%rax)
ffff800000107945:	48 8b 45 e8          	mov    -0x18(%rbp),%rax
ffff800000107949:	48 8b 40 20          	mov    0x20(%rax),%rax
ffff80000010794d:	48 8b 55 d8          	mov    -0x28(%rbp),%rdx
ffff800000107951:	48 89 90 88 00 00 00 	mov    %rdx,0x88(%rax)
ffff800000107958:	48 8b 45 e8          	mov    -0x18(%rbp),%rax
ffff80000010795c:	48 8b 40 20          	mov    0x20(%rax),%rax
ffff800000107960:	48 c7 80 90 00 00 00 	movq   $0x8,0x90(%rax)
ffff800000107967:	08 00 00 00 
ffff80000010796b:	48 8b 45 e8          	mov    -0x18(%rbp),%rax
ffff80000010796f:	48 8b 40 20          	mov    0x20(%rax),%rax
ffff800000107973:	48 c7 40 70 10 00 00 	movq   $0x10,0x70(%rax)
ffff80000010797a:	00 
ffff80000010797b:	48 8b 45 e8          	mov    -0x18(%rbp),%rax
ffff80000010797f:	48 8b 40 20          	mov    0x20(%rax),%rax
ffff800000107983:	48 c7 40 78 10 00 00 	movq   $0x10,0x78(%rax)
ffff80000010798a:	00 
ffff80000010798b:	48 8b 45 e8          	mov    -0x18(%rbp),%rax
ffff80000010798f:	48 8b 40 20          	mov    0x20(%rax),%rax
ffff800000107993:	48 c7 80 a8 00 00 00 	movq   $0x10,0xa8(%rax)
ffff80000010799a:	10 00 00 00 
ffff80000010799e:	48 8b 45 e8          	mov    -0x18(%rbp),%rax
ffff8000001079a2:	48 8b 50 20          	mov    0x20(%rax),%rdx
ffff8000001079a6:	48 8b 45 e8          	mov    -0x18(%rbp),%rax
ffff8000001079aa:	48 8b 40 20          	mov    0x20(%rax),%rax
ffff8000001079ae:	48 89 90 a0 00 00 00 	mov    %rdx,0xa0(%rax)
ffff8000001079b5:	48 b8 28 10 11 00 00 	movabs $0xffff800000111028,%rax
ffff8000001079bc:	80 ff ff 
ffff8000001079bf:	48 8b 00             	mov    (%rax),%rax
ffff8000001079c2:	48 8d 50 01          	lea    0x1(%rax),%rdx
ffff8000001079c6:	48 b9 28 10 11 00 00 	movabs $0xffff800000111028,%rcx
ffff8000001079cd:	80 ff ff 
ffff8000001079d0:	48 89 11             	mov    %rdx,(%rcx)
ffff8000001079d3:	48 8b 55 e8          	mov    -0x18(%rbp),%rdx
ffff8000001079d7:	48 89 02             	mov    %rax,(%rdx)
ffff8000001079da:	48 8b 45 e8          	mov    -0x18(%rbp),%rax
ffff8000001079de:	48 8b 40 20          	mov    0x20(%rax),%rax
ffff8000001079e2:	48 c7 80 98 00 00 00 	movq   $0x200,0x98(%rax)
ffff8000001079e9:	00 02 00 00 
ffff8000001079ed:	48 8b 45 e8          	mov    -0x18(%rbp),%rax
ffff8000001079f1:	48 8b 40 20          	mov    0x20(%rax),%rax
ffff8000001079f5:	48 8b 55 e8          	mov    -0x18(%rbp),%rdx
ffff8000001079f9:	48 89 90 c0 00 00 00 	mov    %rdx,0xc0(%rax)
ffff800000107a00:	bf 18 00 00 00       	mov    $0x18,%edi
ffff800000107a05:	48 b8 34 6a 10 00 00 	movabs $0xffff800000106a34,%rax
ffff800000107a0c:	80 ff ff 
ffff800000107a0f:	ff d0                	callq  *%rax
ffff800000107a11:	48 89 c2             	mov    %rax,%rdx
ffff800000107a14:	48 8b 45 e8          	mov    -0x18(%rbp),%rax
ffff800000107a18:	48 89 50 10          	mov    %rdx,0x10(%rax)
ffff800000107a1c:	48 8b 45 e8          	mov    -0x18(%rbp),%rax
ffff800000107a20:	48 8b 58 20          	mov    0x20(%rax),%rbx
ffff800000107a24:	bf 04 10 00 00       	mov    $0x1004,%edi
ffff800000107a29:	48 b8 34 6a 10 00 00 	movabs $0xffff800000106a34,%rax
ffff800000107a30:	80 ff ff 
ffff800000107a33:	ff d0                	callq  *%rax
ffff800000107a35:	48 89 83 b0 00 00 00 	mov    %rax,0xb0(%rbx)
ffff800000107a3c:	48 8b 45 e8          	mov    -0x18(%rbp),%rax
ffff800000107a40:	48 8b 40 10          	mov    0x10(%rax),%rax
ffff800000107a44:	48 89 c7             	mov    %rax,%rdi
ffff800000107a47:	b8 00 00 00 00       	mov    $0x0,%eax
ffff800000107a4c:	48 ba ab 87 10 00 00 	movabs $0xffff8000001087ab,%rdx
ffff800000107a53:	80 ff ff 
ffff800000107a56:	ff d2                	callq  *%rdx
ffff800000107a58:	48 8b 45 e8          	mov    -0x18(%rbp),%rax
ffff800000107a5c:	48 89 c7             	mov    %rax,%rdi
ffff800000107a5f:	b8 00 00 00 00       	mov    $0x0,%eax
ffff800000107a64:	48 ba 5a 7b 10 00 00 	movabs $0xffff800000107b5a,%rdx
ffff800000107a6b:	80 ff ff 
ffff800000107a6e:	ff d2                	callq  *%rdx
ffff800000107a70:	90                   	nop
ffff800000107a71:	48 83 c4 28          	add    $0x28,%rsp
ffff800000107a75:	5b                   	pop    %rbx
ffff800000107a76:	5d                   	pop    %rbp
ffff800000107a77:	c3                   	retq   

ffff800000107a78 <schedule>:
ffff800000107a78:	55                   	push   %rbp
ffff800000107a79:	48 89 e5             	mov    %rsp,%rbp
ffff800000107a7c:	48 83 ec 10          	sub    $0x10,%rsp
ffff800000107a80:	48 89 7d f8          	mov    %rdi,-0x8(%rbp)
ffff800000107a84:	48 b8 40 1e 11 00 00 	movabs $0xffff800000111e40,%rax
ffff800000107a8b:	80 ff ff 
ffff800000107a8e:	48 8b 00             	mov    (%rax),%rax
ffff800000107a91:	48 8b 50 30          	mov    0x30(%rax),%rdx
ffff800000107a95:	48 b8 40 1e 11 00 00 	movabs $0xffff800000111e40,%rax
ffff800000107a9c:	80 ff ff 
ffff800000107a9f:	48 8b 00             	mov    (%rax),%rax
ffff800000107aa2:	48 39 c2             	cmp    %rax,%rdx
ffff800000107aa5:	74 5a                	je     ffff800000107b01 <schedule+0x89>
ffff800000107aa7:	48 b8 40 1e 11 00 00 	movabs $0xffff800000111e40,%rax
ffff800000107aae:	80 ff ff 
ffff800000107ab1:	48 8b 00             	mov    (%rax),%rax
ffff800000107ab4:	48 8b 40 30          	mov    0x30(%rax),%rax
ffff800000107ab8:	48 8b 50 20          	mov    0x20(%rax),%rdx
ffff800000107abc:	48 b8 40 1e 11 00 00 	movabs $0xffff800000111e40,%rax
ffff800000107ac3:	80 ff ff 
ffff800000107ac6:	48 8b 00             	mov    (%rax),%rax
ffff800000107ac9:	48 8b 48 20          	mov    0x20(%rax),%rcx
ffff800000107acd:	48 8b 45 f8          	mov    -0x8(%rbp),%rax
ffff800000107ad1:	48 89 ce             	mov    %rcx,%rsi
ffff800000107ad4:	48 89 c7             	mov    %rax,%rdi
ffff800000107ad7:	48 b8 31 10 10 00 00 	movabs $0xffff800000101031,%rax
ffff800000107ade:	80 ff ff 
ffff800000107ae1:	ff d0                	callq  *%rax
ffff800000107ae3:	48 b8 40 1e 11 00 00 	movabs $0xffff800000111e40,%rax
ffff800000107aea:	80 ff ff 
ffff800000107aed:	48 8b 00             	mov    (%rax),%rax
ffff800000107af0:	48 8b 40 30          	mov    0x30(%rax),%rax
ffff800000107af4:	48 ba 40 1e 11 00 00 	movabs $0xffff800000111e40,%rdx
ffff800000107afb:	80 ff ff 
ffff800000107afe:	48 89 02             	mov    %rax,(%rdx)
ffff800000107b01:	90                   	nop
ffff800000107b02:	c9                   	leaveq 
ffff800000107b03:	c3                   	retq   

ffff800000107b04 <process1>:
ffff800000107b04:	55                   	push   %rbp
ffff800000107b05:	48 89 e5             	mov    %rsp,%rbp
ffff800000107b08:	48 ba 5b bb 10 00 00 	movabs $0xffff80000010bb5b,%rdx
ffff800000107b0f:	80 ff ff 
ffff800000107b12:	be 00 00 ff 00       	mov    $0xff0000,%esi
ffff800000107b17:	bf 00 00 00 00       	mov    $0x0,%edi
ffff800000107b1c:	b8 00 00 00 00       	mov    $0x0,%eax
ffff800000107b21:	48 b9 ed 27 10 00 00 	movabs $0xffff8000001027ed,%rcx
ffff800000107b28:	80 ff ff 
ffff800000107b2b:	ff d1                	callq  *%rcx
ffff800000107b2d:	eb d9                	jmp    ffff800000107b08 <process1+0x4>

ffff800000107b2f <process2>:
ffff800000107b2f:	55                   	push   %rbp
ffff800000107b30:	48 89 e5             	mov    %rsp,%rbp
ffff800000107b33:	48 ba 65 bb 10 00 00 	movabs $0xffff80000010bb65,%rdx
ffff800000107b3a:	80 ff ff 
ffff800000107b3d:	be 00 00 ff 00       	mov    $0xff0000,%esi
ffff800000107b42:	bf 00 00 00 00       	mov    $0x0,%edi
ffff800000107b47:	b8 00 00 00 00       	mov    $0x0,%eax
ffff800000107b4c:	48 b9 ed 27 10 00 00 	movabs $0xffff8000001027ed,%rcx
ffff800000107b53:	80 ff ff 
ffff800000107b56:	ff d1                	callq  *%rcx
ffff800000107b58:	eb d9                	jmp    ffff800000107b33 <process2+0x4>

ffff800000107b5a <add_task>:
ffff800000107b5a:	55                   	push   %rbp
ffff800000107b5b:	48 89 e5             	mov    %rsp,%rbp
ffff800000107b5e:	48 89 7d f8          	mov    %rdi,-0x8(%rbp)
ffff800000107b62:	48 b8 40 1e 11 00 00 	movabs $0xffff800000111e40,%rax
ffff800000107b69:	80 ff ff 
ffff800000107b6c:	48 8b 00             	mov    (%rax),%rax
ffff800000107b6f:	48 85 c0             	test   %rax,%rax
ffff800000107b72:	75 4f                	jne    ffff800000107bc3 <add_task+0x69>
ffff800000107b74:	48 ba 40 1e 11 00 00 	movabs $0xffff800000111e40,%rdx
ffff800000107b7b:	80 ff ff 
ffff800000107b7e:	48 8b 45 f8          	mov    -0x8(%rbp),%rax
ffff800000107b82:	48 89 02             	mov    %rax,(%rdx)
ffff800000107b85:	48 b8 40 1e 11 00 00 	movabs $0xffff800000111e40,%rax
ffff800000107b8c:	80 ff ff 
ffff800000107b8f:	48 8b 00             	mov    (%rax),%rax
ffff800000107b92:	48 ba 40 1e 11 00 00 	movabs $0xffff800000111e40,%rdx
ffff800000107b99:	80 ff ff 
ffff800000107b9c:	48 8b 12             	mov    (%rdx),%rdx
ffff800000107b9f:	48 89 50 30          	mov    %rdx,0x30(%rax)
ffff800000107ba3:	48 b8 40 1e 11 00 00 	movabs $0xffff800000111e40,%rax
ffff800000107baa:	80 ff ff 
ffff800000107bad:	48 8b 00             	mov    (%rax),%rax
ffff800000107bb0:	48 ba 40 1e 11 00 00 	movabs $0xffff800000111e40,%rdx
ffff800000107bb7:	80 ff ff 
ffff800000107bba:	48 8b 12             	mov    (%rdx),%rdx
ffff800000107bbd:	48 89 50 28          	mov    %rdx,0x28(%rax)
ffff800000107bc1:	eb 53                	jmp    ffff800000107c16 <add_task+0xbc>
ffff800000107bc3:	48 b8 40 1e 11 00 00 	movabs $0xffff800000111e40,%rax
ffff800000107bca:	80 ff ff 
ffff800000107bcd:	48 8b 00             	mov    (%rax),%rax
ffff800000107bd0:	48 8b 50 30          	mov    0x30(%rax),%rdx
ffff800000107bd4:	48 8b 45 f8          	mov    -0x8(%rbp),%rax
ffff800000107bd8:	48 89 50 30          	mov    %rdx,0x30(%rax)
ffff800000107bdc:	48 b8 40 1e 11 00 00 	movabs $0xffff800000111e40,%rax
ffff800000107be3:	80 ff ff 
ffff800000107be6:	48 8b 00             	mov    (%rax),%rax
ffff800000107be9:	48 8b 55 f8          	mov    -0x8(%rbp),%rdx
ffff800000107bed:	48 89 50 30          	mov    %rdx,0x30(%rax)
ffff800000107bf1:	48 b8 40 1e 11 00 00 	movabs $0xffff800000111e40,%rax
ffff800000107bf8:	80 ff ff 
ffff800000107bfb:	48 8b 10             	mov    (%rax),%rdx
ffff800000107bfe:	48 8b 45 f8          	mov    -0x8(%rbp),%rax
ffff800000107c02:	48 89 50 28          	mov    %rdx,0x28(%rax)
ffff800000107c06:	48 8b 45 f8          	mov    -0x8(%rbp),%rax
ffff800000107c0a:	48 8b 40 30          	mov    0x30(%rax),%rax
ffff800000107c0e:	48 8b 55 f8          	mov    -0x8(%rbp),%rdx
ffff800000107c12:	48 89 50 28          	mov    %rdx,0x28(%rax)
ffff800000107c16:	5d                   	pop    %rbp
ffff800000107c17:	c3                   	retq   

ffff800000107c18 <InitDisk>:
ffff800000107c18:	55                   	push   %rbp
ffff800000107c19:	48 89 e5             	mov    %rsp,%rbp
ffff800000107c1c:	48 b8 c0 19 11 00 00 	movabs $0xffff8000001119c0,%rax
ffff800000107c23:	80 ff ff 
ffff800000107c26:	c6 00 00             	movb   $0x0,(%rax)
ffff800000107c29:	90                   	nop
ffff800000107c2a:	5d                   	pop    %rbp
ffff800000107c2b:	c3                   	retq   

ffff800000107c2c <read_one_sector>:
ffff800000107c2c:	55                   	push   %rbp
ffff800000107c2d:	48 89 e5             	mov    %rsp,%rbp
ffff800000107c30:	48 83 ec 10          	sub    $0x10,%rsp
ffff800000107c34:	89 7d fc             	mov    %edi,-0x4(%rbp)
ffff800000107c37:	48 89 75 f0          	mov    %rsi,-0x10(%rbp)
ffff800000107c3b:	48 b8 c0 19 11 00 00 	movabs $0xffff8000001119c0,%rax
ffff800000107c42:	80 ff ff 
ffff800000107c45:	c6 00 00             	movb   $0x0,(%rax)
ffff800000107c48:	48 ba 48 1e 11 00 00 	movabs $0xffff800000111e48,%rdx
ffff800000107c4f:	80 ff ff 
ffff800000107c52:	48 8b 45 f0          	mov    -0x10(%rbp),%rax
ffff800000107c56:	48 89 02             	mov    %rax,(%rdx)
ffff800000107c59:	be 00 00 00 00       	mov    $0x0,%esi
ffff800000107c5e:	bf f6 03 00 00       	mov    $0x3f6,%edi
ffff800000107c63:	48 b8 68 15 10 00 00 	movabs $0xffff800000101568,%rax
ffff800000107c6a:	80 ff ff 
ffff800000107c6d:	ff d0                	callq  *%rax
ffff800000107c6f:	be 01 00 00 00       	mov    $0x1,%esi
ffff800000107c74:	bf f2 01 00 00       	mov    $0x1f2,%edi
ffff800000107c79:	48 b8 68 15 10 00 00 	movabs $0xffff800000101568,%rax
ffff800000107c80:	80 ff ff 
ffff800000107c83:	ff d0                	callq  *%rax
ffff800000107c85:	be 00 00 00 00       	mov    $0x0,%esi
ffff800000107c8a:	bf 71 01 00 00       	mov    $0x171,%edi
ffff800000107c8f:	48 b8 68 15 10 00 00 	movabs $0xffff800000101568,%rax
ffff800000107c96:	80 ff ff 
ffff800000107c99:	ff d0                	callq  *%rax
ffff800000107c9b:	8b 45 fc             	mov    -0x4(%rbp),%eax
ffff800000107c9e:	0f b6 c0             	movzbl %al,%eax
ffff800000107ca1:	89 c6                	mov    %eax,%esi
ffff800000107ca3:	bf f3 01 00 00       	mov    $0x1f3,%edi
ffff800000107ca8:	48 b8 68 15 10 00 00 	movabs $0xffff800000101568,%rax
ffff800000107caf:	80 ff ff 
ffff800000107cb2:	ff d0                	callq  *%rax
ffff800000107cb4:	8b 45 fc             	mov    -0x4(%rbp),%eax
ffff800000107cb7:	c1 f8 08             	sar    $0x8,%eax
ffff800000107cba:	0f b6 c0             	movzbl %al,%eax
ffff800000107cbd:	89 c6                	mov    %eax,%esi
ffff800000107cbf:	bf f4 01 00 00       	mov    $0x1f4,%edi
ffff800000107cc4:	48 b8 68 15 10 00 00 	movabs $0xffff800000101568,%rax
ffff800000107ccb:	80 ff ff 
ffff800000107cce:	ff d0                	callq  *%rax
ffff800000107cd0:	8b 45 fc             	mov    -0x4(%rbp),%eax
ffff800000107cd3:	c1 f8 10             	sar    $0x10,%eax
ffff800000107cd6:	0f b6 c0             	movzbl %al,%eax
ffff800000107cd9:	89 c6                	mov    %eax,%esi
ffff800000107cdb:	bf f5 01 00 00       	mov    $0x1f5,%edi
ffff800000107ce0:	48 b8 68 15 10 00 00 	movabs $0xffff800000101568,%rax
ffff800000107ce7:	80 ff ff 
ffff800000107cea:	ff d0                	callq  *%rax
ffff800000107cec:	8b 45 fc             	mov    -0x4(%rbp),%eax
ffff800000107cef:	c1 f8 18             	sar    $0x18,%eax
ffff800000107cf2:	83 e0 0f             	and    $0xf,%eax
ffff800000107cf5:	83 c8 e0             	or     $0xffffffe0,%eax
ffff800000107cf8:	0f b6 c0             	movzbl %al,%eax
ffff800000107cfb:	89 c6                	mov    %eax,%esi
ffff800000107cfd:	bf f6 01 00 00       	mov    $0x1f6,%edi
ffff800000107d02:	48 b8 68 15 10 00 00 	movabs $0xffff800000101568,%rax
ffff800000107d09:	80 ff ff 
ffff800000107d0c:	ff d0                	callq  *%rax
ffff800000107d0e:	be 20 00 00 00       	mov    $0x20,%esi
ffff800000107d13:	bf f7 01 00 00       	mov    $0x1f7,%edi
ffff800000107d18:	48 b8 68 15 10 00 00 	movabs $0xffff800000101568,%rax
ffff800000107d1f:	80 ff ff 
ffff800000107d22:	ff d0                	callq  *%rax
ffff800000107d24:	90                   	nop
ffff800000107d25:	bf f7 01 00 00       	mov    $0x1f7,%edi
ffff800000107d2a:	48 b8 88 15 10 00 00 	movabs $0xffff800000101588,%rax
ffff800000107d31:	80 ff ff 
ffff800000107d34:	ff d0                	callq  *%rax
ffff800000107d36:	0f b6 c0             	movzbl %al,%eax
ffff800000107d39:	83 e0 08             	and    $0x8,%eax
ffff800000107d3c:	85 c0                	test   %eax,%eax
ffff800000107d3e:	74 e5                	je     ffff800000107d25 <read_one_sector+0xf9>
ffff800000107d40:	48 b8 48 1e 11 00 00 	movabs $0xffff800000111e48,%rax
ffff800000107d47:	80 ff ff 
ffff800000107d4a:	48 8b 00             	mov    (%rax),%rax
ffff800000107d4d:	ba f0 01 00 00       	mov    $0x1f0,%edx
ffff800000107d52:	b9 00 01 00 00       	mov    $0x100,%ecx
ffff800000107d57:	48 89 c7             	mov    %rax,%rdi
ffff800000107d5a:	fc                   	cld    
ffff800000107d5b:	f3 66 6d             	rep insw (%dx),%es:(%rdi)
ffff800000107d5e:	0f ae f0             	mfence 
ffff800000107d61:	48 b8 c0 19 11 00 00 	movabs $0xffff8000001119c0,%rax
ffff800000107d68:	80 ff ff 
ffff800000107d6b:	c6 00 01             	movb   $0x1,(%rax)
ffff800000107d6e:	90                   	nop
ffff800000107d6f:	c9                   	leaveq 
ffff800000107d70:	c3                   	retq   

ffff800000107d71 <disk_handler>:
ffff800000107d71:	55                   	push   %rbp
ffff800000107d72:	48 89 e5             	mov    %rsp,%rbp
ffff800000107d75:	48 ba 6f bb 10 00 00 	movabs $0xffff80000010bb6f,%rdx
ffff800000107d7c:	80 ff ff 
ffff800000107d7f:	be 00 ff 00 00       	mov    $0xff00,%esi
ffff800000107d84:	bf 00 00 00 00       	mov    $0x0,%edi
ffff800000107d89:	b8 00 00 00 00       	mov    $0x0,%eax
ffff800000107d8e:	48 b9 ed 27 10 00 00 	movabs $0xffff8000001027ed,%rcx
ffff800000107d95:	80 ff ff 
ffff800000107d98:	ff d1                	callq  *%rcx
ffff800000107d9a:	48 b8 48 1e 11 00 00 	movabs $0xffff800000111e48,%rax
ffff800000107da1:	80 ff ff 
ffff800000107da4:	48 8b 00             	mov    (%rax),%rax
ffff800000107da7:	ba f0 01 00 00       	mov    $0x1f0,%edx
ffff800000107dac:	b9 00 01 00 00       	mov    $0x100,%ecx
ffff800000107db1:	48 89 c7             	mov    %rax,%rdi
ffff800000107db4:	fc                   	cld    
ffff800000107db5:	f3 66 6d             	rep insw (%dx),%es:(%rdi)
ffff800000107db8:	0f ae f0             	mfence 
ffff800000107dbb:	48 ba 77 bb 10 00 00 	movabs $0xffff80000010bb77,%rdx
ffff800000107dc2:	80 ff ff 
ffff800000107dc5:	be 00 ff 00 00       	mov    $0xff00,%esi
ffff800000107dca:	bf 00 00 00 00       	mov    $0x0,%edi
ffff800000107dcf:	b8 00 00 00 00       	mov    $0x0,%eax
ffff800000107dd4:	48 b9 ed 27 10 00 00 	movabs $0xffff8000001027ed,%rcx
ffff800000107ddb:	80 ff ff 
ffff800000107dde:	ff d1                	callq  *%rcx
ffff800000107de0:	48 b8 c0 19 11 00 00 	movabs $0xffff8000001119c0,%rax
ffff800000107de7:	80 ff ff 
ffff800000107dea:	c6 00 01             	movb   $0x1,(%rax)
ffff800000107ded:	48 ba 7f bb 10 00 00 	movabs $0xffff80000010bb7f,%rdx
ffff800000107df4:	80 ff ff 
ffff800000107df7:	be 00 ff ff 00       	mov    $0xffff00,%esi
ffff800000107dfc:	bf 00 00 00 00       	mov    $0x0,%edi
ffff800000107e01:	b8 00 00 00 00       	mov    $0x0,%eax
ffff800000107e06:	48 b9 ed 27 10 00 00 	movabs $0xffff8000001027ed,%rcx
ffff800000107e0d:	80 ff ff 
ffff800000107e10:	ff d1                	callq  *%rcx
ffff800000107e12:	90                   	nop
ffff800000107e13:	5d                   	pop    %rbp
ffff800000107e14:	c3                   	retq   

ffff800000107e15 <InitKeyboard>:
ffff800000107e15:	55                   	push   %rbp
ffff800000107e16:	48 89 e5             	mov    %rsp,%rbp
ffff800000107e19:	48 83 ec 10          	sub    $0x10,%rsp
ffff800000107e1d:	48 bf 98 bb 10 00 00 	movabs $0xffff80000010bb98,%rdi
ffff800000107e24:	80 ff ff 
ffff800000107e27:	b8 00 00 00 00       	mov    $0x0,%eax
ffff800000107e2c:	48 ba 50 30 10 00 00 	movabs $0xffff800000103050,%rdx
ffff800000107e33:	80 ff ff 
ffff800000107e36:	ff d2                	callq  *%rdx
ffff800000107e38:	bf 28 00 00 00       	mov    $0x28,%edi
ffff800000107e3d:	48 b8 34 6a 10 00 00 	movabs $0xffff800000106a34,%rax
ffff800000107e44:	80 ff ff 
ffff800000107e47:	ff d0                	callq  *%rax
ffff800000107e49:	48 89 c2             	mov    %rax,%rdx
ffff800000107e4c:	48 b8 30 10 11 00 00 	movabs $0xffff800000111030,%rax
ffff800000107e53:	80 ff ff 
ffff800000107e56:	48 89 10             	mov    %rdx,(%rax)
ffff800000107e59:	48 b8 30 10 11 00 00 	movabs $0xffff800000111030,%rax
ffff800000107e60:	80 ff ff 
ffff800000107e63:	48 8b 10             	mov    (%rax),%rdx
ffff800000107e66:	48 b8 30 10 11 00 00 	movabs $0xffff800000111030,%rax
ffff800000107e6d:	80 ff ff 
ffff800000107e70:	48 8b 00             	mov    (%rax),%rax
ffff800000107e73:	48 83 c2 14          	add    $0x14,%rdx
ffff800000107e77:	48 89 10             	mov    %rdx,(%rax)
ffff800000107e7a:	48 b8 30 10 11 00 00 	movabs $0xffff800000111030,%rax
ffff800000107e81:	80 ff ff 
ffff800000107e84:	48 8b 10             	mov    (%rax),%rdx
ffff800000107e87:	48 b8 30 10 11 00 00 	movabs $0xffff800000111030,%rax
ffff800000107e8e:	80 ff ff 
ffff800000107e91:	48 8b 00             	mov    (%rax),%rax
ffff800000107e94:	48 83 c2 14          	add    $0x14,%rdx
ffff800000107e98:	48 89 50 08          	mov    %rdx,0x8(%rax)
ffff800000107e9c:	48 b8 30 10 11 00 00 	movabs $0xffff800000111030,%rax
ffff800000107ea3:	80 ff ff 
ffff800000107ea6:	48 8b 00             	mov    (%rax),%rax
ffff800000107ea9:	c7 40 10 00 00 00 00 	movl   $0x0,0x10(%rax)
ffff800000107eb0:	48 b8 30 10 11 00 00 	movabs $0xffff800000111030,%rax
ffff800000107eb7:	80 ff ff 
ffff800000107eba:	48 8b 00             	mov    (%rax),%rax
ffff800000107ebd:	48 8d 50 14          	lea    0x14(%rax),%rdx
ffff800000107ec1:	48 b8 30 10 11 00 00 	movabs $0xffff800000111030,%rax
ffff800000107ec8:	80 ff ff 
ffff800000107ecb:	48 8b 00             	mov    (%rax),%rax
ffff800000107ece:	48 83 c2 0a          	add    $0xa,%rdx
ffff800000107ed2:	48 89 50 20          	mov    %rdx,0x20(%rax)
ffff800000107ed6:	48 b8 30 10 11 00 00 	movabs $0xffff800000111030,%rax
ffff800000107edd:	80 ff ff 
ffff800000107ee0:	48 8b 00             	mov    (%rax),%rax
ffff800000107ee3:	48 83 c0 14          	add    $0x14,%rax
ffff800000107ee7:	ba 0a 00 00 00       	mov    $0xa,%edx
ffff800000107eec:	be 00 00 00 00       	mov    $0x0,%esi
ffff800000107ef1:	48 89 c7             	mov    %rax,%rdi
ffff800000107ef4:	48 b8 b1 43 10 00 00 	movabs $0xffff8000001043b1,%rax
ffff800000107efb:	80 ff ff 
ffff800000107efe:	ff d0                	callq  *%rax
ffff800000107f00:	90                   	nop
ffff800000107f01:	bf 64 00 00 00       	mov    $0x64,%edi
ffff800000107f06:	48 b8 88 15 10 00 00 	movabs $0xffff800000101588,%rax
ffff800000107f0d:	80 ff ff 
ffff800000107f10:	ff d0                	callq  *%rax
ffff800000107f12:	0f b6 c0             	movzbl %al,%eax
ffff800000107f15:	83 e0 02             	and    $0x2,%eax
ffff800000107f18:	85 c0                	test   %eax,%eax
ffff800000107f1a:	75 e5                	jne    ffff800000107f01 <InitKeyboard+0xec>
ffff800000107f1c:	be 60 00 00 00       	mov    $0x60,%esi
ffff800000107f21:	bf 64 00 00 00       	mov    $0x64,%edi
ffff800000107f26:	48 b8 68 15 10 00 00 	movabs $0xffff800000101568,%rax
ffff800000107f2d:	80 ff ff 
ffff800000107f30:	ff d0                	callq  *%rax
ffff800000107f32:	90                   	nop
ffff800000107f33:	bf 64 00 00 00       	mov    $0x64,%edi
ffff800000107f38:	48 b8 88 15 10 00 00 	movabs $0xffff800000101588,%rax
ffff800000107f3f:	80 ff ff 
ffff800000107f42:	ff d0                	callq  *%rax
ffff800000107f44:	0f b6 c0             	movzbl %al,%eax
ffff800000107f47:	83 e0 02             	and    $0x2,%eax
ffff800000107f4a:	85 c0                	test   %eax,%eax
ffff800000107f4c:	75 e5                	jne    ffff800000107f33 <InitKeyboard+0x11e>
ffff800000107f4e:	be 47 00 00 00       	mov    $0x47,%esi
ffff800000107f53:	bf 60 00 00 00       	mov    $0x60,%edi
ffff800000107f58:	48 b8 68 15 10 00 00 	movabs $0xffff800000101568,%rax
ffff800000107f5f:	80 ff ff 
ffff800000107f62:	ff d0                	callq  *%rax
ffff800000107f64:	48 c7 45 f8 00 00 00 	movq   $0x0,-0x8(%rbp)
ffff800000107f6b:	00 
ffff800000107f6c:	eb 1f                	jmp    ffff800000107f8d <InitKeyboard+0x178>
ffff800000107f6e:	48 c7 45 f0 00 00 00 	movq   $0x0,-0x10(%rbp)
ffff800000107f75:	00 
ffff800000107f76:	eb 06                	jmp    ffff800000107f7e <InitKeyboard+0x169>
ffff800000107f78:	90                   	nop
ffff800000107f79:	48 83 45 f0 01       	addq   $0x1,-0x10(%rbp)
ffff800000107f7e:	48 81 7d f0 e7 03 00 	cmpq   $0x3e7,-0x10(%rbp)
ffff800000107f85:	00 
ffff800000107f86:	76 f0                	jbe    ffff800000107f78 <InitKeyboard+0x163>
ffff800000107f88:	48 83 45 f8 01       	addq   $0x1,-0x8(%rbp)
ffff800000107f8d:	48 81 7d f8 e7 03 00 	cmpq   $0x3e7,-0x8(%rbp)
ffff800000107f94:	00 
ffff800000107f95:	76 d7                	jbe    ffff800000107f6e <InitKeyboard+0x159>
ffff800000107f97:	48 be d0 7f 10 00 00 	movabs $0xffff800000107fd0,%rsi
ffff800000107f9e:	80 ff ff 
ffff800000107fa1:	bf 21 00 00 00       	mov    $0x21,%edi
ffff800000107fa6:	48 b8 f0 47 10 00 00 	movabs $0xffff8000001047f0,%rax
ffff800000107fad:	80 ff ff 
ffff800000107fb0:	ff d0                	callq  *%rax
ffff800000107fb2:	48 bf a7 bb 10 00 00 	movabs $0xffff80000010bba7,%rdi
ffff800000107fb9:	80 ff ff 
ffff800000107fbc:	b8 00 00 00 00       	mov    $0x0,%eax
ffff800000107fc1:	48 ba 50 30 10 00 00 	movabs $0xffff800000103050,%rdx
ffff800000107fc8:	80 ff ff 
ffff800000107fcb:	ff d2                	callq  *%rdx
ffff800000107fcd:	90                   	nop
ffff800000107fce:	c9                   	leaveq 
ffff800000107fcf:	c3                   	retq   

ffff800000107fd0 <keyboard_handler>:
ffff800000107fd0:	55                   	push   %rbp
ffff800000107fd1:	48 89 e5             	mov    %rsp,%rbp
ffff800000107fd4:	48 83 ec 10          	sub    $0x10,%rsp
ffff800000107fd8:	bf 60 00 00 00       	mov    $0x60,%edi
ffff800000107fdd:	48 b8 88 15 10 00 00 	movabs $0xffff800000101588,%rax
ffff800000107fe4:	80 ff ff 
ffff800000107fe7:	ff d0                	callq  *%rax
ffff800000107fe9:	0f b6 c0             	movzbl %al,%eax
ffff800000107fec:	89 45 fc             	mov    %eax,-0x4(%rbp)
ffff800000107fef:	48 b8 30 10 11 00 00 	movabs $0xffff800000111030,%rax
ffff800000107ff6:	80 ff ff 
ffff800000107ff9:	48 8b 00             	mov    (%rax),%rax
ffff800000107ffc:	48 8b 00             	mov    (%rax),%rax
ffff800000107fff:	8b 55 fc             	mov    -0x4(%rbp),%edx
ffff800000108002:	88 10                	mov    %dl,(%rax)
ffff800000108004:	48 b8 30 10 11 00 00 	movabs $0xffff800000111030,%rax
ffff80000010800b:	80 ff ff 
ffff80000010800e:	48 8b 00             	mov    (%rax),%rax
ffff800000108011:	48 8b 10             	mov    (%rax),%rdx
ffff800000108014:	48 83 c2 01          	add    $0x1,%rdx
ffff800000108018:	48 89 10             	mov    %rdx,(%rax)
ffff80000010801b:	48 b8 30 10 11 00 00 	movabs $0xffff800000111030,%rax
ffff800000108022:	80 ff ff 
ffff800000108025:	48 8b 00             	mov    (%rax),%rax
ffff800000108028:	8b 50 10             	mov    0x10(%rax),%edx
ffff80000010802b:	83 c2 01             	add    $0x1,%edx
ffff80000010802e:	89 50 10             	mov    %edx,0x10(%rax)
ffff800000108031:	48 b8 30 10 11 00 00 	movabs $0xffff800000111030,%rax
ffff800000108038:	80 ff ff 
ffff80000010803b:	48 8b 00             	mov    (%rax),%rax
ffff80000010803e:	8b 40 10             	mov    0x10(%rax),%eax
ffff800000108041:	83 f8 0a             	cmp    $0xa,%eax
ffff800000108044:	7e 14                	jle    ffff80000010805a <keyboard_handler+0x8a>
ffff800000108046:	48 b8 30 10 11 00 00 	movabs $0xffff800000111030,%rax
ffff80000010804d:	80 ff ff 
ffff800000108050:	48 8b 00             	mov    (%rax),%rax
ffff800000108053:	c7 40 10 0a 00 00 00 	movl   $0xa,0x10(%rax)
ffff80000010805a:	48 b8 30 10 11 00 00 	movabs $0xffff800000111030,%rax
ffff800000108061:	80 ff ff 
ffff800000108064:	48 8b 00             	mov    (%rax),%rax
ffff800000108067:	48 8b 10             	mov    (%rax),%rdx
ffff80000010806a:	48 b8 30 10 11 00 00 	movabs $0xffff800000111030,%rax
ffff800000108071:	80 ff ff 
ffff800000108074:	48 8b 00             	mov    (%rax),%rax
ffff800000108077:	48 8b 40 20          	mov    0x20(%rax),%rax
ffff80000010807b:	48 39 c2             	cmp    %rax,%rdx
ffff80000010807e:	75 21                	jne    ffff8000001080a1 <keyboard_handler+0xd1>
ffff800000108080:	48 b8 30 10 11 00 00 	movabs $0xffff800000111030,%rax
ffff800000108087:	80 ff ff 
ffff80000010808a:	48 8b 10             	mov    (%rax),%rdx
ffff80000010808d:	48 b8 30 10 11 00 00 	movabs $0xffff800000111030,%rax
ffff800000108094:	80 ff ff 
ffff800000108097:	48 8b 00             	mov    (%rax),%rax
ffff80000010809a:	48 83 c2 14          	add    $0x14,%rdx
ffff80000010809e:	48 89 10             	mov    %rdx,(%rax)
ffff8000001080a1:	48 b8 30 10 11 00 00 	movabs $0xffff800000111030,%rax
ffff8000001080a8:	80 ff ff 
ffff8000001080ab:	48 8b 00             	mov    (%rax),%rax
ffff8000001080ae:	48 8b 10             	mov    (%rax),%rdx
ffff8000001080b1:	48 b8 30 10 11 00 00 	movabs $0xffff800000111030,%rax
ffff8000001080b8:	80 ff ff 
ffff8000001080bb:	48 8b 00             	mov    (%rax),%rax
ffff8000001080be:	48 8b 40 08          	mov    0x8(%rax),%rax
ffff8000001080c2:	48 39 c2             	cmp    %rax,%rdx
ffff8000001080c5:	75 19                	jne    ffff8000001080e0 <keyboard_handler+0x110>
ffff8000001080c7:	48 b8 30 10 11 00 00 	movabs $0xffff800000111030,%rax
ffff8000001080ce:	80 ff ff 
ffff8000001080d1:	48 8b 00             	mov    (%rax),%rax
ffff8000001080d4:	48 8b 50 08          	mov    0x8(%rax),%rdx
ffff8000001080d8:	48 83 c2 01          	add    $0x1,%rdx
ffff8000001080dc:	48 89 50 08          	mov    %rdx,0x8(%rax)
ffff8000001080e0:	48 b8 30 10 11 00 00 	movabs $0xffff800000111030,%rax
ffff8000001080e7:	80 ff ff 
ffff8000001080ea:	48 8b 00             	mov    (%rax),%rax
ffff8000001080ed:	48 8b 50 08          	mov    0x8(%rax),%rdx
ffff8000001080f1:	48 b8 30 10 11 00 00 	movabs $0xffff800000111030,%rax
ffff8000001080f8:	80 ff ff 
ffff8000001080fb:	48 8b 00             	mov    (%rax),%rax
ffff8000001080fe:	48 8b 40 20          	mov    0x20(%rax),%rax
ffff800000108102:	48 39 c2             	cmp    %rax,%rdx
ffff800000108105:	75 22                	jne    ffff800000108129 <keyboard_handler+0x159>
ffff800000108107:	48 b8 30 10 11 00 00 	movabs $0xffff800000111030,%rax
ffff80000010810e:	80 ff ff 
ffff800000108111:	48 8b 10             	mov    (%rax),%rdx
ffff800000108114:	48 b8 30 10 11 00 00 	movabs $0xffff800000111030,%rax
ffff80000010811b:	80 ff ff 
ffff80000010811e:	48 8b 00             	mov    (%rax),%rax
ffff800000108121:	48 83 c2 14          	add    $0x14,%rdx
ffff800000108125:	48 89 50 08          	mov    %rdx,0x8(%rax)
ffff800000108129:	90                   	nop
ffff80000010812a:	c9                   	leaveq 
ffff80000010812b:	c3                   	retq   

ffff80000010812c <get_scancode>:
ffff80000010812c:	55                   	push   %rbp
ffff80000010812d:	48 89 e5             	mov    %rsp,%rbp
ffff800000108130:	48 b8 30 10 11 00 00 	movabs $0xffff800000111030,%rax
ffff800000108137:	80 ff ff 
ffff80000010813a:	48 8b 00             	mov    (%rax),%rax
ffff80000010813d:	8b 40 10             	mov    0x10(%rax),%eax
ffff800000108140:	85 c0                	test   %eax,%eax
ffff800000108142:	75 0a                	jne    ffff80000010814e <get_scancode+0x22>
ffff800000108144:	b8 00 00 00 00       	mov    $0x0,%eax
ffff800000108149:	e9 93 00 00 00       	jmpq   ffff8000001081e1 <get_scancode+0xb5>
ffff80000010814e:	48 b8 30 10 11 00 00 	movabs $0xffff800000111030,%rax
ffff800000108155:	80 ff ff 
ffff800000108158:	48 8b 00             	mov    (%rax),%rax
ffff80000010815b:	48 8b 40 08          	mov    0x8(%rax),%rax
ffff80000010815f:	0f b6 00             	movzbl (%rax),%eax
ffff800000108162:	88 45 ff             	mov    %al,-0x1(%rbp)
ffff800000108165:	48 b8 30 10 11 00 00 	movabs $0xffff800000111030,%rax
ffff80000010816c:	80 ff ff 
ffff80000010816f:	48 8b 00             	mov    (%rax),%rax
ffff800000108172:	48 8b 50 08          	mov    0x8(%rax),%rdx
ffff800000108176:	48 83 c2 01          	add    $0x1,%rdx
ffff80000010817a:	48 89 50 08          	mov    %rdx,0x8(%rax)
ffff80000010817e:	48 b8 30 10 11 00 00 	movabs $0xffff800000111030,%rax
ffff800000108185:	80 ff ff 
ffff800000108188:	48 8b 00             	mov    (%rax),%rax
ffff80000010818b:	48 8b 50 08          	mov    0x8(%rax),%rdx
ffff80000010818f:	48 b8 30 10 11 00 00 	movabs $0xffff800000111030,%rax
ffff800000108196:	80 ff ff 
ffff800000108199:	48 8b 00             	mov    (%rax),%rax
ffff80000010819c:	48 8b 40 20          	mov    0x20(%rax),%rax
ffff8000001081a0:	48 39 c2             	cmp    %rax,%rdx
ffff8000001081a3:	75 22                	jne    ffff8000001081c7 <get_scancode+0x9b>
ffff8000001081a5:	48 b8 30 10 11 00 00 	movabs $0xffff800000111030,%rax
ffff8000001081ac:	80 ff ff 
ffff8000001081af:	48 8b 10             	mov    (%rax),%rdx
ffff8000001081b2:	48 b8 30 10 11 00 00 	movabs $0xffff800000111030,%rax
ffff8000001081b9:	80 ff ff 
ffff8000001081bc:	48 8b 00             	mov    (%rax),%rax
ffff8000001081bf:	48 83 c2 14          	add    $0x14,%rdx
ffff8000001081c3:	48 89 50 08          	mov    %rdx,0x8(%rax)
ffff8000001081c7:	48 b8 30 10 11 00 00 	movabs $0xffff800000111030,%rax
ffff8000001081ce:	80 ff ff 
ffff8000001081d1:	48 8b 00             	mov    (%rax),%rax
ffff8000001081d4:	8b 50 10             	mov    0x10(%rax),%edx
ffff8000001081d7:	83 ea 01             	sub    $0x1,%edx
ffff8000001081da:	89 50 10             	mov    %edx,0x10(%rax)
ffff8000001081dd:	0f b6 45 ff          	movzbl -0x1(%rbp),%eax
ffff8000001081e1:	5d                   	pop    %rbp
ffff8000001081e2:	c3                   	retq   

ffff8000001081e3 <decode_keyboard>:
ffff8000001081e3:	55                   	push   %rbp
ffff8000001081e4:	48 89 e5             	mov    %rsp,%rbp
ffff8000001081e7:	48 83 ec 10          	sub    $0x10,%rsp
ffff8000001081eb:	b8 00 00 00 00       	mov    $0x0,%eax
ffff8000001081f0:	48 ba 2c 81 10 00 00 	movabs $0xffff80000010812c,%rdx
ffff8000001081f7:	80 ff ff 
ffff8000001081fa:	ff d2                	callq  *%rdx
ffff8000001081fc:	88 45 f7             	mov    %al,-0x9(%rbp)
ffff8000001081ff:	80 7d f7 00          	cmpb   $0x0,-0x9(%rbp)
ffff800000108203:	0f 84 e9 01 00 00    	je     ffff8000001083f2 <decode_keyboard+0x20f>
ffff800000108209:	0f b6 45 f7          	movzbl -0x9(%rbp),%eax
ffff80000010820d:	83 e8 0e             	sub    $0xe,%eax
ffff800000108210:	83 f8 2b             	cmp    $0x2b,%eax
ffff800000108213:	0f 87 dc 01 00 00    	ja     ffff8000001083f5 <decode_keyboard+0x212>
ffff800000108219:	89 c0                	mov    %eax,%eax
ffff80000010821b:	48 8d 14 c5 00 00 00 	lea    0x0(,%rax,8),%rdx
ffff800000108222:	00 
ffff800000108223:	48 b8 c0 bb 10 00 00 	movabs $0xffff80000010bbc0,%rax
ffff80000010822a:	80 ff ff 
ffff80000010822d:	48 01 d0             	add    %rdx,%rax
ffff800000108230:	48 8b 00             	mov    (%rax),%rax
ffff800000108233:	ff e0                	jmpq   *%rax
ffff800000108235:	c6 45 ff 61          	movb   $0x61,-0x1(%rbp)
ffff800000108239:	e9 d3 00 00 00       	jmpq   ffff800000108311 <decode_keyboard+0x12e>
ffff80000010823e:	c6 45 ff 62          	movb   $0x62,-0x1(%rbp)
ffff800000108242:	e9 ca 00 00 00       	jmpq   ffff800000108311 <decode_keyboard+0x12e>
ffff800000108247:	c6 45 ff 63          	movb   $0x63,-0x1(%rbp)
ffff80000010824b:	e9 c1 00 00 00       	jmpq   ffff800000108311 <decode_keyboard+0x12e>
ffff800000108250:	c6 45 ff 64          	movb   $0x64,-0x1(%rbp)
ffff800000108254:	e9 b8 00 00 00       	jmpq   ffff800000108311 <decode_keyboard+0x12e>
ffff800000108259:	c6 45 ff 65          	movb   $0x65,-0x1(%rbp)
ffff80000010825d:	e9 af 00 00 00       	jmpq   ffff800000108311 <decode_keyboard+0x12e>
ffff800000108262:	c6 45 ff 66          	movb   $0x66,-0x1(%rbp)
ffff800000108266:	e9 a6 00 00 00       	jmpq   ffff800000108311 <decode_keyboard+0x12e>
ffff80000010826b:	c6 45 ff 67          	movb   $0x67,-0x1(%rbp)
ffff80000010826f:	e9 9d 00 00 00       	jmpq   ffff800000108311 <decode_keyboard+0x12e>
ffff800000108274:	c6 45 ff 68          	movb   $0x68,-0x1(%rbp)
ffff800000108278:	e9 94 00 00 00       	jmpq   ffff800000108311 <decode_keyboard+0x12e>
ffff80000010827d:	c6 45 ff 69          	movb   $0x69,-0x1(%rbp)
ffff800000108281:	e9 8b 00 00 00       	jmpq   ffff800000108311 <decode_keyboard+0x12e>
ffff800000108286:	c6 45 ff 6a          	movb   $0x6a,-0x1(%rbp)
ffff80000010828a:	e9 82 00 00 00       	jmpq   ffff800000108311 <decode_keyboard+0x12e>
ffff80000010828f:	c6 45 ff 6b          	movb   $0x6b,-0x1(%rbp)
ffff800000108293:	eb 7c                	jmp    ffff800000108311 <decode_keyboard+0x12e>
ffff800000108295:	c6 45 ff 6c          	movb   $0x6c,-0x1(%rbp)
ffff800000108299:	eb 76                	jmp    ffff800000108311 <decode_keyboard+0x12e>
ffff80000010829b:	c6 45 ff 6d          	movb   $0x6d,-0x1(%rbp)
ffff80000010829f:	eb 70                	jmp    ffff800000108311 <decode_keyboard+0x12e>
ffff8000001082a1:	c6 45 ff 6e          	movb   $0x6e,-0x1(%rbp)
ffff8000001082a5:	eb 6a                	jmp    ffff800000108311 <decode_keyboard+0x12e>
ffff8000001082a7:	c6 45 ff 6f          	movb   $0x6f,-0x1(%rbp)
ffff8000001082ab:	eb 64                	jmp    ffff800000108311 <decode_keyboard+0x12e>
ffff8000001082ad:	c6 45 ff 70          	movb   $0x70,-0x1(%rbp)
ffff8000001082b1:	eb 5e                	jmp    ffff800000108311 <decode_keyboard+0x12e>
ffff8000001082b3:	c6 45 ff 71          	movb   $0x71,-0x1(%rbp)
ffff8000001082b7:	eb 58                	jmp    ffff800000108311 <decode_keyboard+0x12e>
ffff8000001082b9:	c6 45 ff 72          	movb   $0x72,-0x1(%rbp)
ffff8000001082bd:	eb 52                	jmp    ffff800000108311 <decode_keyboard+0x12e>
ffff8000001082bf:	c6 45 ff 73          	movb   $0x73,-0x1(%rbp)
ffff8000001082c3:	eb 4c                	jmp    ffff800000108311 <decode_keyboard+0x12e>
ffff8000001082c5:	c6 45 ff 74          	movb   $0x74,-0x1(%rbp)
ffff8000001082c9:	eb 46                	jmp    ffff800000108311 <decode_keyboard+0x12e>
ffff8000001082cb:	c6 45 ff 75          	movb   $0x75,-0x1(%rbp)
ffff8000001082cf:	eb 40                	jmp    ffff800000108311 <decode_keyboard+0x12e>
ffff8000001082d1:	c6 45 ff 76          	movb   $0x76,-0x1(%rbp)
ffff8000001082d5:	eb 3a                	jmp    ffff800000108311 <decode_keyboard+0x12e>
ffff8000001082d7:	c6 45 ff 77          	movb   $0x77,-0x1(%rbp)
ffff8000001082db:	eb 34                	jmp    ffff800000108311 <decode_keyboard+0x12e>
ffff8000001082dd:	c6 45 ff 78          	movb   $0x78,-0x1(%rbp)
ffff8000001082e1:	eb 2e                	jmp    ffff800000108311 <decode_keyboard+0x12e>
ffff8000001082e3:	c6 45 ff 79          	movb   $0x79,-0x1(%rbp)
ffff8000001082e7:	eb 28                	jmp    ffff800000108311 <decode_keyboard+0x12e>
ffff8000001082e9:	c6 45 ff 7a          	movb   $0x7a,-0x1(%rbp)
ffff8000001082ed:	eb 22                	jmp    ffff800000108311 <decode_keyboard+0x12e>
ffff8000001082ef:	c6 45 ff 0a          	movb   $0xa,-0x1(%rbp)
ffff8000001082f3:	eb 1c                	jmp    ffff800000108311 <decode_keyboard+0x12e>
ffff8000001082f5:	c6 45 ff 20          	movb   $0x20,-0x1(%rbp)
ffff8000001082f9:	eb 16                	jmp    ffff800000108311 <decode_keyboard+0x12e>
ffff8000001082fb:	bf 01 00 00 00       	mov    $0x1,%edi
ffff800000108300:	48 b8 77 5d 10 00 00 	movabs $0xffff800000105d77,%rax
ffff800000108307:	80 ff ff 
ffff80000010830a:	ff d0                	callq  *%rax
ffff80000010830c:	e9 e5 00 00 00       	jmpq   ffff8000001083f6 <decode_keyboard+0x213>
ffff800000108311:	0f be 45 ff          	movsbl -0x1(%rbp),%eax
ffff800000108315:	89 c7                	mov    %eax,%edi
ffff800000108317:	48 b8 d3 25 10 00 00 	movabs $0xffff8000001025d3,%rax
ffff80000010831e:	80 ff ff 
ffff800000108321:	ff d0                	callq  *%rax
ffff800000108323:	48 b8 01 11 11 00 00 	movabs $0xffff800000111101,%rax
ffff80000010832a:	80 ff ff 
ffff80000010832d:	0f b6 00             	movzbl (%rax),%eax
ffff800000108330:	8d 50 01             	lea    0x1(%rax),%edx
ffff800000108333:	48 b9 01 11 11 00 00 	movabs $0xffff800000111101,%rcx
ffff80000010833a:	80 ff ff 
ffff80000010833d:	88 11                	mov    %dl,(%rcx)
ffff80000010833f:	0f b6 c0             	movzbl %al,%eax
ffff800000108342:	0f b6 55 ff          	movzbl -0x1(%rbp),%edx
ffff800000108346:	48 b9 20 11 11 00 00 	movabs $0xffff800000111120,%rcx
ffff80000010834d:	80 ff ff 
ffff800000108350:	48 98                	cltq   
ffff800000108352:	88 14 01             	mov    %dl,(%rcx,%rax,1)
ffff800000108355:	80 7d ff 0a          	cmpb   $0xa,-0x1(%rbp)
ffff800000108359:	0f 85 97 00 00 00    	jne    ffff8000001083f6 <decode_keyboard+0x213>
ffff80000010835f:	c7 45 f8 00 00 00 00 	movl   $0x0,-0x8(%rbp)
ffff800000108366:	eb 47                	jmp    ffff8000001083af <decode_keyboard+0x1cc>
ffff800000108368:	48 b8 00 11 11 00 00 	movabs $0xffff800000111100,%rax
ffff80000010836f:	80 ff ff 
ffff800000108372:	0f b6 00             	movzbl (%rax),%eax
ffff800000108375:	8d 50 01             	lea    0x1(%rax),%edx
ffff800000108378:	48 b9 00 11 11 00 00 	movabs $0xffff800000111100,%rcx
ffff80000010837f:	80 ff ff 
ffff800000108382:	88 11                	mov    %dl,(%rcx)
ffff800000108384:	0f b6 c0             	movzbl %al,%eax
ffff800000108387:	48 ba 20 11 11 00 00 	movabs $0xffff800000111120,%rdx
ffff80000010838e:	80 ff ff 
ffff800000108391:	48 98                	cltq   
ffff800000108393:	0f b6 0c 02          	movzbl (%rdx,%rax,1),%ecx
ffff800000108397:	8b 45 f8             	mov    -0x8(%rbp),%eax
ffff80000010839a:	8d 50 01             	lea    0x1(%rax),%edx
ffff80000010839d:	89 55 f8             	mov    %edx,-0x8(%rbp)
ffff8000001083a0:	48 ba 20 12 11 00 00 	movabs $0xffff800000111220,%rdx
ffff8000001083a7:	80 ff ff 
ffff8000001083aa:	48 98                	cltq   
ffff8000001083ac:	88 0c 02             	mov    %cl,(%rdx,%rax,1)
ffff8000001083af:	48 b8 00 11 11 00 00 	movabs $0xffff800000111100,%rax
ffff8000001083b6:	80 ff ff 
ffff8000001083b9:	0f b6 10             	movzbl (%rax),%edx
ffff8000001083bc:	48 b8 01 11 11 00 00 	movabs $0xffff800000111101,%rax
ffff8000001083c3:	80 ff ff 
ffff8000001083c6:	0f b6 00             	movzbl (%rax),%eax
ffff8000001083c9:	38 c2                	cmp    %al,%dl
ffff8000001083cb:	75 9b                	jne    ffff800000108368 <decode_keyboard+0x185>
ffff8000001083cd:	8b 45 f8             	mov    -0x8(%rbp),%eax
ffff8000001083d0:	83 e8 01             	sub    $0x1,%eax
ffff8000001083d3:	48 ba 20 12 11 00 00 	movabs $0xffff800000111220,%rdx
ffff8000001083da:	80 ff ff 
ffff8000001083dd:	48 98                	cltq   
ffff8000001083df:	c6 04 02 00          	movb   $0x0,(%rdx,%rax,1)
ffff8000001083e3:	48 b8 20 13 11 00 00 	movabs $0xffff800000111320,%rax
ffff8000001083ea:	80 ff ff 
ffff8000001083ed:	c6 00 01             	movb   $0x1,(%rax)
ffff8000001083f0:	eb 04                	jmp    ffff8000001083f6 <decode_keyboard+0x213>
ffff8000001083f2:	90                   	nop
ffff8000001083f3:	eb 01                	jmp    ffff8000001083f6 <decode_keyboard+0x213>
ffff8000001083f5:	90                   	nop
ffff8000001083f6:	c9                   	leaveq 
ffff8000001083f7:	c3                   	retq   

ffff8000001083f8 <strcmp>:
ffff8000001083f8:	55                   	push   %rbp
ffff8000001083f9:	48 89 e5             	mov    %rsp,%rbp
ffff8000001083fc:	48 89 7d e8          	mov    %rdi,-0x18(%rbp)
ffff800000108400:	48 89 75 e0          	mov    %rsi,-0x20(%rbp)
ffff800000108404:	c7 45 fc 00 00 00 00 	movl   $0x0,-0x4(%rbp)
ffff80000010840b:	eb 04                	jmp    ffff800000108411 <strcmp+0x19>
ffff80000010840d:	83 45 fc 01          	addl   $0x1,-0x4(%rbp)
ffff800000108411:	83 7d fc 63          	cmpl   $0x63,-0x4(%rbp)
ffff800000108415:	7f 38                	jg     ffff80000010844f <strcmp+0x57>
ffff800000108417:	8b 45 fc             	mov    -0x4(%rbp),%eax
ffff80000010841a:	48 63 d0             	movslq %eax,%rdx
ffff80000010841d:	48 8b 45 e8          	mov    -0x18(%rbp),%rax
ffff800000108421:	48 01 d0             	add    %rdx,%rax
ffff800000108424:	0f b6 10             	movzbl (%rax),%edx
ffff800000108427:	8b 45 fc             	mov    -0x4(%rbp),%eax
ffff80000010842a:	48 63 c8             	movslq %eax,%rcx
ffff80000010842d:	48 8b 45 e0          	mov    -0x20(%rbp),%rax
ffff800000108431:	48 01 c8             	add    %rcx,%rax
ffff800000108434:	0f b6 00             	movzbl (%rax),%eax
ffff800000108437:	38 c2                	cmp    %al,%dl
ffff800000108439:	75 14                	jne    ffff80000010844f <strcmp+0x57>
ffff80000010843b:	8b 45 fc             	mov    -0x4(%rbp),%eax
ffff80000010843e:	48 63 d0             	movslq %eax,%rdx
ffff800000108441:	48 8b 45 e8          	mov    -0x18(%rbp),%rax
ffff800000108445:	48 01 d0             	add    %rdx,%rax
ffff800000108448:	0f b6 00             	movzbl (%rax),%eax
ffff80000010844b:	84 c0                	test   %al,%al
ffff80000010844d:	75 be                	jne    ffff80000010840d <strcmp+0x15>
ffff80000010844f:	8b 45 fc             	mov    -0x4(%rbp),%eax
ffff800000108452:	48 63 d0             	movslq %eax,%rdx
ffff800000108455:	48 8b 45 e8          	mov    -0x18(%rbp),%rax
ffff800000108459:	48 01 d0             	add    %rdx,%rax
ffff80000010845c:	0f b6 10             	movzbl (%rax),%edx
ffff80000010845f:	8b 45 fc             	mov    -0x4(%rbp),%eax
ffff800000108462:	48 63 c8             	movslq %eax,%rcx
ffff800000108465:	48 8b 45 e0          	mov    -0x20(%rbp),%rax
ffff800000108469:	48 01 c8             	add    %rcx,%rax
ffff80000010846c:	0f b6 00             	movzbl (%rax),%eax
ffff80000010846f:	38 c2                	cmp    %al,%dl
ffff800000108471:	75 07                	jne    ffff80000010847a <strcmp+0x82>
ffff800000108473:	b8 01 00 00 00       	mov    $0x1,%eax
ffff800000108478:	eb 05                	jmp    ffff80000010847f <strcmp+0x87>
ffff80000010847a:	b8 00 00 00 00       	mov    $0x0,%eax
ffff80000010847f:	5d                   	pop    %rbp
ffff800000108480:	c3                   	retq   

ffff800000108481 <strncmp>:
ffff800000108481:	55                   	push   %rbp
ffff800000108482:	48 89 e5             	mov    %rsp,%rbp
ffff800000108485:	48 89 7d e8          	mov    %rdi,-0x18(%rbp)
ffff800000108489:	48 89 75 e0          	mov    %rsi,-0x20(%rbp)
ffff80000010848d:	89 55 dc             	mov    %edx,-0x24(%rbp)
ffff800000108490:	c7 45 fc 00 00 00 00 	movl   $0x0,-0x4(%rbp)
ffff800000108497:	eb 04                	jmp    ffff80000010849d <strncmp+0x1c>
ffff800000108499:	83 45 fc 01          	addl   $0x1,-0x4(%rbp)
ffff80000010849d:	8b 45 fc             	mov    -0x4(%rbp),%eax
ffff8000001084a0:	3b 45 dc             	cmp    -0x24(%rbp),%eax
ffff8000001084a3:	7d 38                	jge    ffff8000001084dd <strncmp+0x5c>
ffff8000001084a5:	8b 45 fc             	mov    -0x4(%rbp),%eax
ffff8000001084a8:	48 63 d0             	movslq %eax,%rdx
ffff8000001084ab:	48 8b 45 e8          	mov    -0x18(%rbp),%rax
ffff8000001084af:	48 01 d0             	add    %rdx,%rax
ffff8000001084b2:	0f b6 10             	movzbl (%rax),%edx
ffff8000001084b5:	8b 45 fc             	mov    -0x4(%rbp),%eax
ffff8000001084b8:	48 63 c8             	movslq %eax,%rcx
ffff8000001084bb:	48 8b 45 e0          	mov    -0x20(%rbp),%rax
ffff8000001084bf:	48 01 c8             	add    %rcx,%rax
ffff8000001084c2:	0f b6 00             	movzbl (%rax),%eax
ffff8000001084c5:	38 c2                	cmp    %al,%dl
ffff8000001084c7:	75 14                	jne    ffff8000001084dd <strncmp+0x5c>
ffff8000001084c9:	8b 45 fc             	mov    -0x4(%rbp),%eax
ffff8000001084cc:	48 63 d0             	movslq %eax,%rdx
ffff8000001084cf:	48 8b 45 e8          	mov    -0x18(%rbp),%rax
ffff8000001084d3:	48 01 d0             	add    %rdx,%rax
ffff8000001084d6:	0f b6 00             	movzbl (%rax),%eax
ffff8000001084d9:	84 c0                	test   %al,%al
ffff8000001084db:	75 bc                	jne    ffff800000108499 <strncmp+0x18>
ffff8000001084dd:	8b 45 fc             	mov    -0x4(%rbp),%eax
ffff8000001084e0:	3b 45 dc             	cmp    -0x24(%rbp),%eax
ffff8000001084e3:	7d 24                	jge    ffff800000108509 <strncmp+0x88>
ffff8000001084e5:	8b 45 fc             	mov    -0x4(%rbp),%eax
ffff8000001084e8:	48 63 d0             	movslq %eax,%rdx
ffff8000001084eb:	48 8b 45 e8          	mov    -0x18(%rbp),%rax
ffff8000001084ef:	48 01 d0             	add    %rdx,%rax
ffff8000001084f2:	0f b6 10             	movzbl (%rax),%edx
ffff8000001084f5:	8b 45 fc             	mov    -0x4(%rbp),%eax
ffff8000001084f8:	48 63 c8             	movslq %eax,%rcx
ffff8000001084fb:	48 8b 45 e0          	mov    -0x20(%rbp),%rax
ffff8000001084ff:	48 01 c8             	add    %rcx,%rax
ffff800000108502:	0f b6 00             	movzbl (%rax),%eax
ffff800000108505:	38 c2                	cmp    %al,%dl
ffff800000108507:	75 07                	jne    ffff800000108510 <strncmp+0x8f>
ffff800000108509:	b8 01 00 00 00       	mov    $0x1,%eax
ffff80000010850e:	eb 05                	jmp    ffff800000108515 <strncmp+0x94>
ffff800000108510:	b8 00 00 00 00       	mov    $0x0,%eax
ffff800000108515:	5d                   	pop    %rbp
ffff800000108516:	c3                   	retq   

ffff800000108517 <strlen>:
ffff800000108517:	55                   	push   %rbp
ffff800000108518:	48 89 e5             	mov    %rsp,%rbp
ffff80000010851b:	48 89 7d e8          	mov    %rdi,-0x18(%rbp)
ffff80000010851f:	c7 45 fc 00 00 00 00 	movl   $0x0,-0x4(%rbp)
ffff800000108526:	eb 04                	jmp    ffff80000010852c <strlen+0x15>
ffff800000108528:	83 45 fc 01          	addl   $0x1,-0x4(%rbp)
ffff80000010852c:	8b 45 fc             	mov    -0x4(%rbp),%eax
ffff80000010852f:	48 63 d0             	movslq %eax,%rdx
ffff800000108532:	48 8b 45 e8          	mov    -0x18(%rbp),%rax
ffff800000108536:	48 01 d0             	add    %rdx,%rax
ffff800000108539:	0f b6 00             	movzbl (%rax),%eax
ffff80000010853c:	84 c0                	test   %al,%al
ffff80000010853e:	75 e8                	jne    ffff800000108528 <strlen+0x11>
ffff800000108540:	8b 45 fc             	mov    -0x4(%rbp),%eax
ffff800000108543:	5d                   	pop    %rbp
ffff800000108544:	c3                   	retq   

ffff800000108545 <InitTimer>:
ffff800000108545:	55                   	push   %rbp
ffff800000108546:	48 89 e5             	mov    %rsp,%rbp
ffff800000108549:	53                   	push   %rbx
ffff80000010854a:	48 83 ec 08          	sub    $0x8,%rsp
ffff80000010854e:	fa                   	cli    
ffff80000010854f:	be 80 00 00 00       	mov    $0x80,%esi
ffff800000108554:	bf 70 00 00 00       	mov    $0x70,%edi
ffff800000108559:	48 b8 68 15 10 00 00 	movabs $0xffff800000101568,%rax
ffff800000108560:	80 ff ff 
ffff800000108563:	ff d0                	callq  *%rax
ffff800000108565:	bf 71 00 00 00       	mov    $0x71,%edi
ffff80000010856a:	48 b8 88 15 10 00 00 	movabs $0xffff800000101588,%rax
ffff800000108571:	80 ff ff 
ffff800000108574:	ff d0                	callq  *%rax
ffff800000108576:	0f b6 c0             	movzbl %al,%eax
ffff800000108579:	48 ba 70 1e 11 00 00 	movabs $0xffff800000111e70,%rdx
ffff800000108580:	80 ff ff 
ffff800000108583:	89 02                	mov    %eax,(%rdx)
ffff800000108585:	be 82 00 00 00       	mov    $0x82,%esi
ffff80000010858a:	bf 70 00 00 00       	mov    $0x70,%edi
ffff80000010858f:	48 b8 68 15 10 00 00 	movabs $0xffff800000101568,%rax
ffff800000108596:	80 ff ff 
ffff800000108599:	ff d0                	callq  *%rax
ffff80000010859b:	bf 71 00 00 00       	mov    $0x71,%edi
ffff8000001085a0:	48 b8 88 15 10 00 00 	movabs $0xffff800000101588,%rax
ffff8000001085a7:	80 ff ff 
ffff8000001085aa:	ff d0                	callq  *%rax
ffff8000001085ac:	0f b6 c0             	movzbl %al,%eax
ffff8000001085af:	48 ba 70 1e 11 00 00 	movabs $0xffff800000111e70,%rdx
ffff8000001085b6:	80 ff ff 
ffff8000001085b9:	89 42 04             	mov    %eax,0x4(%rdx)
ffff8000001085bc:	be 84 00 00 00       	mov    $0x84,%esi
ffff8000001085c1:	bf 70 00 00 00       	mov    $0x70,%edi
ffff8000001085c6:	48 b8 68 15 10 00 00 	movabs $0xffff800000101568,%rax
ffff8000001085cd:	80 ff ff 
ffff8000001085d0:	ff d0                	callq  *%rax
ffff8000001085d2:	bf 71 00 00 00       	mov    $0x71,%edi
ffff8000001085d7:	48 b8 88 15 10 00 00 	movabs $0xffff800000101588,%rax
ffff8000001085de:	80 ff ff 
ffff8000001085e1:	ff d0                	callq  *%rax
ffff8000001085e3:	0f b6 c0             	movzbl %al,%eax
ffff8000001085e6:	48 ba 70 1e 11 00 00 	movabs $0xffff800000111e70,%rdx
ffff8000001085ed:	80 ff ff 
ffff8000001085f0:	89 42 08             	mov    %eax,0x8(%rdx)
ffff8000001085f3:	be 87 00 00 00       	mov    $0x87,%esi
ffff8000001085f8:	bf 70 00 00 00       	mov    $0x70,%edi
ffff8000001085fd:	48 b8 68 15 10 00 00 	movabs $0xffff800000101568,%rax
ffff800000108604:	80 ff ff 
ffff800000108607:	ff d0                	callq  *%rax
ffff800000108609:	bf 71 00 00 00       	mov    $0x71,%edi
ffff80000010860e:	48 b8 88 15 10 00 00 	movabs $0xffff800000101588,%rax
ffff800000108615:	80 ff ff 
ffff800000108618:	ff d0                	callq  *%rax
ffff80000010861a:	0f b6 c0             	movzbl %al,%eax
ffff80000010861d:	48 ba 70 1e 11 00 00 	movabs $0xffff800000111e70,%rdx
ffff800000108624:	80 ff ff 
ffff800000108627:	89 42 0c             	mov    %eax,0xc(%rdx)
ffff80000010862a:	be 88 00 00 00       	mov    $0x88,%esi
ffff80000010862f:	bf 70 00 00 00       	mov    $0x70,%edi
ffff800000108634:	48 b8 68 15 10 00 00 	movabs $0xffff800000101568,%rax
ffff80000010863b:	80 ff ff 
ffff80000010863e:	ff d0                	callq  *%rax
ffff800000108640:	bf 71 00 00 00       	mov    $0x71,%edi
ffff800000108645:	48 b8 88 15 10 00 00 	movabs $0xffff800000101588,%rax
ffff80000010864c:	80 ff ff 
ffff80000010864f:	ff d0                	callq  *%rax
ffff800000108651:	0f b6 c0             	movzbl %al,%eax
ffff800000108654:	48 ba 70 1e 11 00 00 	movabs $0xffff800000111e70,%rdx
ffff80000010865b:	80 ff ff 
ffff80000010865e:	89 42 10             	mov    %eax,0x10(%rdx)
ffff800000108661:	be 89 00 00 00       	mov    $0x89,%esi
ffff800000108666:	bf 70 00 00 00       	mov    $0x70,%edi
ffff80000010866b:	48 b8 68 15 10 00 00 	movabs $0xffff800000101568,%rax
ffff800000108672:	80 ff ff 
ffff800000108675:	ff d0                	callq  *%rax
ffff800000108677:	bf 71 00 00 00       	mov    $0x71,%edi
ffff80000010867c:	48 b8 88 15 10 00 00 	movabs $0xffff800000101588,%rax
ffff800000108683:	80 ff ff 
ffff800000108686:	ff d0                	callq  *%rax
ffff800000108688:	0f b6 d8             	movzbl %al,%ebx
ffff80000010868b:	be b2 00 00 00       	mov    $0xb2,%esi
ffff800000108690:	bf 70 00 00 00       	mov    $0x70,%edi
ffff800000108695:	48 b8 68 15 10 00 00 	movabs $0xffff800000101568,%rax
ffff80000010869c:	80 ff ff 
ffff80000010869f:	ff d0                	callq  *%rax
ffff8000001086a1:	bf 71 00 00 00       	mov    $0x71,%edi
ffff8000001086a6:	48 b8 88 15 10 00 00 	movabs $0xffff800000101588,%rax
ffff8000001086ad:	80 ff ff 
ffff8000001086b0:	ff d0                	callq  *%rax
ffff8000001086b2:	0f b6 c0             	movzbl %al,%eax
ffff8000001086b5:	c1 e0 08             	shl    $0x8,%eax
ffff8000001086b8:	8d 14 03             	lea    (%rbx,%rax,1),%edx
ffff8000001086bb:	48 b8 70 1e 11 00 00 	movabs $0xffff800000111e70,%rax
ffff8000001086c2:	80 ff ff 
ffff8000001086c5:	89 50 14             	mov    %edx,0x14(%rax)
ffff8000001086c8:	48 b8 70 1e 11 00 00 	movabs $0xffff800000111e70,%rax
ffff8000001086cf:	80 ff ff 
ffff8000001086d2:	8b 18                	mov    (%rax),%ebx
ffff8000001086d4:	be 80 00 00 00       	mov    $0x80,%esi
ffff8000001086d9:	bf 70 00 00 00       	mov    $0x70,%edi
ffff8000001086de:	48 b8 68 15 10 00 00 	movabs $0xffff800000101568,%rax
ffff8000001086e5:	80 ff ff 
ffff8000001086e8:	ff d0                	callq  *%rax
ffff8000001086ea:	bf 71 00 00 00       	mov    $0x71,%edi
ffff8000001086ef:	48 b8 88 15 10 00 00 	movabs $0xffff800000101588,%rax
ffff8000001086f6:	80 ff ff 
ffff8000001086f9:	ff d0                	callq  *%rax
ffff8000001086fb:	0f b6 c0             	movzbl %al,%eax
ffff8000001086fe:	39 c3                	cmp    %eax,%ebx
ffff800000108700:	0f 85 49 fe ff ff    	jne    ffff80000010854f <InitTimer+0xa>
ffff800000108706:	48 b8 70 1e 11 00 00 	movabs $0xffff800000111e70,%rax
ffff80000010870d:	80 ff ff 
ffff800000108710:	8b 30                	mov    (%rax),%esi
ffff800000108712:	48 b8 70 1e 11 00 00 	movabs $0xffff800000111e70,%rax
ffff800000108719:	80 ff ff 
ffff80000010871c:	8b 48 04             	mov    0x4(%rax),%ecx
ffff80000010871f:	48 b8 70 1e 11 00 00 	movabs $0xffff800000111e70,%rax
ffff800000108726:	80 ff ff 
ffff800000108729:	8b 50 08             	mov    0x8(%rax),%edx
ffff80000010872c:	48 b8 70 1e 11 00 00 	movabs $0xffff800000111e70,%rax
ffff800000108733:	80 ff ff 
ffff800000108736:	44 8b 40 0c          	mov    0xc(%rax),%r8d
ffff80000010873a:	48 b8 70 1e 11 00 00 	movabs $0xffff800000111e70,%rax
ffff800000108741:	80 ff ff 
ffff800000108744:	8b 78 10             	mov    0x10(%rax),%edi
ffff800000108747:	48 b8 70 1e 11 00 00 	movabs $0xffff800000111e70,%rax
ffff80000010874e:	80 ff ff 
ffff800000108751:	8b 40 14             	mov    0x14(%rax),%eax
ffff800000108754:	48 83 ec 08          	sub    $0x8,%rsp
ffff800000108758:	56                   	push   %rsi
ffff800000108759:	51                   	push   %rcx
ffff80000010875a:	52                   	push   %rdx
ffff80000010875b:	45 89 c1             	mov    %r8d,%r9d
ffff80000010875e:	41 89 f8             	mov    %edi,%r8d
ffff800000108761:	89 c1                	mov    %eax,%ecx
ffff800000108763:	48 ba 20 bd 10 00 00 	movabs $0xffff80000010bd20,%rdx
ffff80000010876a:	80 ff ff 
ffff80000010876d:	be 00 00 ff 00       	mov    $0xff0000,%esi
ffff800000108772:	bf 00 00 00 00       	mov    $0x0,%edi
ffff800000108777:	b8 00 00 00 00       	mov    $0x0,%eax
ffff80000010877c:	49 ba ed 27 10 00 00 	movabs $0xffff8000001027ed,%r10
ffff800000108783:	80 ff ff 
ffff800000108786:	41 ff d2             	callq  *%r10
ffff800000108789:	48 83 c4 20          	add    $0x20,%rsp
ffff80000010878d:	be 00 00 00 00       	mov    $0x0,%esi
ffff800000108792:	bf 70 00 00 00       	mov    $0x70,%edi
ffff800000108797:	48 b8 68 15 10 00 00 	movabs $0xffff800000101568,%rax
ffff80000010879e:	80 ff ff 
ffff8000001087a1:	ff d0                	callq  *%rax
ffff8000001087a3:	fb                   	sti    
ffff8000001087a4:	90                   	nop
ffff8000001087a5:	48 8b 5d f8          	mov    -0x8(%rbp),%rbx
ffff8000001087a9:	c9                   	leaveq 
ffff8000001087aa:	c3                   	retq   

ffff8000001087ab <get_time>:
ffff8000001087ab:	55                   	push   %rbp
ffff8000001087ac:	48 89 e5             	mov    %rsp,%rbp
ffff8000001087af:	53                   	push   %rbx
ffff8000001087b0:	48 83 ec 18          	sub    $0x18,%rsp
ffff8000001087b4:	48 89 7d e8          	mov    %rdi,-0x18(%rbp)
ffff8000001087b8:	fa                   	cli    
ffff8000001087b9:	be 80 00 00 00       	mov    $0x80,%esi
ffff8000001087be:	bf 70 00 00 00       	mov    $0x70,%edi
ffff8000001087c3:	48 b8 68 15 10 00 00 	movabs $0xffff800000101568,%rax
ffff8000001087ca:	80 ff ff 
ffff8000001087cd:	ff d0                	callq  *%rax
ffff8000001087cf:	bf 71 00 00 00       	mov    $0x71,%edi
ffff8000001087d4:	48 b8 88 15 10 00 00 	movabs $0xffff800000101588,%rax
ffff8000001087db:	80 ff ff 
ffff8000001087de:	ff d0                	callq  *%rax
ffff8000001087e0:	0f b6 d0             	movzbl %al,%edx
ffff8000001087e3:	48 8b 45 e8          	mov    -0x18(%rbp),%rax
ffff8000001087e7:	89 10                	mov    %edx,(%rax)
ffff8000001087e9:	be 82 00 00 00       	mov    $0x82,%esi
ffff8000001087ee:	bf 70 00 00 00       	mov    $0x70,%edi
ffff8000001087f3:	48 b8 68 15 10 00 00 	movabs $0xffff800000101568,%rax
ffff8000001087fa:	80 ff ff 
ffff8000001087fd:	ff d0                	callq  *%rax
ffff8000001087ff:	bf 71 00 00 00       	mov    $0x71,%edi
ffff800000108804:	48 b8 88 15 10 00 00 	movabs $0xffff800000101588,%rax
ffff80000010880b:	80 ff ff 
ffff80000010880e:	ff d0                	callq  *%rax
ffff800000108810:	0f b6 d0             	movzbl %al,%edx
ffff800000108813:	48 8b 45 e8          	mov    -0x18(%rbp),%rax
ffff800000108817:	89 50 04             	mov    %edx,0x4(%rax)
ffff80000010881a:	be 84 00 00 00       	mov    $0x84,%esi
ffff80000010881f:	bf 70 00 00 00       	mov    $0x70,%edi
ffff800000108824:	48 b8 68 15 10 00 00 	movabs $0xffff800000101568,%rax
ffff80000010882b:	80 ff ff 
ffff80000010882e:	ff d0                	callq  *%rax
ffff800000108830:	bf 71 00 00 00       	mov    $0x71,%edi
ffff800000108835:	48 b8 88 15 10 00 00 	movabs $0xffff800000101588,%rax
ffff80000010883c:	80 ff ff 
ffff80000010883f:	ff d0                	callq  *%rax
ffff800000108841:	0f b6 d0             	movzbl %al,%edx
ffff800000108844:	48 8b 45 e8          	mov    -0x18(%rbp),%rax
ffff800000108848:	89 50 08             	mov    %edx,0x8(%rax)
ffff80000010884b:	be 87 00 00 00       	mov    $0x87,%esi
ffff800000108850:	bf 70 00 00 00       	mov    $0x70,%edi
ffff800000108855:	48 b8 68 15 10 00 00 	movabs $0xffff800000101568,%rax
ffff80000010885c:	80 ff ff 
ffff80000010885f:	ff d0                	callq  *%rax
ffff800000108861:	bf 71 00 00 00       	mov    $0x71,%edi
ffff800000108866:	48 b8 88 15 10 00 00 	movabs $0xffff800000101588,%rax
ffff80000010886d:	80 ff ff 
ffff800000108870:	ff d0                	callq  *%rax
ffff800000108872:	0f b6 d0             	movzbl %al,%edx
ffff800000108875:	48 8b 45 e8          	mov    -0x18(%rbp),%rax
ffff800000108879:	89 50 0c             	mov    %edx,0xc(%rax)
ffff80000010887c:	be 88 00 00 00       	mov    $0x88,%esi
ffff800000108881:	bf 70 00 00 00       	mov    $0x70,%edi
ffff800000108886:	48 b8 68 15 10 00 00 	movabs $0xffff800000101568,%rax
ffff80000010888d:	80 ff ff 
ffff800000108890:	ff d0                	callq  *%rax
ffff800000108892:	bf 71 00 00 00       	mov    $0x71,%edi
ffff800000108897:	48 b8 88 15 10 00 00 	movabs $0xffff800000101588,%rax
ffff80000010889e:	80 ff ff 
ffff8000001088a1:	ff d0                	callq  *%rax
ffff8000001088a3:	0f b6 d0             	movzbl %al,%edx
ffff8000001088a6:	48 8b 45 e8          	mov    -0x18(%rbp),%rax
ffff8000001088aa:	89 50 10             	mov    %edx,0x10(%rax)
ffff8000001088ad:	be 89 00 00 00       	mov    $0x89,%esi
ffff8000001088b2:	bf 70 00 00 00       	mov    $0x70,%edi
ffff8000001088b7:	48 b8 68 15 10 00 00 	movabs $0xffff800000101568,%rax
ffff8000001088be:	80 ff ff 
ffff8000001088c1:	ff d0                	callq  *%rax
ffff8000001088c3:	bf 71 00 00 00       	mov    $0x71,%edi
ffff8000001088c8:	48 b8 88 15 10 00 00 	movabs $0xffff800000101588,%rax
ffff8000001088cf:	80 ff ff 
ffff8000001088d2:	ff d0                	callq  *%rax
ffff8000001088d4:	0f b6 d8             	movzbl %al,%ebx
ffff8000001088d7:	be b2 00 00 00       	mov    $0xb2,%esi
ffff8000001088dc:	bf 70 00 00 00       	mov    $0x70,%edi
ffff8000001088e1:	48 b8 68 15 10 00 00 	movabs $0xffff800000101568,%rax
ffff8000001088e8:	80 ff ff 
ffff8000001088eb:	ff d0                	callq  *%rax
ffff8000001088ed:	bf 71 00 00 00       	mov    $0x71,%edi
ffff8000001088f2:	48 b8 88 15 10 00 00 	movabs $0xffff800000101588,%rax
ffff8000001088f9:	80 ff ff 
ffff8000001088fc:	ff d0                	callq  *%rax
ffff8000001088fe:	0f b6 c0             	movzbl %al,%eax
ffff800000108901:	c1 e0 08             	shl    $0x8,%eax
ffff800000108904:	8d 14 03             	lea    (%rbx,%rax,1),%edx
ffff800000108907:	48 8b 45 e8          	mov    -0x18(%rbp),%rax
ffff80000010890b:	89 50 14             	mov    %edx,0x14(%rax)
ffff80000010890e:	48 8b 45 e8          	mov    -0x18(%rbp),%rax
ffff800000108912:	8b 18                	mov    (%rax),%ebx
ffff800000108914:	be 80 00 00 00       	mov    $0x80,%esi
ffff800000108919:	bf 70 00 00 00       	mov    $0x70,%edi
ffff80000010891e:	48 b8 68 15 10 00 00 	movabs $0xffff800000101568,%rax
ffff800000108925:	80 ff ff 
ffff800000108928:	ff d0                	callq  *%rax
ffff80000010892a:	bf 71 00 00 00       	mov    $0x71,%edi
ffff80000010892f:	48 b8 88 15 10 00 00 	movabs $0xffff800000101588,%rax
ffff800000108936:	80 ff ff 
ffff800000108939:	ff d0                	callq  *%rax
ffff80000010893b:	0f b6 c0             	movzbl %al,%eax
ffff80000010893e:	39 c3                	cmp    %eax,%ebx
ffff800000108940:	0f 85 73 fe ff ff    	jne    ffff8000001087b9 <get_time+0xe>
ffff800000108946:	be 00 00 00 00       	mov    $0x0,%esi
ffff80000010894b:	bf 70 00 00 00       	mov    $0x70,%edi
ffff800000108950:	48 b8 68 15 10 00 00 	movabs $0xffff800000101568,%rax
ffff800000108957:	80 ff ff 
ffff80000010895a:	ff d0                	callq  *%rax
ffff80000010895c:	fb                   	sti    
ffff80000010895d:	90                   	nop
ffff80000010895e:	48 83 c4 18          	add    $0x18,%rsp
ffff800000108962:	5b                   	pop    %rbx
ffff800000108963:	5d                   	pop    %rbp
ffff800000108964:	c3                   	retq   

ffff800000108965 <Timer>:
ffff800000108965:	55                   	push   %rbp
ffff800000108966:	48 89 e5             	mov    %rsp,%rbp
ffff800000108969:	48 83 ec 10          	sub    $0x10,%rsp
ffff80000010896d:	48 89 7d f8          	mov    %rdi,-0x8(%rbp)
ffff800000108971:	48 8b 45 f8          	mov    -0x8(%rbp),%rax
ffff800000108975:	48 89 c1             	mov    %rax,%rcx
ffff800000108978:	48 ba 30 bd 10 00 00 	movabs $0xffff80000010bd30,%rdx
ffff80000010897f:	80 ff ff 
ffff800000108982:	be 00 ff 00 00       	mov    $0xff00,%esi
ffff800000108987:	bf 00 00 00 00       	mov    $0x0,%edi
ffff80000010898c:	b8 00 00 00 00       	mov    $0x0,%eax
ffff800000108991:	49 b8 ed 27 10 00 00 	movabs $0xffff8000001027ed,%r8
ffff800000108998:	80 ff ff 
ffff80000010899b:	41 ff d0             	callq  *%r8
ffff80000010899e:	eb fe                	jmp    ffff80000010899e <Timer+0x39>

ffff8000001089a0 <PIT>:
ffff8000001089a0:	55                   	push   %rbp
ffff8000001089a1:	48 89 e5             	mov    %rsp,%rbp
ffff8000001089a4:	48 83 ec 10          	sub    $0x10,%rsp
ffff8000001089a8:	48 ba 41 bd 10 00 00 	movabs $0xffff80000010bd41,%rdx
ffff8000001089af:	80 ff ff 
ffff8000001089b2:	be 00 ff 00 00       	mov    $0xff00,%esi
ffff8000001089b7:	bf 00 00 00 00       	mov    $0x0,%edi
ffff8000001089bc:	b8 00 00 00 00       	mov    $0x0,%eax
ffff8000001089c1:	48 b9 ed 27 10 00 00 	movabs $0xffff8000001027ed,%rcx
ffff8000001089c8:	80 ff ff 
ffff8000001089cb:	ff d1                	callq  *%rcx
ffff8000001089cd:	66 c7 45 fe ff ff    	movw   $0xffff,-0x2(%rbp)
ffff8000001089d3:	be 36 00 00 00       	mov    $0x36,%esi
ffff8000001089d8:	bf 43 00 00 00       	mov    $0x43,%edi
ffff8000001089dd:	48 b8 68 15 10 00 00 	movabs $0xffff800000101568,%rax
ffff8000001089e4:	80 ff ff 
ffff8000001089e7:	ff d0                	callq  *%rax
ffff8000001089e9:	0f b7 45 fe          	movzwl -0x2(%rbp),%eax
ffff8000001089ed:	0f b6 c0             	movzbl %al,%eax
ffff8000001089f0:	89 c6                	mov    %eax,%esi
ffff8000001089f2:	bf 40 00 00 00       	mov    $0x40,%edi
ffff8000001089f7:	48 b8 68 15 10 00 00 	movabs $0xffff800000101568,%rax
ffff8000001089fe:	80 ff ff 
ffff800000108a01:	ff d0                	callq  *%rax
ffff800000108a03:	0f b7 45 fe          	movzwl -0x2(%rbp),%eax
ffff800000108a07:	66 c1 e8 08          	shr    $0x8,%ax
ffff800000108a0b:	0f b6 c0             	movzbl %al,%eax
ffff800000108a0e:	89 c6                	mov    %eax,%esi
ffff800000108a10:	bf 40 00 00 00       	mov    $0x40,%edi
ffff800000108a15:	48 b8 68 15 10 00 00 	movabs $0xffff800000101568,%rax
ffff800000108a1c:	80 ff ff 
ffff800000108a1f:	ff d0                	callq  *%rax
ffff800000108a21:	48 be 65 89 10 00 00 	movabs $0xffff800000108965,%rsi
ffff800000108a28:	80 ff ff 
ffff800000108a2b:	bf 20 00 00 00       	mov    $0x20,%edi
ffff800000108a30:	48 b8 f0 47 10 00 00 	movabs $0xffff8000001047f0,%rax
ffff800000108a37:	80 ff ff 
ffff800000108a3a:	ff d0                	callq  *%rax
ffff800000108a3c:	90                   	nop
ffff800000108a3d:	c9                   	leaveq 
ffff800000108a3e:	c3                   	retq   

ffff800000108a3f <HPETHandler>:
ffff800000108a3f:	55                   	push   %rbp
ffff800000108a40:	48 89 e5             	mov    %rsp,%rbp
ffff800000108a43:	48 ba 46 bd 10 00 00 	movabs $0xffff80000010bd46,%rdx
ffff800000108a4a:	80 ff ff 
ffff800000108a4d:	be 00 ff 00 00       	mov    $0xff00,%esi
ffff800000108a52:	bf 00 00 00 00       	mov    $0x0,%edi
ffff800000108a57:	b8 00 00 00 00       	mov    $0x0,%eax
ffff800000108a5c:	48 b9 ed 27 10 00 00 	movabs $0xffff8000001027ed,%rcx
ffff800000108a63:	80 ff ff 
ffff800000108a66:	ff d1                	callq  *%rcx
ffff800000108a68:	90                   	nop
ffff800000108a69:	5d                   	pop    %rbp
ffff800000108a6a:	c3                   	retq   

ffff800000108a6b <initHPET>:
ffff800000108a6b:	55                   	push   %rbp
ffff800000108a6c:	48 89 e5             	mov    %rsp,%rbp
ffff800000108a6f:	48 83 ec 20          	sub    $0x20,%rsp
ffff800000108a73:	48 be 3f 8a 10 00 00 	movabs $0xffff800000108a3f,%rsi
ffff800000108a7a:	80 ff ff 
ffff800000108a7d:	bf 22 00 00 00       	mov    $0x22,%edi
ffff800000108a82:	48 b8 f0 47 10 00 00 	movabs $0xffff8000001047f0,%rax
ffff800000108a89:	80 ff ff 
ffff800000108a8c:	ff d0                	callq  *%rax
ffff800000108a8e:	48 b8 00 00 10 01 00 	movabs $0xffff800001100000,%rax
ffff800000108a95:	80 ff ff 
ffff800000108a98:	48 89 45 f0          	mov    %rax,-0x10(%rbp)
ffff800000108a9c:	be f0 f8 00 80       	mov    $0x8000f8f0,%esi
ffff800000108aa1:	bf f8 0c 00 00       	mov    $0xcf8,%edi
ffff800000108aa6:	48 b8 4d 15 10 00 00 	movabs $0xffff80000010154d,%rax
ffff800000108aad:	80 ff ff 
ffff800000108ab0:	ff d0                	callq  *%rax
ffff800000108ab2:	bf fc 0c 00 00       	mov    $0xcfc,%edi
ffff800000108ab7:	48 b8 a9 15 10 00 00 	movabs $0xffff8000001015a9,%rax
ffff800000108abe:	80 ff ff 
ffff800000108ac1:	ff d0                	callq  *%rax
ffff800000108ac3:	89 45 ec             	mov    %eax,-0x14(%rbp)
ffff800000108ac6:	8b 45 ec             	mov    -0x14(%rbp),%eax
ffff800000108ac9:	89 c1                	mov    %eax,%ecx
ffff800000108acb:	48 ba 4f bd 10 00 00 	movabs $0xffff80000010bd4f,%rdx
ffff800000108ad2:	80 ff ff 
ffff800000108ad5:	be 00 00 ff 00       	mov    $0xff0000,%esi
ffff800000108ada:	bf 00 00 00 00       	mov    $0x0,%edi
ffff800000108adf:	b8 00 00 00 00       	mov    $0x0,%eax
ffff800000108ae4:	49 b8 ed 27 10 00 00 	movabs $0xffff8000001027ed,%r8
ffff800000108aeb:	80 ff ff 
ffff800000108aee:	41 ff d0             	callq  *%r8
ffff800000108af1:	81 65 ec 00 c0 ff ff 	andl   $0xffffc000,-0x14(%rbp)
ffff800000108af8:	48 b8 00 c0 5f 01 00 	movabs $0xffff8000015fc000,%rax
ffff800000108aff:	80 ff ff 
ffff800000108b02:	48 89 45 f8          	mov    %rax,-0x8(%rbp)
ffff800000108b06:	8b 45 ec             	mov    -0x14(%rbp),%eax
ffff800000108b09:	89 c1                	mov    %eax,%ecx
ffff800000108b0b:	48 ba 4f bd 10 00 00 	movabs $0xffff80000010bd4f,%rdx
ffff800000108b12:	80 ff ff 
ffff800000108b15:	be 00 00 ff 00       	mov    $0xff0000,%esi
ffff800000108b1a:	bf 00 00 00 00       	mov    $0x0,%edi
ffff800000108b1f:	b8 00 00 00 00       	mov    $0x0,%eax
ffff800000108b24:	49 b8 ed 27 10 00 00 	movabs $0xffff8000001027ed,%r8
ffff800000108b2b:	80 ff ff 
ffff800000108b2e:	41 ff d0             	callq  *%r8
ffff800000108b31:	81 7d ec 00 00 c0 fe 	cmpl   $0xfec00000,-0x14(%rbp)
ffff800000108b38:	76 16                	jbe    ffff800000108b50 <initHPET+0xe5>
ffff800000108b3a:	81 7d ec ff ff df fe 	cmpl   $0xfedfffff,-0x14(%rbp)
ffff800000108b41:	77 0d                	ja     ffff800000108b50 <initHPET+0xe5>
ffff800000108b43:	8b 45 ec             	mov    -0x14(%rbp),%eax
ffff800000108b46:	48 05 04 34 00 00    	add    $0x3404,%rax
ffff800000108b4c:	48 89 45 f8          	mov    %rax,-0x8(%rbp)
ffff800000108b50:	48 8b 45 f8          	mov    -0x8(%rbp),%rax
ffff800000108b54:	c7 00 80 00 00 00    	movl   $0x80,(%rax)
ffff800000108b5a:	0f ae f0             	mfence 
ffff800000108b5d:	48 8b 45 f0          	mov    -0x10(%rbp),%rax
ffff800000108b61:	48 83 c0 10          	add    $0x10,%rax
ffff800000108b65:	c7 00 03 00 00 00    	movl   $0x3,(%rax)
ffff800000108b6b:	48 ba 54 bd 10 00 00 	movabs $0xffff80000010bd54,%rdx
ffff800000108b72:	80 ff ff 
ffff800000108b75:	be 00 00 ff 00       	mov    $0xff0000,%esi
ffff800000108b7a:	bf 00 00 00 00       	mov    $0x0,%edi
ffff800000108b7f:	b8 00 00 00 00       	mov    $0x0,%eax
ffff800000108b84:	48 b9 ed 27 10 00 00 	movabs $0xffff8000001027ed,%rcx
ffff800000108b8b:	80 ff ff 
ffff800000108b8e:	ff d1                	callq  *%rcx
ffff800000108b90:	0f ae f0             	mfence 
ffff800000108b93:	48 8b 45 f0          	mov    -0x10(%rbp),%rax
ffff800000108b97:	48 05 00 01 00 00    	add    $0x100,%rax
ffff800000108b9d:	c7 00 4c 00 00 00    	movl   $0x4c,(%rax)
ffff800000108ba3:	0f ae f0             	mfence 
ffff800000108ba6:	48 8b 45 f0          	mov    -0x10(%rbp),%rax
ffff800000108baa:	48 05 08 01 00 00    	add    $0x108,%rax
ffff800000108bb0:	c7 00 63 7a da 00    	movl   $0xda7a63,(%rax)
ffff800000108bb6:	0f ae f0             	mfence 
ffff800000108bb9:	48 8b 45 f0          	mov    -0x10(%rbp),%rax
ffff800000108bbd:	48 05 f0 00 00 00    	add    $0xf0,%rax
ffff800000108bc3:	c7 00 00 00 00 00    	movl   $0x0,(%rax)
ffff800000108bc9:	0f ae f0             	mfence 
ffff800000108bcc:	90                   	nop
ffff800000108bcd:	c9                   	leaveq 
ffff800000108bce:	c3                   	retq   

ffff800000108bcf <scanf_files>:
ffff800000108bcf:	55                   	push   %rbp
ffff800000108bd0:	48 89 e5             	mov    %rsp,%rbp
ffff800000108bd3:	48 83 ec 10          	sub    $0x10,%rsp
ffff800000108bd7:	48 b8 a8 1e 11 00 00 	movabs $0xffff800000111ea8,%rax
ffff800000108bde:	80 ff ff 
ffff800000108be1:	c7 00 00 00 00 00    	movl   $0x0,(%rax)
ffff800000108be7:	c7 45 f8 00 00 00 00 	movl   $0x0,-0x8(%rbp)
ffff800000108bee:	e9 3f 01 00 00       	jmpq   ffff800000108d32 <scanf_files+0x163>
ffff800000108bf3:	8b 45 f8             	mov    -0x8(%rbp),%eax
ffff800000108bf6:	83 c0 13             	add    $0x13,%eax
ffff800000108bf9:	48 be c0 17 11 00 00 	movabs $0xffff8000001117c0,%rsi
ffff800000108c00:	80 ff ff 
ffff800000108c03:	89 c7                	mov    %eax,%edi
ffff800000108c05:	48 b8 2c 7c 10 00 00 	movabs $0xffff800000107c2c,%rax
ffff800000108c0c:	80 ff ff 
ffff800000108c0f:	ff d0                	callq  *%rax
ffff800000108c11:	90                   	nop
ffff800000108c12:	48 b8 c0 19 11 00 00 	movabs $0xffff8000001119c0,%rax
ffff800000108c19:	80 ff ff 
ffff800000108c1c:	0f b6 00             	movzbl (%rax),%eax
ffff800000108c1f:	84 c0                	test   %al,%al
ffff800000108c21:	74 ef                	je     ffff800000108c12 <scanf_files+0x43>
ffff800000108c23:	c7 45 fc 00 00 00 00 	movl   $0x0,-0x4(%rbp)
ffff800000108c2a:	e9 f5 00 00 00       	jmpq   ffff800000108d24 <scanf_files+0x155>
ffff800000108c2f:	48 ba c0 17 11 00 00 	movabs $0xffff8000001117c0,%rdx
ffff800000108c36:	80 ff ff 
ffff800000108c39:	8b 45 fc             	mov    -0x4(%rbp),%eax
ffff800000108c3c:	48 98                	cltq   
ffff800000108c3e:	48 c1 e0 05          	shl    $0x5,%rax
ffff800000108c42:	48 01 d0             	add    %rdx,%rax
ffff800000108c45:	48 83 c0 0b          	add    $0xb,%rax
ffff800000108c49:	0f b6 00             	movzbl (%rax),%eax
ffff800000108c4c:	3c 20                	cmp    $0x20,%al
ffff800000108c4e:	0f 85 cb 00 00 00    	jne    ffff800000108d1f <scanf_files+0x150>
ffff800000108c54:	48 b8 a8 1e 11 00 00 	movabs $0xffff800000111ea8,%rax
ffff800000108c5b:	80 ff ff 
ffff800000108c5e:	8b 00                	mov    (%rax),%eax
ffff800000108c60:	8d 50 01             	lea    0x1(%rax),%edx
ffff800000108c63:	48 b9 a8 1e 11 00 00 	movabs $0xffff800000111ea8,%rcx
ffff800000108c6a:	80 ff ff 
ffff800000108c6d:	89 11                	mov    %edx,(%rcx)
ffff800000108c6f:	48 ba c0 1e 11 00 00 	movabs $0xffff800000111ec0,%rdx
ffff800000108c76:	80 ff ff 
ffff800000108c79:	48 98                	cltq   
ffff800000108c7b:	48 c1 e0 05          	shl    $0x5,%rax
ffff800000108c7f:	48 8d 0c 02          	lea    (%rdx,%rax,1),%rcx
ffff800000108c83:	48 ba c0 17 11 00 00 	movabs $0xffff8000001117c0,%rdx
ffff800000108c8a:	80 ff ff 
ffff800000108c8d:	8b 45 fc             	mov    -0x4(%rbp),%eax
ffff800000108c90:	48 98                	cltq   
ffff800000108c92:	48 c1 e0 05          	shl    $0x5,%rax
ffff800000108c96:	48 8d 34 02          	lea    (%rdx,%rax,1),%rsi
ffff800000108c9a:	48 8b 06             	mov    (%rsi),%rax
ffff800000108c9d:	48 8b 56 08          	mov    0x8(%rsi),%rdx
ffff800000108ca1:	48 89 01             	mov    %rax,(%rcx)
ffff800000108ca4:	48 89 51 08          	mov    %rdx,0x8(%rcx)
ffff800000108ca8:	48 8b 46 10          	mov    0x10(%rsi),%rax
ffff800000108cac:	48 8b 56 18          	mov    0x18(%rsi),%rdx
ffff800000108cb0:	48 89 41 10          	mov    %rax,0x10(%rcx)
ffff800000108cb4:	48 89 51 18          	mov    %rdx,0x18(%rcx)
ffff800000108cb8:	48 ba c0 17 11 00 00 	movabs $0xffff8000001117c0,%rdx
ffff800000108cbf:	80 ff ff 
ffff800000108cc2:	8b 45 fc             	mov    -0x4(%rbp),%eax
ffff800000108cc5:	48 98                	cltq   
ffff800000108cc7:	48 c1 e0 05          	shl    $0x5,%rax
ffff800000108ccb:	48 01 d0             	add    %rdx,%rax
ffff800000108cce:	48 83 c0 16          	add    $0x16,%rax
ffff800000108cd2:	0f b7 00             	movzwl (%rax),%eax
ffff800000108cd5:	0f b7 d0             	movzwl %ax,%edx
ffff800000108cd8:	8b 45 fc             	mov    -0x4(%rbp),%eax
ffff800000108cdb:	48 98                	cltq   
ffff800000108cdd:	48 c1 e0 05          	shl    $0x5,%rax
ffff800000108ce1:	48 89 c1             	mov    %rax,%rcx
ffff800000108ce4:	48 b8 c0 17 11 00 00 	movabs $0xffff8000001117c0,%rax
ffff800000108ceb:	80 ff ff 
ffff800000108cee:	48 01 c8             	add    %rcx,%rax
ffff800000108cf1:	41 89 d0             	mov    %edx,%r8d
ffff800000108cf4:	48 89 c1             	mov    %rax,%rcx
ffff800000108cf7:	48 ba 59 bd 10 00 00 	movabs $0xffff80000010bd59,%rdx
ffff800000108cfe:	80 ff ff 
ffff800000108d01:	be 00 ff ff 00       	mov    $0xffff00,%esi
ffff800000108d06:	bf 00 00 00 00       	mov    $0x0,%edi
ffff800000108d0b:	b8 00 00 00 00       	mov    $0x0,%eax
ffff800000108d10:	49 b9 ed 27 10 00 00 	movabs $0xffff8000001027ed,%r9
ffff800000108d17:	80 ff ff 
ffff800000108d1a:	41 ff d1             	callq  *%r9
ffff800000108d1d:	eb 01                	jmp    ffff800000108d20 <scanf_files+0x151>
ffff800000108d1f:	90                   	nop
ffff800000108d20:	83 45 fc 01          	addl   $0x1,-0x4(%rbp)
ffff800000108d24:	83 7d fc 0f          	cmpl   $0xf,-0x4(%rbp)
ffff800000108d28:	0f 8e 01 ff ff ff    	jle    ffff800000108c2f <scanf_files+0x60>
ffff800000108d2e:	83 45 f8 01          	addl   $0x1,-0x8(%rbp)
ffff800000108d32:	83 7d f8 0d          	cmpl   $0xd,-0x8(%rbp)
ffff800000108d36:	0f 8e b7 fe ff ff    	jle    ffff800000108bf3 <scanf_files+0x24>
ffff800000108d3c:	bf 00 12 00 00       	mov    $0x1200,%edi
ffff800000108d41:	b8 00 00 00 00       	mov    $0x0,%eax
ffff800000108d46:	48 ba 34 6a 10 00 00 	movabs $0xffff800000106a34,%rdx
ffff800000108d4d:	80 ff ff 
ffff800000108d50:	ff d2                	callq  *%rdx
ffff800000108d52:	48 98                	cltq   
ffff800000108d54:	48 89 c2             	mov    %rax,%rdx
ffff800000108d57:	48 b8 a0 1e 11 00 00 	movabs $0xffff800000111ea0,%rax
ffff800000108d5e:	80 ff ff 
ffff800000108d61:	48 89 10             	mov    %rdx,(%rax)
ffff800000108d64:	c7 45 fc 01 00 00 00 	movl   $0x1,-0x4(%rbp)
ffff800000108d6b:	eb 30                	jmp    ffff800000108d9d <scanf_files+0x1ce>
ffff800000108d6d:	48 b8 a0 1e 11 00 00 	movabs $0xffff800000111ea0,%rax
ffff800000108d74:	80 ff ff 
ffff800000108d77:	48 8b 10             	mov    (%rax),%rdx
ffff800000108d7a:	8b 45 fc             	mov    -0x4(%rbp),%eax
ffff800000108d7d:	c1 e0 09             	shl    $0x9,%eax
ffff800000108d80:	48 98                	cltq   
ffff800000108d82:	48 01 c2             	add    %rax,%rdx
ffff800000108d85:	8b 45 fc             	mov    -0x4(%rbp),%eax
ffff800000108d88:	48 89 d6             	mov    %rdx,%rsi
ffff800000108d8b:	89 c7                	mov    %eax,%edi
ffff800000108d8d:	48 b8 2c 7c 10 00 00 	movabs $0xffff800000107c2c,%rax
ffff800000108d94:	80 ff ff 
ffff800000108d97:	ff d0                	callq  *%rax
ffff800000108d99:	83 45 fc 01          	addl   $0x1,-0x4(%rbp)
ffff800000108d9d:	83 7d fc 09          	cmpl   $0x9,-0x4(%rbp)
ffff800000108da1:	7e ca                	jle    ffff800000108d6d <scanf_files+0x19e>
ffff800000108da3:	48 ba 70 bd 10 00 00 	movabs $0xffff80000010bd70,%rdx
ffff800000108daa:	80 ff ff 
ffff800000108dad:	be 00 00 ff 00       	mov    $0xff0000,%esi
ffff800000108db2:	bf 00 00 00 00       	mov    $0x0,%edi
ffff800000108db7:	b8 00 00 00 00       	mov    $0x0,%eax
ffff800000108dbc:	48 b9 ed 27 10 00 00 	movabs $0xffff8000001027ed,%rcx
ffff800000108dc3:	80 ff ff 
ffff800000108dc6:	ff d1                	callq  *%rcx
ffff800000108dc8:	48 bf 7e bd 10 00 00 	movabs $0xffff80000010bd7e,%rdi
ffff800000108dcf:	80 ff ff 
ffff800000108dd2:	48 b8 67 8e 10 00 00 	movabs $0xffff800000108e67,%rax
ffff800000108dd9:	80 ff ff 
ffff800000108ddc:	ff d0                	callq  *%rax
ffff800000108dde:	90                   	nop
ffff800000108ddf:	c9                   	leaveq 
ffff800000108de0:	c3                   	retq   

ffff800000108de1 <ls>:
ffff800000108de1:	55                   	push   %rbp
ffff800000108de2:	48 89 e5             	mov    %rsp,%rbp
ffff800000108de5:	48 83 ec 10          	sub    $0x10,%rsp
ffff800000108de9:	c7 45 fc 00 00 00 00 	movl   $0x0,-0x4(%rbp)
ffff800000108df0:	eb 46                	jmp    ffff800000108e38 <ls+0x57>
ffff800000108df2:	8b 45 fc             	mov    -0x4(%rbp),%eax
ffff800000108df5:	48 98                	cltq   
ffff800000108df7:	48 c1 e0 05          	shl    $0x5,%rax
ffff800000108dfb:	48 89 c2             	mov    %rax,%rdx
ffff800000108dfe:	48 b8 c0 1e 11 00 00 	movabs $0xffff800000111ec0,%rax
ffff800000108e05:	80 ff ff 
ffff800000108e08:	48 01 d0             	add    %rdx,%rax
ffff800000108e0b:	48 89 c1             	mov    %rax,%rcx
ffff800000108e0e:	48 ba 8a bd 10 00 00 	movabs $0xffff80000010bd8a,%rdx
ffff800000108e15:	80 ff ff 
ffff800000108e18:	be ff ff 00 00       	mov    $0xffff,%esi
ffff800000108e1d:	bf 00 00 00 00       	mov    $0x0,%edi
ffff800000108e22:	b8 00 00 00 00       	mov    $0x0,%eax
ffff800000108e27:	49 b8 ed 27 10 00 00 	movabs $0xffff8000001027ed,%r8
ffff800000108e2e:	80 ff ff 
ffff800000108e31:	41 ff d0             	callq  *%r8
ffff800000108e34:	83 45 fc 01          	addl   $0x1,-0x4(%rbp)
ffff800000108e38:	48 b8 a8 1e 11 00 00 	movabs $0xffff800000111ea8,%rax
ffff800000108e3f:	80 ff ff 
ffff800000108e42:	8b 00                	mov    (%rax),%eax
ffff800000108e44:	39 45 fc             	cmp    %eax,-0x4(%rbp)
ffff800000108e47:	7c a9                	jl     ffff800000108df2 <ls+0x11>
ffff800000108e49:	48 bf 8e bd 10 00 00 	movabs $0xffff80000010bd8e,%rdi
ffff800000108e50:	80 ff ff 
ffff800000108e53:	b8 00 00 00 00       	mov    $0x0,%eax
ffff800000108e58:	48 ba 50 30 10 00 00 	movabs $0xffff800000103050,%rdx
ffff800000108e5f:	80 ff ff 
ffff800000108e62:	ff d2                	callq  *%rdx
ffff800000108e64:	90                   	nop
ffff800000108e65:	c9                   	leaveq 
ffff800000108e66:	c3                   	retq   

ffff800000108e67 <read_file>:
ffff800000108e67:	55                   	push   %rbp
ffff800000108e68:	48 89 e5             	mov    %rsp,%rbp
ffff800000108e6b:	48 83 ec 20          	sub    $0x20,%rsp
ffff800000108e6f:	48 89 7d e8          	mov    %rdi,-0x18(%rbp)
ffff800000108e73:	c7 45 fc 00 00 00 00 	movl   $0x0,-0x4(%rbp)
ffff800000108e7a:	eb 6c                	jmp    ffff800000108ee8 <read_file+0x81>
ffff800000108e7c:	8b 45 fc             	mov    -0x4(%rbp),%eax
ffff800000108e7f:	48 98                	cltq   
ffff800000108e81:	48 c1 e0 05          	shl    $0x5,%rax
ffff800000108e85:	48 89 c2             	mov    %rax,%rdx
ffff800000108e88:	48 b8 c0 1e 11 00 00 	movabs $0xffff800000111ec0,%rax
ffff800000108e8f:	80 ff ff 
ffff800000108e92:	48 01 c2             	add    %rax,%rdx
ffff800000108e95:	48 8b 45 e8          	mov    -0x18(%rbp),%rax
ffff800000108e99:	48 89 c6             	mov    %rax,%rsi
ffff800000108e9c:	48 89 d7             	mov    %rdx,%rdi
ffff800000108e9f:	b8 00 00 00 00       	mov    $0x0,%eax
ffff800000108ea4:	48 ba f8 83 10 00 00 	movabs $0xffff8000001083f8,%rdx
ffff800000108eab:	80 ff ff 
ffff800000108eae:	ff d2                	callq  *%rdx
ffff800000108eb0:	85 c0                	test   %eax,%eax
ffff800000108eb2:	74 30                	je     ffff800000108ee4 <read_file+0x7d>
ffff800000108eb4:	48 ba c0 1e 11 00 00 	movabs $0xffff800000111ec0,%rdx
ffff800000108ebb:	80 ff ff 
ffff800000108ebe:	8b 45 fc             	mov    -0x4(%rbp),%eax
ffff800000108ec1:	48 98                	cltq   
ffff800000108ec3:	48 c1 e0 05          	shl    $0x5,%rax
ffff800000108ec7:	48 01 d0             	add    %rdx,%rax
ffff800000108eca:	48 83 c0 1a          	add    $0x1a,%rax
ffff800000108ece:	0f b7 00             	movzwl (%rax),%eax
ffff800000108ed1:	0f b7 c0             	movzwl %ax,%eax
ffff800000108ed4:	89 c7                	mov    %eax,%edi
ffff800000108ed6:	48 b8 22 8f 10 00 00 	movabs $0xffff800000108f22,%rax
ffff800000108edd:	80 ff ff 
ffff800000108ee0:	ff d0                	callq  *%rax
ffff800000108ee2:	eb 3c                	jmp    ffff800000108f20 <read_file+0xb9>
ffff800000108ee4:	83 45 fc 01          	addl   $0x1,-0x4(%rbp)
ffff800000108ee8:	48 b8 a8 1e 11 00 00 	movabs $0xffff800000111ea8,%rax
ffff800000108eef:	80 ff ff 
ffff800000108ef2:	8b 00                	mov    (%rax),%eax
ffff800000108ef4:	39 45 fc             	cmp    %eax,-0x4(%rbp)
ffff800000108ef7:	7c 83                	jl     ffff800000108e7c <read_file+0x15>
ffff800000108ef9:	48 8b 45 e8          	mov    -0x18(%rbp),%rax
ffff800000108efd:	48 89 c6             	mov    %rax,%rsi
ffff800000108f00:	48 bf 90 bd 10 00 00 	movabs $0xffff80000010bd90,%rdi
ffff800000108f07:	80 ff ff 
ffff800000108f0a:	b8 00 00 00 00       	mov    $0x0,%eax
ffff800000108f0f:	48 ba 50 30 10 00 00 	movabs $0xffff800000103050,%rdx
ffff800000108f16:	80 ff ff 
ffff800000108f19:	ff d2                	callq  *%rdx
ffff800000108f1b:	b8 00 00 00 00       	mov    $0x0,%eax
ffff800000108f20:	c9                   	leaveq 
ffff800000108f21:	c3                   	retq   

ffff800000108f22 <store_file_cluster>:
ffff800000108f22:	55                   	push   %rbp
ffff800000108f23:	48 89 e5             	mov    %rsp,%rbp
ffff800000108f26:	48 83 ec 20          	sub    $0x20,%rsp
ffff800000108f2a:	89 f8                	mov    %edi,%eax
ffff800000108f2c:	66 89 45 ec          	mov    %ax,-0x14(%rbp)
ffff800000108f30:	66 81 7d ec f7 0f    	cmpw   $0xff7,-0x14(%rbp)
ffff800000108f36:	76 0a                	jbe    ffff800000108f42 <store_file_cluster+0x20>
ffff800000108f38:	b8 00 00 00 00       	mov    $0x0,%eax
ffff800000108f3d:	e9 9c 00 00 00       	jmpq   ffff800000108fde <store_file_cluster+0xbc>
ffff800000108f42:	0f b7 45 ec          	movzwl -0x14(%rbp),%eax
ffff800000108f46:	89 c6                	mov    %eax,%esi
ffff800000108f48:	48 bf 9b bd 10 00 00 	movabs $0xffff80000010bd9b,%rdi
ffff800000108f4f:	80 ff ff 
ffff800000108f52:	b8 00 00 00 00       	mov    $0x0,%eax
ffff800000108f57:	48 ba 50 30 10 00 00 	movabs $0xffff800000103050,%rdx
ffff800000108f5e:	80 ff ff 
ffff800000108f61:	ff d2                	callq  *%rdx
ffff800000108f63:	bf 10 00 00 00       	mov    $0x10,%edi
ffff800000108f68:	b8 00 00 00 00       	mov    $0x0,%eax
ffff800000108f6d:	48 ba 34 6a 10 00 00 	movabs $0xffff800000106a34,%rdx
ffff800000108f74:	80 ff ff 
ffff800000108f77:	ff d2                	callq  *%rdx
ffff800000108f79:	48 98                	cltq   
ffff800000108f7b:	48 89 45 f8          	mov    %rax,-0x8(%rbp)
ffff800000108f7f:	bf 00 02 00 00       	mov    $0x200,%edi
ffff800000108f84:	b8 00 00 00 00       	mov    $0x0,%eax
ffff800000108f89:	48 ba 34 6a 10 00 00 	movabs $0xffff800000106a34,%rdx
ffff800000108f90:	80 ff ff 
ffff800000108f93:	ff d2                	callq  *%rdx
ffff800000108f95:	48 98                	cltq   
ffff800000108f97:	48 89 c2             	mov    %rax,%rdx
ffff800000108f9a:	48 8b 45 f8          	mov    -0x8(%rbp),%rax
ffff800000108f9e:	48 89 10             	mov    %rdx,(%rax)
ffff800000108fa1:	48 b8 a0 1e 11 00 00 	movabs $0xffff800000111ea0,%rax
ffff800000108fa8:	80 ff ff 
ffff800000108fab:	48 8b 10             	mov    (%rax),%rdx
ffff800000108fae:	0f b7 45 ec          	movzwl -0x14(%rbp),%eax
ffff800000108fb2:	48 01 d0             	add    %rdx,%rax
ffff800000108fb5:	0f b6 00             	movzbl (%rax),%eax
ffff800000108fb8:	0f b6 c0             	movzbl %al,%eax
ffff800000108fbb:	83 e0 f0             	and    $0xfffffff0,%eax
ffff800000108fbe:	66 89 45 ec          	mov    %ax,-0x14(%rbp)
ffff800000108fc2:	48 8b 45 f8          	mov    -0x8(%rbp),%rax
ffff800000108fc6:	48 8b 10             	mov    (%rax),%rdx
ffff800000108fc9:	0f b7 45 ec          	movzwl -0x14(%rbp),%eax
ffff800000108fcd:	48 89 d6             	mov    %rdx,%rsi
ffff800000108fd0:	89 c7                	mov    %eax,%edi
ffff800000108fd2:	48 b8 2c 7c 10 00 00 	movabs $0xffff800000107c2c,%rax
ffff800000108fd9:	80 ff ff 
ffff800000108fdc:	ff d0                	callq  *%rax
ffff800000108fde:	c9                   	leaveq 
ffff800000108fdf:	c3                   	retq   
